---
triple:          'arm64-apple-darwin'
binary-path:     '/Users/awhitworth/github_projects/pysynthACS/target/debug/deps/libpysynthacs_core.dylib'
relocations:
  - { offset: 0x1E, size: 0x8, addend: 0x0, symName: '__ZN132_$LT$usize$u20$as$u20$ndarray..dimension..ndindex..NdIndex$LT$ndarray..dimension..dim..Dim$LT$$u5b$usize$u3b$$u20$1$u5d$$GT$$GT$$GT$13index_checked17hd86bba3391503233E', symObjAddr: 0x0, symBinAddr: 0x888, symSize: 0x7C }
  - { offset: 0xA3, size: 0x8, addend: 0x0, symName: '__ZN132_$LT$usize$u20$as$u20$ndarray..dimension..ndindex..NdIndex$LT$ndarray..dimension..dim..Dim$LT$$u5b$usize$u3b$$u20$1$u5d$$GT$$GT$$GT$13index_checked17hd86bba3391503233E', symObjAddr: 0x0, symBinAddr: 0x888, symSize: 0x7C }
  - { offset: 0x10E, size: 0x8, addend: 0x0, symName: '__ZN153_$LT$$u5b$usize$u3b$$u20$2$u5d$$u20$as$u20$ndarray..dimension..ndindex..NdIndex$LT$ndarray..dimension..dim..Dim$LT$$u5b$usize$u3b$$u20$2$u5d$$GT$$GT$$GT$13index_checked17h965f243bd7faa70aE', symObjAddr: 0x7C, symBinAddr: 0x904, symSize: 0x60 }
  - { offset: 0x295, size: 0x8, addend: 0x0, symName: '__ZN77_$LT$usize$u20$as$u20$core..iter..traits..accum..Product$LT$$RF$usize$GT$$GT$7product17hc1453ba485cba79dE', symObjAddr: 0x0, symBinAddr: 0x964, symSize: 0x34 }
  - { offset: 0x2BB, size: 0x8, addend: 0x0, symName: '__ZN77_$LT$usize$u20$as$u20$core..iter..traits..accum..Product$LT$$RF$usize$GT$$GT$7product17hc1453ba485cba79dE', symObjAddr: 0x0, symBinAddr: 0x964, symSize: 0x34 }
  - { offset: 0x2F5, size: 0x8, addend: 0x0, symName: '__ZN77_$LT$usize$u20$as$u20$core..iter..traits..accum..Product$LT$$RF$usize$GT$$GT$7product28_$u7b$$u7b$closure$u7d$$u7d$17hd549c5ba219cfde5E', symObjAddr: 0x34, symBinAddr: 0x998, symSize: 0x54 }
  - { offset: 0x4C2, size: 0x8, addend: 0x0, symName: __ZN3std9panicking12catch_unwind7do_call17h9cdfeb3151efd013E, symObjAddr: 0x0, symBinAddr: 0x9EC, symSize: 0x74 }
  - { offset: 0x20A5, size: 0x8, addend: 0x0, symName: __ZN3std9panicking12catch_unwind7do_call17h9cdfeb3151efd013E, symObjAddr: 0x0, symBinAddr: 0x9EC, symSize: 0x74 }
  - { offset: 0x218B, size: 0x8, addend: 0x0, symName: __ZN3std9panicking12catch_unwind7do_call17hef77056be022f484E, symObjAddr: 0x74, symBinAddr: 0xA60, symSize: 0x60 }
  - { offset: 0x2271, size: 0x8, addend: 0x0, symName: __ZN3std9panicking12catch_unwind8do_catch17h15047ac97c1f3383E, symObjAddr: 0xD4, symBinAddr: 0xAC0, symSize: 0x70 }
  - { offset: 0x2306, size: 0x8, addend: 0x0, symName: __ZN3std9panicking12catch_unwind8do_catch17hc12c104fe276c69aE, symObjAddr: 0x144, symBinAddr: 0xB30, symSize: 0x70 }
  - { offset: 0x24EF, size: 0x8, addend: 0x0, symName: '__ZN62_$LT$numpy..error..BorrowError$u20$as$u20$core..fmt..Debug$GT$3fmt17hcd5d37dd209a0e37E', symObjAddr: 0x0, symBinAddr: 0xBA0, symSize: 0x74 }
  - { offset: 0x2523, size: 0x8, addend: 0x0, symName: '__ZN62_$LT$numpy..error..BorrowError$u20$as$u20$core..fmt..Debug$GT$3fmt17hcd5d37dd209a0e37E', symObjAddr: 0x0, symBinAddr: 0xBA0, symSize: 0x74 }
  - { offset: 0x26F2, size: 0x8, addend: 0x0, symName: '__ZN4core3ptr9const_ptr33_$LT$impl$u20$$BP$const$u20$T$GT$20offset_from_unsigned18precondition_check17hc39c601fa3ab122cE', symObjAddr: 0x0, symBinAddr: 0xC14, symSize: 0xAC }
  - { offset: 0x29DC, size: 0x8, addend: 0x0, symName: '__ZN4core3ptr9const_ptr33_$LT$impl$u20$$BP$const$u20$T$GT$20offset_from_unsigned18precondition_check17hc39c601fa3ab122cE', symObjAddr: 0x0, symBinAddr: 0xC14, symSize: 0xAC }
  - { offset: 0x2ADA, size: 0x8, addend: 0x0, symName: '__ZN4core3ptr9const_ptr33_$LT$impl$u20$$BP$const$u20$T$GT$6offset18precondition_check17hb923fabff673f342E', symObjAddr: 0xAC, symBinAddr: 0xCC0, symSize: 0x110 }
  - { offset: 0x305F, size: 0x8, addend: 0x0, symName: __ZN4pyo35impl_4wrap19map_result_into_ptr17h7446f67da479df56E, symObjAddr: 0x0, symBinAddr: 0xDD0, symSize: 0x20 }
  - { offset: 0x43B6, size: 0x8, addend: 0x0, symName: __ZN4pyo35impl_4wrap19map_result_into_ptr17h7446f67da479df56E, symObjAddr: 0x0, symBinAddr: 0xDD0, symSize: 0x20 }
  - { offset: 0x440A, size: 0x8, addend: 0x0, symName: '__ZN4pyo35impl_4wrap19map_result_into_ptr28_$u7b$$u7b$closure$u7d$$u7d$17hbafd481bf5d6c216E', symObjAddr: 0x20, symBinAddr: 0xDF0, symSize: 0x2C }
  - { offset: 0x4BFC, size: 0x8, addend: 0x0, symName: '__ZN4core3fmt3num52_$LT$impl$u20$core..fmt..Debug$u20$for$u20$usize$GT$3fmt17h7ec15aee09704dfbE', symObjAddr: 0x0, symBinAddr: 0xE1C, symSize: 0x90 }
  - { offset: 0x4C97, size: 0x8, addend: 0x0, symName: '__ZN4core3fmt3num52_$LT$impl$u20$core..fmt..Debug$u20$for$u20$usize$GT$3fmt17h7ec15aee09704dfbE', symObjAddr: 0x0, symBinAddr: 0xE1C, symSize: 0x90 }
  - { offset: 0x4E81, size: 0x8, addend: 0x0, symName: '__ZN4core3ptr7mut_ptr31_$LT$impl$u20$$BP$mut$u20$T$GT$6offset18precondition_check17h8aa36fc320f43d6cE', symObjAddr: 0x0, symBinAddr: 0xEAC, symSize: 0x110 }
  - { offset: 0x4F37, size: 0x8, addend: 0x0, symName: '__ZN4core3ptr7mut_ptr31_$LT$impl$u20$$BP$mut$u20$T$GT$6offset18precondition_check17h8aa36fc320f43d6cE', symObjAddr: 0x0, symBinAddr: 0xEAC, symSize: 0x110 }
  - { offset: 0x577A, size: 0x8, addend: 0x0, symName: '__ZN103_$LT$core..ops..range..Range$LT$T$GT$$u20$as$u20$rand..distributions..uniform..SampleRange$LT$T$GT$$GT$13sample_single17h9005a31fa4fa1e3dE', symObjAddr: 0x0, symBinAddr: 0xFBC, symSize: 0x2C }
  - { offset: 0x6A29, size: 0x8, addend: 0x0, symName: '__ZN106_$LT$core..ops..range..Range$LT$usize$GT$$u20$as$u20$core..slice..index..SliceIndex$LT$$u5b$T$u5d$$GT$$GT$9index_mut17h01ecc95d93582c90E', symObjAddr: 0xC0, symBinAddr: 0x107C, symSize: 0xBC }
  - { offset: 0x6ADA, size: 0x8, addend: 0x0, symName: '__ZN108_$LT$core..ops..range..RangeTo$LT$usize$GT$$u20$as$u20$core..slice..index..SliceIndex$LT$$u5b$T$u5d$$GT$$GT$9index_mut17hd6632c71094af0a0E', symObjAddr: 0x17C, symBinAddr: 0x1138, symSize: 0x54 }
  - { offset: 0x6B61, size: 0x8, addend: 0x0, symName: '__ZN110_$LT$core..ops..range..RangeFrom$LT$usize$GT$$u20$as$u20$core..slice..index..SliceIndex$LT$$u5b$T$u5d$$GT$$GT$5index17h008c34478500a6ffE', symObjAddr: 0x1D0, symBinAddr: 0x118C, symSize: 0x70 }
  - { offset: 0x6D13, size: 0x8, addend: 0x0, symName: '__ZN4core4iter5range101_$LT$impl$u20$core..iter..traits..iterator..Iterator$u20$for$u20$core..ops..range..Range$LT$A$GT$$GT$9size_hint17hcfd20ff646373430E', symObjAddr: 0x240, symBinAddr: 0x11FC, symSize: 0x88 }
  - { offset: 0x6D81, size: 0x8, addend: 0x0, symName: __ZN4core4iter6traits8iterator8Iterator4take17h633007ea97d9df1fE, symObjAddr: 0x2C8, symBinAddr: 0x1284, symSize: 0x18 }
  - { offset: 0x6DC7, size: 0x8, addend: 0x0, symName: __ZN4core4iter6traits8iterator8Iterator6by_ref17h02a93351e732e935E, symObjAddr: 0x2E0, symBinAddr: 0x129C, symSize: 0x14 }
  - { offset: 0x6DFE, size: 0x8, addend: 0x0, symName: __ZN4core4iter6traits8iterator8Iterator8try_fold17haee2ab802fbaa97fE, symObjAddr: 0x2F4, symBinAddr: 0x12B0, symSize: 0x1A4 }
  - { offset: 0x6EB3, size: 0x8, addend: 0x0, symName: __ZN4core4iter6traits8iterator8Iterator9enumerate17h9ad7fe585a437f82E, symObjAddr: 0x498, symBinAddr: 0x1454, symSize: 0x20 }
  - { offset: 0x6F05, size: 0x8, addend: 0x0, symName: '__ZN72_$LT$$RF$mut$u20$I$u20$as$u20$core..iter..traits..iterator..Iterator$GT$8try_fold17h6bded9576ca89804E', symObjAddr: 0x7B8, symBinAddr: 0x1774, symSize: 0x28 }
  - { offset: 0x6F76, size: 0x8, addend: 0x0, symName: '__ZN72_$LT$$RF$mut$u20$I$u20$as$u20$core..iter..traits..iterator..Iterator$GT$9size_hint17hbed0fa29dbcdde38E', symObjAddr: 0x7E0, symBinAddr: 0x179C, symSize: 0x28 }
  - { offset: 0x6FB3, size: 0x8, addend: 0x0, symName: '__ZN79_$LT$$RF$mut$u20$I$u20$as$u20$core..iter..traits..iterator..IteratorRefSpec$GT$13spec_try_fold17h17c144a6cb2a59d9E', symObjAddr: 0x808, symBinAddr: 0x17C4, symSize: 0x2C }
  - { offset: 0x71A0, size: 0x8, addend: 0x0, symName: '__ZN103_$LT$core..ops..range..Range$LT$T$GT$$u20$as$u20$rand..distributions..uniform..SampleRange$LT$T$GT$$GT$13sample_single17h9005a31fa4fa1e3dE', symObjAddr: 0x0, symBinAddr: 0xFBC, symSize: 0x2C }
  - { offset: 0x71EF, size: 0x8, addend: 0x0, symName: '__ZN103_$LT$core..ops..range..Range$LT$T$GT$$u20$as$u20$rand..distributions..uniform..SampleRange$LT$T$GT$$GT$13sample_single17h9b43204dd2693d11E', symObjAddr: 0x2C, symBinAddr: 0xFE8, symSize: 0x2C }
  - { offset: 0x723E, size: 0x8, addend: 0x0, symName: '__ZN103_$LT$core..ops..range..Range$LT$T$GT$$u20$as$u20$rand..distributions..uniform..SampleRange$LT$T$GT$$GT$8is_empty17h387820f0e5e292f2E', symObjAddr: 0x58, symBinAddr: 0x1014, symSize: 0x34 }
  - { offset: 0x729B, size: 0x8, addend: 0x0, symName: '__ZN103_$LT$core..ops..range..Range$LT$T$GT$$u20$as$u20$rand..distributions..uniform..SampleRange$LT$T$GT$$GT$8is_empty17h8aa9bece19228b3bE', symObjAddr: 0x8C, symBinAddr: 0x1048, symSize: 0x34 }
  - { offset: 0x7305, size: 0x8, addend: 0x0, symName: __ZN4rand3seq14IteratorRandom15choose_multiple17h60380ac189039351E, symObjAddr: 0x4B8, symBinAddr: 0x1474, symSize: 0x300 }
  - { offset: 0x7C4D, size: 0x8, addend: 0x0, symName: __ZN4pyo37pyclass18create_type_object18create_type_object17h144a69cd3b94de19E, symObjAddr: 0x0, symBinAddr: 0x17F0, symSize: 0x154 }
  - { offset: 0x90CB, size: 0x8, addend: 0x0, symName: __ZN4pyo37pyclass18create_type_object18create_type_object17h144a69cd3b94de19E, symObjAddr: 0x0, symBinAddr: 0x17F0, symSize: 0x154 }
  - { offset: 0x9A7E, size: 0x8, addend: 0x0, symName: '__ZN153_$LT$core..result..Result$LT$T$C$F$GT$$u20$as$u20$core..ops..try_trait..FromResidual$LT$core..result..Result$LT$core..convert..Infallible$C$E$GT$$GT$$GT$13from_residual17h14b479b788de70d1E', symObjAddr: 0x0, symBinAddr: 0x1944, symSize: 0x40 }
  - { offset: 0xA25B, size: 0x8, addend: 0x0, symName: '__ZN153_$LT$core..result..Result$LT$T$C$F$GT$$u20$as$u20$core..ops..try_trait..FromResidual$LT$core..result..Result$LT$core..convert..Infallible$C$E$GT$$GT$$GT$13from_residual17h14b479b788de70d1E', symObjAddr: 0x0, symBinAddr: 0x1944, symSize: 0x40 }
  - { offset: 0xA2C2, size: 0x8, addend: 0x0, symName: '__ZN153_$LT$core..result..Result$LT$T$C$F$GT$$u20$as$u20$core..ops..try_trait..FromResidual$LT$core..result..Result$LT$core..convert..Infallible$C$E$GT$$GT$$GT$13from_residual17h1d36028c692a4508E', symObjAddr: 0x40, symBinAddr: 0x1984, symSize: 0x28 }
  - { offset: 0xA329, size: 0x8, addend: 0x0, symName: '__ZN153_$LT$core..result..Result$LT$T$C$F$GT$$u20$as$u20$core..ops..try_trait..FromResidual$LT$core..result..Result$LT$core..convert..Infallible$C$E$GT$$GT$$GT$13from_residual17h59bce87611fd8b88E', symObjAddr: 0x68, symBinAddr: 0x19AC, symSize: 0x48 }
  - { offset: 0xA3AE, size: 0x8, addend: 0x0, symName: '__ZN153_$LT$core..result..Result$LT$T$C$F$GT$$u20$as$u20$core..ops..try_trait..FromResidual$LT$core..result..Result$LT$core..convert..Infallible$C$E$GT$$GT$$GT$13from_residual17h5e01bacf1fb5ab78E', symObjAddr: 0xB0, symBinAddr: 0x19F4, symSize: 0x48 }
  - { offset: 0xA433, size: 0x8, addend: 0x0, symName: '__ZN153_$LT$core..result..Result$LT$T$C$F$GT$$u20$as$u20$core..ops..try_trait..FromResidual$LT$core..result..Result$LT$core..convert..Infallible$C$E$GT$$GT$$GT$13from_residual17h86989beaffee6e54E', symObjAddr: 0xF8, symBinAddr: 0x1A3C, symSize: 0x48 }
  - { offset: 0xA4B8, size: 0x8, addend: 0x0, symName: '__ZN153_$LT$core..result..Result$LT$T$C$F$GT$$u20$as$u20$core..ops..try_trait..FromResidual$LT$core..result..Result$LT$core..convert..Infallible$C$E$GT$$GT$$GT$13from_residual17h9f17ac2de099fffeE', symObjAddr: 0x140, symBinAddr: 0x1A84, symSize: 0x28 }
  - { offset: 0xA51F, size: 0x8, addend: 0x0, symName: '__ZN153_$LT$core..result..Result$LT$T$C$F$GT$$u20$as$u20$core..ops..try_trait..FromResidual$LT$core..result..Result$LT$core..convert..Infallible$C$E$GT$$GT$$GT$13from_residual17ha9aed5e2e4fb7b6aE', symObjAddr: 0x168, symBinAddr: 0x1AAC, symSize: 0x48 }
  - { offset: 0xA5A4, size: 0x8, addend: 0x0, symName: '__ZN153_$LT$core..result..Result$LT$T$C$F$GT$$u20$as$u20$core..ops..try_trait..FromResidual$LT$core..result..Result$LT$core..convert..Infallible$C$E$GT$$GT$$GT$13from_residual17hb4d334a38b161a53E', symObjAddr: 0x1B0, symBinAddr: 0x1AF4, symSize: 0x58 }
  - { offset: 0xA60C, size: 0x8, addend: 0x0, symName: '__ZN153_$LT$core..result..Result$LT$T$C$F$GT$$u20$as$u20$core..ops..try_trait..FromResidual$LT$core..result..Result$LT$core..convert..Infallible$C$E$GT$$GT$$GT$13from_residual17hbce973ede26eefb2E', symObjAddr: 0x208, symBinAddr: 0x1B4C, symSize: 0x28 }
  - { offset: 0xA673, size: 0x8, addend: 0x0, symName: '__ZN153_$LT$core..result..Result$LT$T$C$F$GT$$u20$as$u20$core..ops..try_trait..FromResidual$LT$core..result..Result$LT$core..convert..Infallible$C$E$GT$$GT$$GT$13from_residual17hc601d7e61d525ca1E', symObjAddr: 0x230, symBinAddr: 0x1B74, symSize: 0x58 }
  - { offset: 0xAFB9, size: 0x8, addend: 0x0, symName: '__ZN79_$LT$core..result..Result$LT$T$C$E$GT$$u20$as$u20$core..ops..try_trait..Try$GT$6branch17h137f4d12f8859cccE', symObjAddr: 0x6CC, symBinAddr: 0x2010, symSize: 0x5C }
  - { offset: 0xB036, size: 0x8, addend: 0x0, symName: '__ZN79_$LT$core..result..Result$LT$T$C$E$GT$$u20$as$u20$core..ops..try_trait..Try$GT$6branch17h19a57e6bd25ad22bE', symObjAddr: 0x728, symBinAddr: 0x206C, symSize: 0x70 }
  - { offset: 0xB0B4, size: 0x8, addend: 0x0, symName: '__ZN79_$LT$core..result..Result$LT$T$C$E$GT$$u20$as$u20$core..ops..try_trait..Try$GT$6branch17h1ed8d0cfbba33354E', symObjAddr: 0x798, symBinAddr: 0x20DC, symSize: 0x94 }
  - { offset: 0xB131, size: 0x8, addend: 0x0, symName: '__ZN79_$LT$core..result..Result$LT$T$C$E$GT$$u20$as$u20$core..ops..try_trait..Try$GT$6branch17h2c036fc23c00922dE', symObjAddr: 0x82C, symBinAddr: 0x2170, symSize: 0x80 }
  - { offset: 0xB1AF, size: 0x8, addend: 0x0, symName: '__ZN79_$LT$core..result..Result$LT$T$C$E$GT$$u20$as$u20$core..ops..try_trait..Try$GT$6branch17h4b29aa4b82b271dbE', symObjAddr: 0x8AC, symBinAddr: 0x21F0, symSize: 0x80 }
  - { offset: 0xB22D, size: 0x8, addend: 0x0, symName: '__ZN79_$LT$core..result..Result$LT$T$C$E$GT$$u20$as$u20$core..ops..try_trait..Try$GT$6branch17h6266a26fa0dbfa14E', symObjAddr: 0x92C, symBinAddr: 0x2270, symSize: 0x8C }
  - { offset: 0xB2AB, size: 0x8, addend: 0x0, symName: '__ZN79_$LT$core..result..Result$LT$T$C$E$GT$$u20$as$u20$core..ops..try_trait..Try$GT$6branch17h7650dca26a0fd01eE', symObjAddr: 0x9B8, symBinAddr: 0x22FC, symSize: 0x80 }
  - { offset: 0xB329, size: 0x8, addend: 0x0, symName: '__ZN79_$LT$core..result..Result$LT$T$C$E$GT$$u20$as$u20$core..ops..try_trait..Try$GT$6branch17h99962d473020463eE', symObjAddr: 0xA38, symBinAddr: 0x237C, symSize: 0x44 }
  - { offset: 0xB3A5, size: 0x8, addend: 0x0, symName: '__ZN79_$LT$core..result..Result$LT$T$C$E$GT$$u20$as$u20$core..ops..try_trait..Try$GT$6branch17ha26e47e542ab65f7E', symObjAddr: 0xA7C, symBinAddr: 0x23C0, symSize: 0x88 }
  - { offset: 0xB423, size: 0x8, addend: 0x0, symName: '__ZN79_$LT$core..result..Result$LT$T$C$E$GT$$u20$as$u20$core..ops..try_trait..Try$GT$6branch17hb85dec3d129f7cacE', symObjAddr: 0xB04, symBinAddr: 0x2448, symSize: 0x50 }
  - { offset: 0xB49F, size: 0x8, addend: 0x0, symName: '__ZN79_$LT$core..result..Result$LT$T$C$E$GT$$u20$as$u20$core..ops..try_trait..Try$GT$6branch17hd3749ba6f34e7332E', symObjAddr: 0xB54, symBinAddr: 0x2498, symSize: 0x88 }
  - { offset: 0xD473, size: 0x8, addend: 0x0, symName: '__ZN88_$LT$core..result..Result$LT$T$C$E$GT$$u20$as$u20$pyo3..impl_..wrap..OkWrap$LT$T$GT$$GT$4wrap17he7df73a73aa411aeE', symObjAddr: 0xBDC, symBinAddr: 0x2520, symSize: 0x30 }
  - { offset: 0xDA71, size: 0x8, addend: 0x0, symName: '__ZN4core6result19Result$LT$T$C$E$GT$14unwrap_or_else17hf12d002c5ec27e0eE', symObjAddr: 0x288, symBinAddr: 0x1BCC, symSize: 0x7C }
  - { offset: 0xDD52, size: 0x8, addend: 0x0, symName: '__ZN4core6result19Result$LT$T$C$E$GT$3map17h54d3ab6ccb56bf59E', symObjAddr: 0x304, symBinAddr: 0x1C48, symSize: 0x80 }
  - { offset: 0xDDF9, size: 0x8, addend: 0x0, symName: '__ZN4core6result19Result$LT$T$C$E$GT$3map17h927be0d703de4267E', symObjAddr: 0x384, symBinAddr: 0x1CC8, symSize: 0x4C }
  - { offset: 0xDE8B, size: 0x8, addend: 0x0, symName: '__ZN4core6result19Result$LT$T$C$E$GT$3map17hc0593cae5834bc90E', symObjAddr: 0x3D0, symBinAddr: 0x1D14, symSize: 0xC4 }
  - { offset: 0xDF36, size: 0x8, addend: 0x0, symName: '__ZN4core6result19Result$LT$T$C$E$GT$3map17he9099d34accf9bf8E', symObjAddr: 0x494, symBinAddr: 0x1DD8, symSize: 0x84 }
  - { offset: 0xDFC9, size: 0x8, addend: 0x0, symName: '__ZN4core6result19Result$LT$T$C$E$GT$3map17hfa19803166e86e8bE', symObjAddr: 0x518, symBinAddr: 0x1E5C, symSize: 0x80 }
  - { offset: 0xE08A, size: 0x8, addend: 0x0, symName: '__ZN4core6result19Result$LT$T$C$E$GT$5is_ok17h8176ed86a3a7c5f7E', symObjAddr: 0x598, symBinAddr: 0x1EDC, symSize: 0x2C }
  - { offset: 0xE0E6, size: 0x8, addend: 0x0, symName: '__ZN4core6result19Result$LT$T$C$E$GT$5is_ok17h9cbf69cb02ee6a31E', symObjAddr: 0x5C4, symBinAddr: 0x1F08, symSize: 0x2C }
  - { offset: 0xE14D, size: 0x8, addend: 0x0, symName: '__ZN4core6result19Result$LT$T$C$E$GT$6is_err17h04618032eb91bd3eE', symObjAddr: 0x5F0, symBinAddr: 0x1F34, symSize: 0x20 }
  - { offset: 0xE1B8, size: 0x8, addend: 0x0, symName: '__ZN4core6result19Result$LT$T$C$E$GT$7map_err17h92b3db34b01f85f1E', symObjAddr: 0x610, symBinAddr: 0x1F54, symSize: 0xBC }
  - { offset: 0xE295, size: 0x8, addend: 0x0, symName: '__ZN125_$LT$pyo3..instance..Bound$LT$numpy..array..PyArray$LT$T$C$D$GT$$GT$$u20$as$u20$numpy..array..PyArrayMethods$LT$T$C$D$GT$$GT$8as_array28_$u7b$$u7b$closure$u7d$$u7d$17h4210d661cdca1386E', symObjAddr: 0x0, symBinAddr: 0x2550, symSize: 0x24 }
  - { offset: 0xF6DC, size: 0x8, addend: 0x0, symName: '__ZN125_$LT$pyo3..instance..Bound$LT$numpy..array..PyArray$LT$T$C$D$GT$$GT$$u20$as$u20$numpy..array..PyArrayMethods$LT$T$C$D$GT$$GT$8as_array28_$u7b$$u7b$closure$u7d$$u7d$17h4210d661cdca1386E', symObjAddr: 0x0, symBinAddr: 0x2550, symSize: 0x24 }
  - { offset: 0xF737, size: 0x8, addend: 0x0, symName: '__ZN125_$LT$pyo3..instance..Bound$LT$numpy..array..PyArray$LT$T$C$D$GT$$GT$$u20$as$u20$numpy..array..PyArrayMethods$LT$T$C$D$GT$$GT$8as_array28_$u7b$$u7b$closure$u7d$$u7d$17h7961fb8afaebc6f6E', symObjAddr: 0x24, symBinAddr: 0x2574, symSize: 0x24 }
  - { offset: 0xF8E2, size: 0x8, addend: 0x0, symName: __ZN5numpy5array7as_view17hab510c038f532138E, symObjAddr: 0x4F0, symBinAddr: 0x2A40, symSize: 0x294 }
  - { offset: 0xFA21, size: 0x8, addend: 0x0, symName: __ZN5numpy5array7as_view17hcd6cb84acdbbd6abE, symObjAddr: 0x784, symBinAddr: 0x2CD4, symSize: 0x2B0 }
  - { offset: 0xFB65, size: 0x8, addend: 0x0, symName: __ZN5numpy5array7as_view5inner17h6eee5be7741608a9E, symObjAddr: 0xA34, symBinAddr: 0x2F84, symSize: 0x608 }
  - { offset: 0xFD34, size: 0x8, addend: 0x0, symName: __ZN5numpy5array7as_view5inner17hf1eae40d837dbdc4E, symObjAddr: 0x103C, symBinAddr: 0x358C, symSize: 0x5F8 }
  - { offset: 0xFF09, size: 0x8, addend: 0x0, symName: '__ZN84_$LT$numpy..array..PyArray$LT$T$C$D$GT$$u20$as$u20$pyo3..type_object..PyTypeInfo$GT$16is_type_of_bound17hb68b83f778459c4fE', symObjAddr: 0x1634, symBinAddr: 0x3B84, symSize: 0x34 }
  - { offset: 0xFF47, size: 0x8, addend: 0x0, symName: '__ZN84_$LT$numpy..array..PyArray$LT$T$C$D$GT$$u20$as$u20$pyo3..type_object..PyTypeInfo$GT$16is_type_of_bound17heee4e294aab80ba2E', symObjAddr: 0x1668, symBinAddr: 0x3BB8, symSize: 0x34 }
  - { offset: 0xFFC0, size: 0x8, addend: 0x0, symName: '__ZN52_$LT$T$u20$as$u20$pyo3..type_object..PyTypeCheck$GT$10type_check17h37d21a354cea34b5E', symObjAddr: 0x48, symBinAddr: 0x2598, symSize: 0x24 }
  - { offset: 0xFFF5, size: 0x8, addend: 0x0, symName: '__ZN52_$LT$T$u20$as$u20$pyo3..type_object..PyTypeCheck$GT$10type_check17hbea18bedd4212c32E', symObjAddr: 0x6C, symBinAddr: 0x25BC, symSize: 0x24 }
  - { offset: 0x10A83, size: 0x8, addend: 0x0, symName: '__ZN5numpy5array20PyArray$LT$T$C$D$GT$7extract17hd683b8d96e9a4022E', symObjAddr: 0x90, symBinAddr: 0x25E0, symSize: 0x230 }
  - { offset: 0x10B4A, size: 0x8, addend: 0x0, symName: '__ZN5numpy5array20PyArray$LT$T$C$D$GT$7extract17he0542f71fc9739fdE', symObjAddr: 0x2C0, symBinAddr: 0x2810, symSize: 0x230 }
  - { offset: 0x10DDE, size: 0x8, addend: 0x0, symName: '__ZN4core4cell13Cell$LT$T$GT$3new17h0f87e59bdae4475bE', symObjAddr: 0x0, symBinAddr: 0x3BEC, symSize: 0x10 }
  - { offset: 0x10E80, size: 0x8, addend: 0x0, symName: '__ZN4core4cell13Cell$LT$T$GT$3new17h0f87e59bdae4475bE', symObjAddr: 0x0, symBinAddr: 0x3BEC, symSize: 0x10 }
  - { offset: 0x10ECA, size: 0x8, addend: 0x0, symName: '__ZN4core3mem13manually_drop21ManuallyDrop$LT$T$GT$4drop17h09dc041c333e9a68E', symObjAddr: 0x0, symBinAddr: 0x3BFC, symSize: 0x24 }
  - { offset: 0x11108, size: 0x8, addend: 0x0, symName: '__ZN4core3mem13manually_drop21ManuallyDrop$LT$T$GT$4drop17h09dc041c333e9a68E', symObjAddr: 0x0, symBinAddr: 0x3BFC, symSize: 0x24 }
  - { offset: 0x11151, size: 0x8, addend: 0x0, symName: '__ZN3std3f6421_$LT$impl$u20$f64$GT$3exp17hbfa5bff96103b045E', symObjAddr: 0x0, symBinAddr: 0x3C20, symSize: 0x28 }
  - { offset: 0x1116D, size: 0x8, addend: 0x0, symName: '__ZN3std3f6421_$LT$impl$u20$f64$GT$3exp17hbfa5bff96103b045E', symObjAddr: 0x0, symBinAddr: 0x3C20, symSize: 0x28 }
  - { offset: 0x111C3, size: 0x8, addend: 0x0, symName: '__ZN15pysynthacs_core19optimize_population28_$u7b$$u7b$closure$u7d$$u7d$17hf6e5105c1a68d1ffE', symObjAddr: 0x0, symBinAddr: 0x3C48, symSize: 0x48 }
  - { offset: 0x119C2, size: 0x8, addend: 0x0, symName: '__ZN50_$LT$T$u20$as$u20$core..convert..Into$LT$U$GT$$GT$4into17hce8408f2bfbbcf8cE', symObjAddr: 0xE0, symBinAddr: 0x3D28, symSize: 0x14 }
  - { offset: 0x127BF, size: 0x8, addend: 0x0, symName: '__ZN15pysynthacs_core19optimize_population28_$u7b$$u7b$closure$u7d$$u7d$17hf6e5105c1a68d1ffE', symObjAddr: 0x0, symBinAddr: 0x3C48, symSize: 0x48 }
  - { offset: 0x12802, size: 0x8, addend: 0x0, symName: '__ZN15pysynthacs_core32__pyfunction_optimize_population28_$u7b$$u7b$closure$u7d$$u7d$17h23b767e671bfeb00E', symObjAddr: 0x48, symBinAddr: 0x3C90, symSize: 0x14 }
  - { offset: 0x1282A, size: 0x8, addend: 0x0, symName: '__ZN15pysynthacs_core32__pyfunction_optimize_population28_$u7b$$u7b$closure$u7d$$u7d$17h24450bf4069bcf99E', symObjAddr: 0x5C, symBinAddr: 0x3CA4, symSize: 0x20 }
  - { offset: 0x12852, size: 0x8, addend: 0x0, symName: '__ZN15pysynthacs_core32__pyfunction_optimize_population28_$u7b$$u7b$closure$u7d$$u7d$17h57c5f3648f9e80fcE', symObjAddr: 0x7C, symBinAddr: 0x3CC4, symSize: 0x24 }
  - { offset: 0x1287A, size: 0x8, addend: 0x0, symName: '__ZN15pysynthacs_core32__pyfunction_optimize_population28_$u7b$$u7b$closure$u7d$$u7d$17ha5f8198bd808f7a3E', symObjAddr: 0xA0, symBinAddr: 0x3CE8, symSize: 0x18 }
  - { offset: 0x128A2, size: 0x8, addend: 0x0, symName: '__ZN15pysynthacs_core32__pyfunction_optimize_population28_$u7b$$u7b$closure$u7d$$u7d$17hf4ef203966442404E', symObjAddr: 0xB8, symBinAddr: 0x3D00, symSize: 0x18 }
  - { offset: 0x128FD, size: 0x8, addend: 0x0, symName: '__ZN86_$LT$pysynthacs_core..AnnealingResult$u20$as$u20$pyo3..impl_..pyclass..PyClassImpl$GT$10items_iter15INTRINSIC_ITEMS28_$u7b$$u7b$closure$u7d$$u7d$17h0bce99413a17aedaE', symObjAddr: 0xF4, symBinAddr: 0x3D3C, symSize: 0x48 }
  - { offset: 0x12925, size: 0x8, addend: 0x0, symName: '__ZN86_$LT$pysynthacs_core..AnnealingResult$u20$as$u20$pyo3..impl_..pyclass..PyClassImpl$GT$10items_iter15INTRINSIC_ITEMS28_$u7b$$u7b$closure$u7d$$u7d$17h2af7f069351df385E', symObjAddr: 0x13C, symBinAddr: 0x3D84, symSize: 0x48 }
  - { offset: 0x1294D, size: 0x8, addend: 0x0, symName: '__ZN86_$LT$pysynthacs_core..AnnealingResult$u20$as$u20$pyo3..impl_..pyclass..PyClassImpl$GT$10items_iter15INTRINSIC_ITEMS28_$u7b$$u7b$closure$u7d$$u7d$17he734b89db24797f5E', symObjAddr: 0x184, symBinAddr: 0x3DCC, symSize: 0x48 }
  - { offset: 0x12991, size: 0x8, addend: 0x0, symName: '__ZN86_$LT$pysynthacs_core..AnnealingResult$u20$as$u20$pyo3..impl_..pyclass..PyClassImpl$GT$3doc28_$u7b$$u7b$closure$u7d$$u7d$17h82092e9e35b21382E', symObjAddr: 0x1CC, symBinAddr: 0x3E14, symSize: 0x58 }
  - { offset: 0x12A21, size: 0x8, addend: 0x0, symName: __ZN4pyo35impl_7pyclass11PyClassImpl11dict_offset17h9e745c8ce5b5f9c4E, symObjAddr: 0xD0, symBinAddr: 0x3D18, symSize: 0x8 }
  - { offset: 0x12A48, size: 0x8, addend: 0x0, symName: __ZN4pyo35impl_7pyclass11PyClassImpl15weaklist_offset17h14263ff6ea47f93aE, symObjAddr: 0xD8, symBinAddr: 0x3D20, symSize: 0x8 }
  - { offset: 0x13869, size: 0x8, addend: 0x0, symName: __ZN4core9ub_checks23maybe_is_nonoverlapping7runtime17hdeac82baa0c74ad5E, symObjAddr: 0x0, symBinAddr: 0x3E6C, symSize: 0xD8 }
  - { offset: 0x139EE, size: 0x8, addend: 0x0, symName: __ZN4core9ub_checks23maybe_is_nonoverlapping7runtime17hdeac82baa0c74ad5E, symObjAddr: 0x0, symBinAddr: 0x3E6C, symSize: 0xD8 }
  - { offset: 0x13C01, size: 0x8, addend: 0x0, symName: '__ZN62_$LT$T$u20$as$u20$alloc..vec..spec_from_elem..SpecFromElem$GT$9from_elem17he4e1784bc936f7d8E', symObjAddr: 0x0, symBinAddr: 0x3F44, symSize: 0x198 }
  - { offset: 0x14180, size: 0x8, addend: 0x0, symName: '__ZN62_$LT$T$u20$as$u20$alloc..vec..spec_from_elem..SpecFromElem$GT$9from_elem17he4e1784bc936f7d8E', symObjAddr: 0x0, symBinAddr: 0x3F44, symSize: 0x198 }
  - { offset: 0x143C5, size: 0x8, addend: 0x0, symName: '__ZN15pysynthacs_core15pysynthacs_core11__pyo3_init28_$u7b$$u7b$closure$u7d$$u7d$17hec0b532388a5580aE', symObjAddr: 0x0, symBinAddr: 0x40DC, symSize: 0x28 }
  - { offset: 0x15615, size: 0x8, addend: 0x0, symName: '__ZN15pysynthacs_core15pysynthacs_core11__pyo3_init28_$u7b$$u7b$closure$u7d$$u7d$17hec0b532388a5580aE', symObjAddr: 0x0, symBinAddr: 0x40DC, symSize: 0x28 }
  - { offset: 0x15D41, size: 0x8, addend: 0x0, symName: '__ZN4core5array69_$LT$impl$u20$core..fmt..Debug$u20$for$u20$$u5b$T$u3b$$u20$N$u5d$$GT$3fmt17h59789dc6923d11a0E', symObjAddr: 0x0, symBinAddr: 0x4104, symSize: 0x44 }
  - { offset: 0x15D9A, size: 0x8, addend: 0x0, symName: '__ZN4core5array85_$LT$impl$u20$core..ops..index..Index$LT$I$GT$$u20$for$u20$$u5b$T$u3b$$u20$N$u5d$$GT$5index17hef0619ffb477adcbE', symObjAddr: 0x78, symBinAddr: 0x417C, symSize: 0xB0 }
  - { offset: 0x15E91, size: 0x8, addend: 0x0, symName: '__ZN4core5array69_$LT$impl$u20$core..fmt..Debug$u20$for$u20$$u5b$T$u3b$$u20$N$u5d$$GT$3fmt17h59789dc6923d11a0E', symObjAddr: 0x0, symBinAddr: 0x4104, symSize: 0x44 }
  - { offset: 0x15F21, size: 0x8, addend: 0x0, symName: '__ZN4core5array75_$LT$impl$u20$core..default..Default$u20$for$u20$$u5b$T$u3b$$u20$1$u5d$$GT$7default17h07337c94508ecf5fE', symObjAddr: 0x44, symBinAddr: 0x4148, symSize: 0x14 }
  - { offset: 0x15F4F, size: 0x8, addend: 0x0, symName: '__ZN4core5array75_$LT$impl$u20$core..default..Default$u20$for$u20$$u5b$T$u3b$$u20$2$u5d$$GT$7default17hdc54a309fc3b32c5E', symObjAddr: 0x58, symBinAddr: 0x415C, symSize: 0x20 }
  - { offset: 0x163CA, size: 0x8, addend: 0x0, symName: '__ZN4rand13distributions5float118_$LT$impl$u20$rand..distributions..distribution..Distribution$LT$f64$GT$$u20$for$u20$rand..distributions..Standard$GT$6sample17he071d90c15a17970E', symObjAddr: 0x0, symBinAddr: 0x422C, symSize: 0xE8 }
  - { offset: 0x163EB, size: 0x8, addend: 0x0, symName: '__ZN4rand13distributions5float118_$LT$impl$u20$rand..distributions..distribution..Distribution$LT$f64$GT$$u20$for$u20$rand..distributions..Standard$GT$6sample17he071d90c15a17970E', symObjAddr: 0x0, symBinAddr: 0x422C, symSize: 0xE8 }
  - { offset: 0x164AB, size: 0x8, addend: 0x0, symName: '__ZN4rand13distributions7integer118_$LT$impl$u20$rand..distributions..distribution..Distribution$LT$u32$GT$$u20$for$u20$rand..distributions..Standard$GT$6sample17h39c33beb2cdd50dcE', symObjAddr: 0xE8, symBinAddr: 0x4314, symSize: 0x30 }
  - { offset: 0x164F4, size: 0x8, addend: 0x0, symName: '__ZN4rand13distributions7integer118_$LT$impl$u20$rand..distributions..distribution..Distribution$LT$u64$GT$$u20$for$u20$rand..distributions..Standard$GT$6sample17h7b451a36d7bc7033E', symObjAddr: 0x118, symBinAddr: 0x4344, symSize: 0x30 }
  - { offset: 0x1653D, size: 0x8, addend: 0x0, symName: '__ZN4rand13distributions7integer120_$LT$impl$u20$rand..distributions..distribution..Distribution$LT$usize$GT$$u20$for$u20$rand..distributions..Standard$GT$6sample17h94c4cf80542af7baE', symObjAddr: 0x148, symBinAddr: 0x4374, symSize: 0x30 }
  - { offset: 0x16614, size: 0x8, addend: 0x0, symName: '__ZN7ndarray10impl_views12constructors78_$LT$impl$u20$ndarray..ArrayBase$LT$ndarray..ViewRepr$LT$$RF$A$GT$$C$D$GT$$GT$14from_shape_ptr17h6a363f2bc9b8974fE', symObjAddr: 0x0, symBinAddr: 0x43A4, symSize: 0x3C }
  - { offset: 0x16C1C, size: 0x8, addend: 0x0, symName: __ZN7ndarray10is_aligned17h51af7a621a4bc172E, symObjAddr: 0x78, symBinAddr: 0x441C, symSize: 0x58 }
  - { offset: 0x16C5D, size: 0x8, addend: 0x0, symName: '__ZN7ndarray11arraytraits94_$LT$impl$u20$core..ops..index..Index$LT$I$GT$$u20$for$u20$ndarray..ArrayBase$LT$S$C$D$GT$$GT$5index17hd46aa285d0cdb059E', symObjAddr: 0xD0, symBinAddr: 0x4474, symSize: 0x1EC }
  - { offset: 0x16D31, size: 0x8, addend: 0x0, symName: '__ZN7ndarray11arraytraits94_$LT$impl$u20$core..ops..index..Index$LT$I$GT$$u20$for$u20$ndarray..ArrayBase$LT$S$C$D$GT$$GT$5index17he1aaf3fea3545070E', symObjAddr: 0x2BC, symBinAddr: 0x4660, symSize: 0x1E8 }
  - { offset: 0x17631, size: 0x8, addend: 0x0, symName: '__ZN7ndarray10impl_views12constructors78_$LT$impl$u20$ndarray..ArrayBase$LT$ndarray..ViewRepr$LT$$RF$A$GT$$C$D$GT$$GT$14from_shape_ptr17h6a363f2bc9b8974fE', symObjAddr: 0x0, symBinAddr: 0x43A4, symSize: 0x3C }
  - { offset: 0x1768A, size: 0x8, addend: 0x0, symName: '__ZN7ndarray10impl_views12constructors78_$LT$impl$u20$ndarray..ArrayBase$LT$ndarray..ViewRepr$LT$$RF$A$GT$$C$D$GT$$GT$14from_shape_ptr17hc87a99a9f4519f83E', symObjAddr: 0x3C, symBinAddr: 0x43E0, symSize: 0x3C }
  - { offset: 0x17794, size: 0x8, addend: 0x0, symName: '__ZN7ndarray12impl_methods49_$LT$impl$u20$ndarray..ArrayBase$LT$S$C$D$GT$$GT$11invert_axis17h5d1a9b1a6194c0ccE', symObjAddr: 0x4A4, symBinAddr: 0x4848, symSize: 0x130 }
  - { offset: 0x17866, size: 0x8, addend: 0x0, symName: '__ZN7ndarray12impl_methods49_$LT$impl$u20$ndarray..ArrayBase$LT$S$C$D$GT$$GT$11invert_axis17he842a01d7c9dc784E', symObjAddr: 0x5D4, symBinAddr: 0x4978, symSize: 0x130 }
  - { offset: 0x1796D, size: 0x8, addend: 0x0, symName: '__ZN7ndarray12impl_methods49_$LT$impl$u20$ndarray..ArrayBase$LT$S$C$D$GT$$GT$19pointer_is_inbounds17h1b1281a7bcf9ee25E', symObjAddr: 0x704, symBinAddr: 0x4AA8, symSize: 0x38 }
  - { offset: 0x17A04, size: 0x8, addend: 0x0, symName: '__ZN7ndarray12impl_methods49_$LT$impl$u20$ndarray..ArrayBase$LT$S$C$D$GT$$GT$19pointer_is_inbounds17hf1429ac379c2a54cE', symObjAddr: 0x73C, symBinAddr: 0x4AE0, symSize: 0x38 }
  - { offset: 0x17A60, size: 0x8, addend: 0x0, symName: '__ZN7ndarray12impl_methods49_$LT$impl$u20$ndarray..ArrayBase$LT$S$C$D$GT$$GT$3len17hb4ce2818b385ea23E', symObjAddr: 0x774, symBinAddr: 0x4B18, symSize: 0x24 }
  - { offset: 0x17AC4, size: 0x8, addend: 0x0, symName: '__ZN7ndarray12impl_methods49_$LT$impl$u20$ndarray..ArrayBase$LT$S$C$D$GT$$GT$5shape17h160f950ba1785d94E', symObjAddr: 0x798, symBinAddr: 0x4B3C, symSize: 0x24 }
  - { offset: 0x17B0E, size: 0x8, addend: 0x0, symName: '__ZN7ndarray12impl_methods49_$LT$impl$u20$ndarray..ArrayBase$LT$S$C$D$GT$$GT$5shape17h647170756f4c0765E', symObjAddr: 0x7BC, symBinAddr: 0x4B60, symSize: 0x24 }
  - { offset: 0x17BD1, size: 0x8, addend: 0x0, symName: '__ZN7ndarray14impl_raw_views91_$LT$impl$u20$ndarray..ArrayBase$LT$ndarray..RawViewRepr$LT$$BP$const$u20$A$GT$$C$D$GT$$GT$14from_shape_ptr17hcc910670db73de8cE', symObjAddr: 0x7E0, symBinAddr: 0x4B84, symSize: 0x32C }
  - { offset: 0x17D28, size: 0x8, addend: 0x0, symName: '__ZN7ndarray14impl_raw_views91_$LT$impl$u20$ndarray..ArrayBase$LT$ndarray..RawViewRepr$LT$$BP$const$u20$A$GT$$C$D$GT$$GT$14from_shape_ptr17hebbcab9d0d6cdeb9E', symObjAddr: 0xB0C, symBinAddr: 0x4EB0, symSize: 0x31C }
  - { offset: 0x17EC9, size: 0x8, addend: 0x0, symName: '__ZN7ndarray14impl_raw_views91_$LT$impl$u20$ndarray..ArrayBase$LT$ndarray..RawViewRepr$LT$$BP$const$u20$A$GT$$C$D$GT$$GT$15deref_into_view17h6baf89b3a6a5a18bE', symObjAddr: 0xE28, symBinAddr: 0x51CC, symSize: 0x2B0 }
  - { offset: 0x17FD2, size: 0x8, addend: 0x0, symName: '__ZN7ndarray14impl_raw_views91_$LT$impl$u20$ndarray..ArrayBase$LT$ndarray..RawViewRepr$LT$$BP$const$u20$A$GT$$C$D$GT$$GT$15deref_into_view17he840e343d8089ee7E', symObjAddr: 0x10D8, symBinAddr: 0x547C, symSize: 0x270 }
  - { offset: 0x180B1, size: 0x8, addend: 0x0, symName: '__ZN7ndarray14impl_raw_views91_$LT$impl$u20$ndarray..ArrayBase$LT$ndarray..RawViewRepr$LT$$BP$const$u20$A$GT$$C$D$GT$$GT$3new17h57f465748952cad0E', symObjAddr: 0x1348, symBinAddr: 0x56EC, symSize: 0xDC }
  - { offset: 0x18115, size: 0x8, addend: 0x0, symName: '__ZN7ndarray14impl_raw_views91_$LT$impl$u20$ndarray..ArrayBase$LT$ndarray..RawViewRepr$LT$$BP$const$u20$A$GT$$C$D$GT$$GT$3new17hd56cf9547a1a996bE', symObjAddr: 0x1424, symBinAddr: 0x57C8, symSize: 0xC4 }
  - { offset: 0x1817B, size: 0x8, addend: 0x0, symName: '__ZN7ndarray14impl_raw_views91_$LT$impl$u20$ndarray..ArrayBase$LT$ndarray..RawViewRepr$LT$$BP$const$u20$A$GT$$C$D$GT$$GT$4new_17h7e9adaf21eb7e756E', symObjAddr: 0x14E8, symBinAddr: 0x588C, symSize: 0xD4 }
  - { offset: 0x181CB, size: 0x8, addend: 0x0, symName: '__ZN7ndarray14impl_raw_views91_$LT$impl$u20$ndarray..ArrayBase$LT$ndarray..RawViewRepr$LT$$BP$const$u20$A$GT$$C$D$GT$$GT$4new_17hd5b14242d60aa82fE', symObjAddr: 0x15BC, symBinAddr: 0x5960, symSize: 0xBC }
  - { offset: 0x1821D, size: 0x8, addend: 0x0, symName: '__ZN7ndarray26impl_internal_constructors110_$LT$impl$u20$ndarray..ArrayBase$LT$S$C$ndarray..dimension..dim..Dim$LT$$u5b$usize$u3b$$u20$1$u5d$$GT$$GT$$GT$13from_data_ptr17h18d38ce0f914e44dE', symObjAddr: 0x1678, symBinAddr: 0x5A1C, symSize: 0x15C }
  - { offset: 0x182B0, size: 0x8, addend: 0x0, symName: '__ZN7ndarray26impl_internal_constructors110_$LT$impl$u20$ndarray..ArrayBase$LT$S$C$ndarray..dimension..dim..Dim$LT$$u5b$usize$u3b$$u20$1$u5d$$GT$$GT$$GT$13from_data_ptr17h48094b07ca4eb292E', symObjAddr: 0x17D4, symBinAddr: 0x5B78, symSize: 0x15C }
  - { offset: 0x18343, size: 0x8, addend: 0x0, symName: '__ZN7ndarray26impl_internal_constructors49_$LT$impl$u20$ndarray..ArrayBase$LT$S$C$D$GT$$GT$16with_strides_dim17h943529a402ed0942E', symObjAddr: 0x1930, symBinAddr: 0x5CD4, symSize: 0x100 }
  - { offset: 0x183F1, size: 0x8, addend: 0x0, symName: '__ZN7ndarray26impl_internal_constructors49_$LT$impl$u20$ndarray..ArrayBase$LT$S$C$D$GT$$GT$16with_strides_dim17h9a3c2eec5895fa32E', symObjAddr: 0x1A30, symBinAddr: 0x5DD4, symSize: 0x100 }
  - { offset: 0x1849F, size: 0x8, addend: 0x0, symName: '__ZN7ndarray26impl_internal_constructors49_$LT$impl$u20$ndarray..ArrayBase$LT$S$C$D$GT$$GT$16with_strides_dim17h9aebcbe78d4c3791E', symObjAddr: 0x1B30, symBinAddr: 0x5ED4, symSize: 0x108 }
  - { offset: 0x1854B, size: 0x8, addend: 0x0, symName: '__ZN7ndarray26impl_internal_constructors49_$LT$impl$u20$ndarray..ArrayBase$LT$S$C$D$GT$$GT$16with_strides_dim17hff55df3b74e14633E', symObjAddr: 0x1C38, symBinAddr: 0x5FDC, symSize: 0x108 }
  - { offset: 0x18725, size: 0x8, addend: 0x0, symName: '__ZN129_$LT$ndarray..dimension..dim..Dim$LT$$u5b$usize$u3b$$u20$1$u5d$$GT$$u20$as$u20$ndarray..dimension..dimension_trait..Dimension$GT$15default_strides17h5f61c29f87a3cf32E', symObjAddr: 0x0, symBinAddr: 0x60E4, symSize: 0xAC }
  - { offset: 0x18888, size: 0x8, addend: 0x0, symName: '__ZN129_$LT$ndarray..dimension..dim..Dim$LT$$u5b$usize$u3b$$u20$1$u5d$$GT$$u20$as$u20$ndarray..dimension..dimension_trait..Dimension$GT$15default_strides17h5f61c29f87a3cf32E', symObjAddr: 0x0, symBinAddr: 0x60E4, symSize: 0xAC }
  - { offset: 0x188F2, size: 0x8, addend: 0x0, symName: '__ZN129_$LT$ndarray..dimension..dim..Dim$LT$$u5b$usize$u3b$$u20$1$u5d$$GT$$u20$as$u20$ndarray..dimension..dimension_trait..Dimension$GT$21stride_offset_checked17h7e4e5dc52298b2f6E', symObjAddr: 0xAC, symBinAddr: 0x6190, symSize: 0xCC }
  - { offset: 0x18964, size: 0x8, addend: 0x0, symName: '__ZN129_$LT$ndarray..dimension..dim..Dim$LT$$u5b$usize$u3b$$u20$1$u5d$$GT$$u20$as$u20$ndarray..dimension..dimension_trait..Dimension$GT$4ndim17h584d6e184cc3e3ccE', symObjAddr: 0x178, symBinAddr: 0x625C, symSize: 0x18 }
  - { offset: 0x18992, size: 0x8, addend: 0x0, symName: '__ZN129_$LT$ndarray..dimension..dim..Dim$LT$$u5b$usize$u3b$$u20$1$u5d$$GT$$u20$as$u20$ndarray..dimension..dimension_trait..Dimension$GT$4size17h898a609a2acb5bc3E', symObjAddr: 0x190, symBinAddr: 0x6274, symSize: 0x20 }
  - { offset: 0x189C0, size: 0x8, addend: 0x0, symName: '__ZN129_$LT$ndarray..dimension..dim..Dim$LT$$u5b$usize$u3b$$u20$1$u5d$$GT$$u20$as$u20$ndarray..dimension..dimension_trait..Dimension$GT$5slice17h26ed1755f9ba3980E', symObjAddr: 0x1B0, symBinAddr: 0x6294, symSize: 0x24 }
  - { offset: 0x189EE, size: 0x8, addend: 0x0, symName: '__ZN129_$LT$ndarray..dimension..dim..Dim$LT$$u5b$usize$u3b$$u20$1$u5d$$GT$$u20$as$u20$ndarray..dimension..dimension_trait..Dimension$GT$5zeros17h1879daebcda24a86E', symObjAddr: 0x1D4, symBinAddr: 0x62B8, symSize: 0x84 }
  - { offset: 0x18A68, size: 0x8, addend: 0x0, symName: '__ZN129_$LT$ndarray..dimension..dim..Dim$LT$$u5b$usize$u3b$$u20$1$u5d$$GT$$u20$as$u20$ndarray..dimension..dimension_trait..Dimension$GT$9slice_mut17h7e1247f986b988c8E', symObjAddr: 0x258, symBinAddr: 0x633C, symSize: 0x24 }
  - { offset: 0x18A9C, size: 0x8, addend: 0x0, symName: '__ZN129_$LT$ndarray..dimension..dim..Dim$LT$$u5b$usize$u3b$$u20$2$u5d$$GT$$u20$as$u20$ndarray..dimension..dimension_trait..Dimension$GT$15default_strides17h653e44a8e771b683E', symObjAddr: 0x27C, symBinAddr: 0x6360, symSize: 0xA4 }
  - { offset: 0x18B53, size: 0x8, addend: 0x0, symName: '__ZN129_$LT$ndarray..dimension..dim..Dim$LT$$u5b$usize$u3b$$u20$2$u5d$$GT$$u20$as$u20$ndarray..dimension..dimension_trait..Dimension$GT$15fortran_strides17h48d1eb3247941bb0E', symObjAddr: 0x320, symBinAddr: 0x6404, symSize: 0xA8 }
  - { offset: 0x18C0A, size: 0x8, addend: 0x0, symName: '__ZN129_$LT$ndarray..dimension..dim..Dim$LT$$u5b$usize$u3b$$u20$2$u5d$$GT$$u20$as$u20$ndarray..dimension..dimension_trait..Dimension$GT$21stride_offset_checked17h1d3dd35f09cbfe86E', symObjAddr: 0x3C8, symBinAddr: 0x64AC, symSize: 0x188 }
  - { offset: 0x18D33, size: 0x8, addend: 0x0, symName: '__ZN129_$LT$ndarray..dimension..dim..Dim$LT$$u5b$usize$u3b$$u20$2$u5d$$GT$$u20$as$u20$ndarray..dimension..dimension_trait..Dimension$GT$4ndim17hb0b38f5c675986dbE', symObjAddr: 0x550, symBinAddr: 0x6634, symSize: 0x18 }
  - { offset: 0x18D61, size: 0x8, addend: 0x0, symName: '__ZN129_$LT$ndarray..dimension..dim..Dim$LT$$u5b$usize$u3b$$u20$2$u5d$$GT$$u20$as$u20$ndarray..dimension..dimension_trait..Dimension$GT$4size17h99217cbb73c7a75cE', symObjAddr: 0x568, symBinAddr: 0x664C, symSize: 0x5C }
  - { offset: 0x18D8F, size: 0x8, addend: 0x0, symName: '__ZN129_$LT$ndarray..dimension..dim..Dim$LT$$u5b$usize$u3b$$u20$2$u5d$$GT$$u20$as$u20$ndarray..dimension..dimension_trait..Dimension$GT$5slice17hba1f227bbb20f577E', symObjAddr: 0x5C4, symBinAddr: 0x66A8, symSize: 0x24 }
  - { offset: 0x18DBD, size: 0x8, addend: 0x0, symName: '__ZN129_$LT$ndarray..dimension..dim..Dim$LT$$u5b$usize$u3b$$u20$2$u5d$$GT$$u20$as$u20$ndarray..dimension..dimension_trait..Dimension$GT$5zeros17h10cc013542672a94E', symObjAddr: 0x5E8, symBinAddr: 0x66CC, symSize: 0x7C }
  - { offset: 0x18E3D, size: 0x8, addend: 0x0, symName: '__ZN146_$LT$ndarray..dimension..dim..Dim$LT$ndarray..dimension..dynindeximpl..IxDynImpl$GT$$u20$as$u20$ndarray..dimension..dimension_trait..Dimension$GT$4ndim17hb5fa291e62ae38a7E', symObjAddr: 0x664, symBinAddr: 0x6748, symSize: 0x30 }
  - { offset: 0x19037, size: 0x8, addend: 0x0, symName: '__ZN4core4iter6traits8iterator8Iterator8for_each4call28_$u7b$$u7b$closure$u7d$$u7d$17hd8c4dde4ceda256dE', symObjAddr: 0x0, symBinAddr: 0x6778, symSize: 0x3C }
  - { offset: 0x19828, size: 0x8, addend: 0x0, symName: '__ZN4core4iter6traits8iterator8Iterator8for_each4call28_$u7b$$u7b$closure$u7d$$u7d$17hd8c4dde4ceda256dE', symObjAddr: 0x0, symBinAddr: 0x6778, symSize: 0x3C }
  - { offset: 0x19892, size: 0x8, addend: 0x0, symName: '__ZN87_$LT$I$u20$as$u20$core..iter..traits..iterator..Iterator..advance_by..SpecAdvanceBy$GT$15spec_advance_by28_$u7b$$u7b$closure$u7d$$u7d$17h8634a7316dabadd5E', symObjAddr: 0x3C, symBinAddr: 0x67B4, symSize: 0x40 }
  - { offset: 0x1AB5C, size: 0x8, addend: 0x0, symName: __ZN4pyo35types4list13new_from_iter17ha104a0e6acc02a82E, symObjAddr: 0x0, symBinAddr: 0x67F4, symSize: 0x2A0 }
  - { offset: 0x1BD30, size: 0x8, addend: 0x0, symName: __ZN4pyo35types4list13new_from_iter17ha104a0e6acc02a82E, symObjAddr: 0x0, symBinAddr: 0x67F4, symSize: 0x2A0 }
  - { offset: 0x1C484, size: 0x8, addend: 0x0, symName: '__ZN100_$LT$pyo3..types..tuple..BorrowedTupleIterator$u20$as$u20$core..iter..traits..iterator..Iterator$GT$4next17h0be703270f3c944bE', symObjAddr: 0x0, symBinAddr: 0x6A94, symSize: 0x9C }
  - { offset: 0x1D658, size: 0x8, addend: 0x0, symName: '__ZN100_$LT$pyo3..types..tuple..BorrowedTupleIterator$u20$as$u20$core..iter..traits..iterator..Iterator$GT$4next17h0be703270f3c944bE', symObjAddr: 0x0, symBinAddr: 0x6A94, symSize: 0x9C }
  - { offset: 0x1DD2E, size: 0x8, addend: 0x0, symName: '__ZN4pyo311conversions3std3num115_$LT$impl$u20$pyo3..conversion..IntoPy$LT$pyo3..instance..Py$LT$pyo3..types..any..PyAny$GT$$GT$$u20$for$u20$u64$GT$7into_py17hf5e1a3ccf2e4343bE', symObjAddr: 0x0, symBinAddr: 0x6B30, symSize: 0x2C }
  - { offset: 0x1EE70, size: 0x8, addend: 0x0, symName: '__ZN4pyo311conversions3std3num115_$LT$impl$u20$pyo3..conversion..IntoPy$LT$pyo3..instance..Py$LT$pyo3..types..any..PyAny$GT$$GT$$u20$for$u20$u64$GT$7into_py17hf5e1a3ccf2e4343bE', symObjAddr: 0x0, symBinAddr: 0x6B30, symSize: 0x2C }
  - { offset: 0x1EEBB, size: 0x8, addend: 0x0, symName: '__ZN4pyo311conversions3std3num64_$LT$impl$u20$pyo3..conversion..ToPyObject$u20$for$u20$usize$GT$9to_object17h3253752dfd90a357E', symObjAddr: 0x2C, symBinAddr: 0x6B5C, symSize: 0x28 }
  - { offset: 0x1F4A7, size: 0x8, addend: 0x0, symName: '__ZN4pyo34sync20GILOnceCell$LT$T$GT$15get_or_try_init17hc35d15ef2433b263E', symObjAddr: 0x0, symBinAddr: 0x6B84, symSize: 0xB4 }
  - { offset: 0x21112, size: 0x8, addend: 0x0, symName: '__ZN4pyo34sync20GILOnceCell$LT$T$GT$15get_or_try_init17hc35d15ef2433b263E', symObjAddr: 0x0, symBinAddr: 0x6B84, symSize: 0xB4 }
  - { offset: 0x211FF, size: 0x8, addend: 0x0, symName: '__ZN4pyo34sync20GILOnceCell$LT$T$GT$4init17h2d2375d9ab6421e1E', symObjAddr: 0xB4, symBinAddr: 0x8D374, symSize: 0x180 }
  - { offset: 0x212EF, size: 0x8, addend: 0x0, symName: '__ZN100_$LT$pyo3..pycell..impl_..MutableClass$u20$as$u20$pyo3..pycell..impl_..GetBorrowChecker$LT$T$GT$$GT$14borrow_checker17h8e5b7e2f7244ec8aE', symObjAddr: 0x0, symBinAddr: 0x6C38, symSize: 0x14 }
  - { offset: 0x22525, size: 0x8, addend: 0x0, symName: '__ZN100_$LT$pyo3..pycell..impl_..MutableClass$u20$as$u20$pyo3..pycell..impl_..GetBorrowChecker$LT$T$GT$$GT$14borrow_checker17h8e5b7e2f7244ec8aE', symObjAddr: 0x0, symBinAddr: 0x6C38, symSize: 0x14 }
  - { offset: 0x22560, size: 0x8, addend: 0x0, symName: '__ZN113_$LT$pyo3..pycell..impl_..PyClassObject$LT$T$GT$$u20$as$u20$pyo3..pycell..impl_..PyClassObjectLayout$LT$T$GT$$GT$10tp_dealloc17h0d92f53a1c02b982E', symObjAddr: 0x14, symBinAddr: 0x6C4C, symSize: 0xB4 }
  - { offset: 0x225C4, size: 0x8, addend: 0x0, symName: '__ZN113_$LT$pyo3..pycell..impl_..PyClassObject$LT$T$GT$$u20$as$u20$pyo3..pycell..impl_..PyClassObjectLayout$LT$T$GT$$GT$17ensure_threadsafe17h3e6872a7a538dd09E', symObjAddr: 0xC8, symBinAddr: 0x6D00, symSize: 0x30 }
  - { offset: 0x225FD, size: 0x8, addend: 0x0, symName: '__ZN117_$LT$pyo3..pycell..impl_..PyClassObjectBase$LT$U$GT$$u20$as$u20$pyo3..pycell..impl_..PyClassObjectLayout$LT$T$GT$$GT$17ensure_threadsafe17h29b879c36bf6b7e3E', symObjAddr: 0xF8, symBinAddr: 0x6D30, symSize: 0x10 }
  - { offset: 0x22D5E, size: 0x8, addend: 0x0, symName: '__ZN4pyo36pycell5impl_22PyClassObject$LT$T$GT$14borrow_checker17hdd931f8207467114E', symObjAddr: 0x108, symBinAddr: 0x6D40, symSize: 0x24 }
  - { offset: 0x22DFA, size: 0x8, addend: 0x0, symName: '__ZN4pyo311conversions3std6string125_$LT$impl$u20$pyo3..conversion..IntoPy$LT$pyo3..instance..Py$LT$pyo3..types..string..PyString$GT$$GT$$u20$for$u20$$RF$str$GT$7into_py17h720e2b2cf14b7bdeE', symObjAddr: 0x0, symBinAddr: 0x6D64, symSize: 0x34 }
  - { offset: 0x23F3C, size: 0x8, addend: 0x0, symName: '__ZN4pyo311conversions3std6string125_$LT$impl$u20$pyo3..conversion..IntoPy$LT$pyo3..instance..Py$LT$pyo3..types..string..PyString$GT$$GT$$u20$for$u20$$RF$str$GT$7into_py17h720e2b2cf14b7bdeE', symObjAddr: 0x0, symBinAddr: 0x6D64, symSize: 0x34 }
  - { offset: 0x2455D, size: 0x8, addend: 0x0, symName: '__ZN75_$LT$usize$u20$as$u20$core..slice..index..SliceIndex$LT$$u5b$T$u5d$$GT$$GT$5index17h353550655bb10005E', symObjAddr: 0x0, symBinAddr: 0x6D98, symSize: 0x5C }
  - { offset: 0x24D46, size: 0x8, addend: 0x0, symName: '__ZN75_$LT$usize$u20$as$u20$core..slice..index..SliceIndex$LT$$u5b$T$u5d$$GT$$GT$5index17h353550655bb10005E', symObjAddr: 0x0, symBinAddr: 0x6D98, symSize: 0x5C }
  - { offset: 0x24D8C, size: 0x8, addend: 0x0, symName: '__ZN75_$LT$usize$u20$as$u20$core..slice..index..SliceIndex$LT$$u5b$T$u5d$$GT$$GT$5index17h8c1dd2d3731c0b9eE', symObjAddr: 0x5C, symBinAddr: 0x6DF4, symSize: 0x5C }
  - { offset: 0x24DD2, size: 0x8, addend: 0x0, symName: '__ZN75_$LT$usize$u20$as$u20$core..slice..index..SliceIndex$LT$$u5b$T$u5d$$GT$$GT$5index17hbe6fed74beccdf29E', symObjAddr: 0xB8, symBinAddr: 0x6E50, symSize: 0x64 }
  - { offset: 0x24E18, size: 0x8, addend: 0x0, symName: '__ZN75_$LT$usize$u20$as$u20$core..slice..index..SliceIndex$LT$$u5b$T$u5d$$GT$$GT$7get_mut17h263b45524e10aba3E', symObjAddr: 0x11C, symBinAddr: 0x6EB4, symSize: 0x4C }
  - { offset: 0x24E5B, size: 0x8, addend: 0x0, symName: '__ZN75_$LT$usize$u20$as$u20$core..slice..index..SliceIndex$LT$$u5b$T$u5d$$GT$$GT$9index_mut17h20e543433bbd2e25E', symObjAddr: 0x168, symBinAddr: 0x6F00, symSize: 0x5C }
  - { offset: 0x24EA1, size: 0x8, addend: 0x0, symName: '__ZN75_$LT$usize$u20$as$u20$core..slice..index..SliceIndex$LT$$u5b$T$u5d$$GT$$GT$9index_mut17hbfe91d3160fcb3a9E', symObjAddr: 0x1C4, symBinAddr: 0x6F5C, symSize: 0x64 }
  - { offset: 0x261D2, size: 0x8, addend: 0x0, symName: '__ZN129_$LT$ndarray..dimension..dim..Dim$LT$$u5b$usize$u3b$$u20$1$u5d$$GT$$u20$as$u20$ndarray..dimension..dimension_trait..Dimension$GT$14from_dimension17ha28cc2a78b48225fE', symObjAddr: 0x0, symBinAddr: 0x6FC0, symSize: 0xA8 }
  - { offset: 0x262A6, size: 0x8, addend: 0x0, symName: __ZN7ndarray9dimension3dim3Dim17hde1921a70b00319aE, symObjAddr: 0x974, symBinAddr: 0x7934, symSize: 0x28 }
  - { offset: 0x262E0, size: 0x8, addend: 0x0, symName: '__ZN80_$LT$ndarray..dimension..dim..Dim$LT$I$GT$$u20$as$u20$core..default..Default$GT$7default17h5644e53c440aeb8bE', symObjAddr: 0x99C, symBinAddr: 0x795C, symSize: 0x34 }
  - { offset: 0x26307, size: 0x8, addend: 0x0, symName: '__ZN80_$LT$ndarray..dimension..dim..Dim$LT$I$GT$$u20$as$u20$core..default..Default$GT$7default17h7867ece16bfb71f1E', symObjAddr: 0x9D0, symBinAddr: 0x7990, symSize: 0x30 }
  - { offset: 0x26358, size: 0x8, addend: 0x0, symName: '__ZN129_$LT$ndarray..dimension..dim..Dim$LT$$u5b$usize$u3b$$u20$1$u5d$$GT$$u20$as$u20$ndarray..dimension..dimension_trait..Dimension$GT$14from_dimension17ha28cc2a78b48225fE', symObjAddr: 0x0, symBinAddr: 0x6FC0, symSize: 0xA8 }
  - { offset: 0x263B3, size: 0x8, addend: 0x0, symName: __ZN7ndarray9dimension15dimension_trait9Dimension14from_dimension17hc8d2e678dc102353E, symObjAddr: 0x4D0, symBinAddr: 0x7490, symSize: 0x204 }
  - { offset: 0x2647B, size: 0x8, addend: 0x0, symName: __ZN7ndarray9dimension15dimension_trait9Dimension15fortran_strides17h536ebf147d47edc7E, symObjAddr: 0x6D4, symBinAddr: 0x7694, symSize: 0x270 }
  - { offset: 0x26673, size: 0x8, addend: 0x0, symName: '__ZN54_$LT$D$u20$as$u20$ndarray..dimension..DimensionExt$GT$4axis17h19f92ace3b58ec56E', symObjAddr: 0xA8, symBinAddr: 0x7068, symSize: 0x70 }
  - { offset: 0x266DF, size: 0x8, addend: 0x0, symName: '__ZN54_$LT$D$u20$as$u20$ndarray..dimension..DimensionExt$GT$4axis17hf2a2803ff27ee5c7E', symObjAddr: 0x118, symBinAddr: 0x70D8, symSize: 0x70 }
  - { offset: 0x2674B, size: 0x8, addend: 0x0, symName: '__ZN54_$LT$D$u20$as$u20$ndarray..dimension..DimensionExt$GT$8set_axis17h56c33f15e52c71edE', symObjAddr: 0x188, symBinAddr: 0x7148, symSize: 0x7C }
  - { offset: 0x267C2, size: 0x8, addend: 0x0, symName: '__ZN54_$LT$D$u20$as$u20$ndarray..dimension..DimensionExt$GT$8set_axis17hd588835f2c275186E', symObjAddr: 0x204, symBinAddr: 0x71C4, symSize: 0x7C }
  - { offset: 0x268F5, size: 0x8, addend: 0x0, symName: '__ZN58_$LT$T$u20$as$u20$ndarray..shape_builder..ShapeBuilder$GT$21into_shape_with_order17h6439f40ff8f7a7c0E', symObjAddr: 0x280, symBinAddr: 0x7240, symSize: 0x20 }
  - { offset: 0x26947, size: 0x8, addend: 0x0, symName: '__ZN58_$LT$T$u20$as$u20$ndarray..shape_builder..ShapeBuilder$GT$21into_shape_with_order17hf846df43360ee5b0E', symObjAddr: 0x2A0, symBinAddr: 0x7260, symSize: 0x54 }
  - { offset: 0x26999, size: 0x8, addend: 0x0, symName: '__ZN58_$LT$T$u20$as$u20$ndarray..shape_builder..ShapeBuilder$GT$7strides17h3037c67c29366a40E', symObjAddr: 0x2F4, symBinAddr: 0x72B4, symSize: 0xC4 }
  - { offset: 0x269FB, size: 0x8, addend: 0x0, symName: '__ZN58_$LT$T$u20$as$u20$ndarray..shape_builder..ShapeBuilder$GT$7strides17hdfe3ce809da3a232E', symObjAddr: 0x3B8, symBinAddr: 0x7378, symSize: 0x118 }
  - { offset: 0x26D34, size: 0x8, addend: 0x0, symName: '__ZN7ndarray9dimension3dim12Dim$LT$I$GT$3new17h2580d130a3ac5f01E', symObjAddr: 0x944, symBinAddr: 0x7904, symSize: 0x24 }
  - { offset: 0x26D5F, size: 0x8, addend: 0x0, symName: '__ZN7ndarray9dimension3dim12Dim$LT$I$GT$3new17hdb8096a5f012fd3cE', symObjAddr: 0x968, symBinAddr: 0x7928, symSize: 0xC }
  - { offset: 0x27065, size: 0x8, addend: 0x0, symName: '__ZN4core5slice29_$LT$impl$u20$$u5b$T$u5d$$GT$4iter17h37e17ffb0b7debb8E', symObjAddr: 0x0, symBinAddr: 0x79C0, symSize: 0x28 }
  - { offset: 0x27849, size: 0x8, addend: 0x0, symName: '__ZN4core5slice29_$LT$impl$u20$$u5b$T$u5d$$GT$4iter17h37e17ffb0b7debb8E', symObjAddr: 0x0, symBinAddr: 0x79C0, symSize: 0x28 }
  - { offset: 0x287E7, size: 0x8, addend: 0x0, symName: '__ZN87_$LT$numpy..borrow..PyReadonlyArray$LT$T$C$D$GT$$u20$as$u20$core..ops..deref..Deref$GT$5deref17h58ac1c98c9f7e56fE', symObjAddr: 0x290, symBinAddr: 0x7C50, symSize: 0x14 }
  - { offset: 0x28825, size: 0x8, addend: 0x0, symName: '__ZN87_$LT$numpy..borrow..PyReadonlyArray$LT$T$C$D$GT$$u20$as$u20$core..ops..deref..Deref$GT$5deref17hc390ab873ae41f6bE', symObjAddr: 0x2A4, symBinAddr: 0x7C64, symSize: 0x14 }
  - { offset: 0x28869, size: 0x8, addend: 0x0, symName: '__ZN94_$LT$numpy..borrow..PyReadonlyArray$LT$T$C$D$GT$$u20$as$u20$pyo3..conversion..FromPyObject$GT$13extract_bound17h76f87168beacb3b0E', symObjAddr: 0x2B8, symBinAddr: 0x7C78, symSize: 0x98 }
  - { offset: 0x288E1, size: 0x8, addend: 0x0, symName: '__ZN94_$LT$numpy..borrow..PyReadonlyArray$LT$T$C$D$GT$$u20$as$u20$pyo3..conversion..FromPyObject$GT$13extract_bound17hb74638ba8ce9f1caE', symObjAddr: 0x350, symBinAddr: 0x7D10, symSize: 0x98 }
  - { offset: 0x289EF, size: 0x8, addend: 0x0, symName: '__ZN57_$LT$T$u20$as$u20$pyo3..conversion..FromPyObjectBound$GT$20from_py_object_bound17h2e6786064d695144E', symObjAddr: 0x28, symBinAddr: 0x79E8, symSize: 0x34 }
  - { offset: 0x28A26, size: 0x8, addend: 0x0, symName: '__ZN57_$LT$T$u20$as$u20$pyo3..conversion..FromPyObjectBound$GT$20from_py_object_bound17he1e7bb4e7d8d62f4E', symObjAddr: 0x5C, symBinAddr: 0x7A1C, symSize: 0x34 }
  - { offset: 0x28C7B, size: 0x8, addend: 0x0, symName: '__ZN71_$LT$T$u20$as$u20$pyo3..impl_..extract_argument..PyFunctionArgument$GT$7extract17h9f9211351e68a693E', symObjAddr: 0x268, symBinAddr: 0x7C28, symSize: 0x28 }
  - { offset: 0x2927C, size: 0x8, addend: 0x0, symName: '__ZN5numpy6borrow28PyReadonlyArray$LT$T$C$D$GT$7try_new17h685cf8ed1cf6b72bE', symObjAddr: 0x90, symBinAddr: 0x7A50, symSize: 0xEC }
  - { offset: 0x292DA, size: 0x8, addend: 0x0, symName: '__ZN5numpy6borrow28PyReadonlyArray$LT$T$C$D$GT$7try_new17h6a016db8aee22b78E', symObjAddr: 0x17C, symBinAddr: 0x7B3C, symSize: 0xEC }
  - { offset: 0x295AC, size: 0x8, addend: 0x0, symName: '__ZN96_$LT$pyo3..pycell..impl_..BorrowChecker$u20$as$u20$pyo3..pycell..impl_..PyClassBorrowChecker$GT$3new17hc280a3b8d0ce95fcE', symObjAddr: 0x0, symBinAddr: 0x7DA8, symSize: 0x18 }
  - { offset: 0x295CD, size: 0x8, addend: 0x0, symName: '__ZN96_$LT$pyo3..pycell..impl_..BorrowChecker$u20$as$u20$pyo3..pycell..impl_..PyClassBorrowChecker$GT$3new17hc280a3b8d0ce95fcE', symObjAddr: 0x0, symBinAddr: 0x7DA8, symSize: 0x18 }
  - { offset: 0x29685, size: 0x8, addend: 0x0, symName: '__ZN4pyo311conversions3std3vec70_$LT$impl$u20$pyo3..conversion..ToPyObject$u20$for$u20$$u5b$T$u5d$$GT$9to_object17hdb4bfbf1e6fe7f75E', symObjAddr: 0x0, symBinAddr: 0x7DC0, symSize: 0x64 }
  - { offset: 0x2A149, size: 0x8, addend: 0x0, symName: '__ZN4pyo311conversions3std3vec70_$LT$impl$u20$pyo3..conversion..ToPyObject$u20$for$u20$$u5b$T$u5d$$GT$9to_object28_$u7b$$u7b$closure$u7d$$u7d$17hfe63aa3156f3a2f6E', symObjAddr: 0x64, symBinAddr: 0x7E24, symSize: 0x30 }
  - { offset: 0x2A198, size: 0x8, addend: 0x0, symName: '__ZN4pyo311conversions3std3vec70_$LT$impl$u20$pyo3..conversion..ToPyObject$u20$for$u20$$u5b$T$u5d$$GT$9to_object17hdb4bfbf1e6fe7f75E', symObjAddr: 0x0, symBinAddr: 0x7DC0, symSize: 0x64 }
  - { offset: 0x2B014, size: 0x8, addend: 0x0, symName: '__ZN4pyo35impl_7pyclass16lazy_type_object23LazyTypeObject$LT$T$GT$11get_or_init17hb5d5cf29e419a0eaE', symObjAddr: 0x0, symBinAddr: 0x7E54, symSize: 0x40 }
  - { offset: 0x2C860, size: 0x8, addend: 0x0, symName: '__ZN4pyo35impl_7pyclass16lazy_type_object23LazyTypeObject$LT$T$GT$11get_or_init28_$u7b$$u7b$closure$u7d$$u7d$17h6d3e51e9b52fd4d2E', symObjAddr: 0x40, symBinAddr: 0x7E94, symSize: 0xA0 }
  - { offset: 0x2D36F, size: 0x8, addend: 0x0, symName: '__ZN4pyo35impl_7pyclass16lazy_type_object23LazyTypeObject$LT$T$GT$11get_or_init17hb5d5cf29e419a0eaE', symObjAddr: 0x0, symBinAddr: 0x7E54, symSize: 0x40 }
  - { offset: 0x2D3B3, size: 0x8, addend: 0x0, symName: '__ZN4pyo35impl_7pyclass16lazy_type_object23LazyTypeObject$LT$T$GT$15get_or_try_init17h9717aade2d199a31E', symObjAddr: 0xE0, symBinAddr: 0x7F34, symSize: 0x58 }
  - { offset: 0x2D509, size: 0x8, addend: 0x0, symName: '__ZN4core3ptr8non_null16NonNull$LT$T$GT$13new_unchecked18precondition_check17h3a52c8ba2fe56783E', symObjAddr: 0x0, symBinAddr: 0x7F8C, symSize: 0xA4 }
  - { offset: 0x2D78B, size: 0x8, addend: 0x0, symName: '__ZN4core3ptr8non_null16NonNull$LT$T$GT$13new_unchecked18precondition_check17h3a52c8ba2fe56783E', symObjAddr: 0x0, symBinAddr: 0x7F8C, symSize: 0xA4 }
  - { offset: 0x2DA38, size: 0x8, addend: 0x0, symName: '__ZN103_$LT$pyo3..instance..Bound$LT$pyo3..types..any..PyAny$GT$$u20$as$u20$pyo3..types..any..PyAnyMethods$GT$7is_none17h87e3a0cfece943aaE', symObjAddr: 0x0, symBinAddr: 0x8030, symSize: 0x44 }
  - { offset: 0x2EFC3, size: 0x8, addend: 0x0, symName: '__ZN103_$LT$pyo3..instance..Bound$LT$pyo3..types..any..PyAny$GT$$u20$as$u20$pyo3..types..any..PyAnyMethods$GT$7is_none17h87e3a0cfece943aaE', symObjAddr: 0x0, symBinAddr: 0x8030, symSize: 0x44 }
  - { offset: 0x2F012, size: 0x8, addend: 0x0, symName: '__ZN119_$LT$pyo3..instance..Bound$LT$pyo3..types..typeobject..PyType$GT$$u20$as$u20$pyo3..types..typeobject..PyTypeMethods$GT$11as_type_ptr17h98647406093f7186E', symObjAddr: 0x44, symBinAddr: 0x8074, symSize: 0x24 }
  - { offset: 0x2F05F, size: 0x8, addend: 0x0, symName: '__ZN123_$LT$pyo3..instance..Bound$LT$pyo3..types..sequence..PySequence$GT$$u20$as$u20$pyo3..types..sequence..PySequenceMethods$GT$3len17h896cb0e5845191f3E', symObjAddr: 0x68, symBinAddr: 0x8098, symSize: 0xAC }
  - { offset: 0x2F0EA, size: 0x8, addend: 0x0, symName: '__ZN4pyo35types8iterator131_$LT$impl$u20$core..iter..traits..iterator..Iterator$u20$for$u20$pyo3..instance..Bound$LT$pyo3..types..iterator..PyIterator$GT$$GT$4next17h5610492916fa7e6aE', symObjAddr: 0x140, symBinAddr: 0x8170, symSize: 0x30 }
  - { offset: 0x2F4BE, size: 0x8, addend: 0x0, symName: '__ZN129_$LT$pyo3..instance..Bound$LT$numpy..untyped_array..PyUntypedArray$GT$$u20$as$u20$numpy..untyped_array..PyUntypedArrayMethods$GT$12as_array_ptr17h52b08c4ac258f093E', symObjAddr: 0x114, symBinAddr: 0x8144, symSize: 0x2C }
  - { offset: 0x2FACA, size: 0x8, addend: 0x0, symName: '__ZN4pyo38instance36Bound$LT$pyo3..types..any..PyAny$GT$14from_owned_ptr17hc9674131a946aeadE', symObjAddr: 0x170, symBinAddr: 0x81A0, symSize: 0x2C }
  - { offset: 0x2FB12, size: 0x8, addend: 0x0, symName: '__ZN4pyo38instance39Borrowed$LT$pyo3..types..any..PyAny$GT$15from_ptr_or_opt17he7b362c5dd37f7bbE', symObjAddr: 0x19C, symBinAddr: 0x81CC, symSize: 0x2C }
  - { offset: 0x2FC18, size: 0x8, addend: 0x0, symName: __ZN4core3fmt2rt8Argument9new_debug17h64bbbc04c5a07f09E, symObjAddr: 0x0, symBinAddr: 0x81F8, symSize: 0x2C }
  - { offset: 0x2FF28, size: 0x8, addend: 0x0, symName: __ZN4core3fmt2rt8Argument9new_debug17h64bbbc04c5a07f09E, symObjAddr: 0x0, symBinAddr: 0x81F8, symSize: 0x2C }
  - { offset: 0x2FF6D, size: 0x8, addend: 0x0, symName: __ZN4core3fmt2rt8Argument9new_debug17h9365f3a9cea78beaE, symObjAddr: 0x2C, symBinAddr: 0x8224, symSize: 0x2C }
  - { offset: 0x2FFA5, size: 0x8, addend: 0x0, symName: __ZN4core3fmt2rt8Argument9new_debug17hd44c02c5452f2e2bE, symObjAddr: 0x58, symBinAddr: 0x8250, symSize: 0x2C }
  - { offset: 0x2FFEE, size: 0x8, addend: 0x0, symName: '__ZN157_$LT$$LT$alloc..vec..into_iter..IntoIter$LT$T$C$A$GT$$u20$as$u20$core..ops..drop..Drop$GT$..drop..DropGuard$LT$T$C$A$GT$$u20$as$u20$core..ops..drop..Drop$GT$4drop17h3960ea720cc16497E', symObjAddr: 0x0, symBinAddr: 0x827C, symSize: 0x6C }
  - { offset: 0x309A5, size: 0x8, addend: 0x0, symName: '__ZN4core3ptr100drop_in_place$LT$core..result..Result$LT$pysynthacs_core..AnnealingResult$C$pyo3..err..PyErr$GT$$GT$17he2aa035a27a1e0deE', symObjAddr: 0x33C, symBinAddr: 0x85B8, symSize: 0x5C }
  - { offset: 0x309D4, size: 0x8, addend: 0x0, symName: '__ZN4core3ptr100drop_in_place$LT$ndarray..dimension..dim..Dim$LT$ndarray..dimension..dynindeximpl..IxDynImpl$GT$$GT$17h99b87a8b48e61695E', symObjAddr: 0x398, symBinAddr: 0x8614, symSize: 0x24 }
  - { offset: 0x30A03, size: 0x8, addend: 0x0, symName: '__ZN4core3ptr103drop_in_place$LT$pyo3..pyclass_init..PyClassInitializerImpl$LT$pysynthacs_core..AnnealingResult$GT$$GT$17hb199aa84a10ff7ecE', symObjAddr: 0x3BC, symBinAddr: 0x8638, symSize: 0x58 }
  - { offset: 0x30A32, size: 0x8, addend: 0x0, symName: '__ZN4core3ptr106drop_in_place$LT$core..result..Result$LT$$BP$mut$u20$pyo3_ffi..object..PyObject$C$pyo3..err..PyErr$GT$$GT$17h17ee806f2f68e31fE', symObjAddr: 0x414, symBinAddr: 0x8690, symSize: 0x40 }
  - { offset: 0x30A61, size: 0x8, addend: 0x0, symName: '__ZN4core3ptr127drop_in_place$LT$numpy..borrow..PyReadonlyArray$LT$i32$C$ndarray..dimension..dim..Dim$LT$$u5b$usize$u3b$$u20$1$u5d$$GT$$GT$$GT$17hfb07039d28bc2f48E', symObjAddr: 0x49C, symBinAddr: 0x86D0, symSize: 0x5C }
  - { offset: 0x30A90, size: 0x8, addend: 0x0, symName: '__ZN4core3ptr127drop_in_place$LT$numpy..borrow..PyReadonlyArray$LT$i32$C$ndarray..dimension..dim..Dim$LT$$u5b$usize$u3b$$u20$2$u5d$$GT$$GT$$GT$17hc2db9e8f248bcac6E', symObjAddr: 0x4F8, symBinAddr: 0x872C, symSize: 0x5C }
  - { offset: 0x30ABF, size: 0x8, addend: 0x0, symName: '__ZN4core3ptr137drop_in_place$LT$$u5b$numpy..borrow..PyReadonlyArray$LT$i32$C$ndarray..dimension..dim..Dim$LT$$u5b$usize$u3b$$u20$1$u5d$$GT$$GT$$u5d$$GT$17h27a68c68e8cebea0E', symObjAddr: 0x578, symBinAddr: 0x8788, symSize: 0xB4 }
  - { offset: 0x30AEE, size: 0x8, addend: 0x0, symName: '__ZN4core3ptr147drop_in_place$LT$pyo3..instance..Bound$LT$numpy..array..PyArray$LT$i32$C$ndarray..dimension..dim..Dim$LT$$u5b$usize$u3b$$u20$1$u5d$$GT$$GT$$GT$$GT$17hd59e34eaa4f2587fE', symObjAddr: 0x62C, symBinAddr: 0x883C, symSize: 0x24 }
  - { offset: 0x30B1D, size: 0x8, addend: 0x0, symName: '__ZN4core3ptr147drop_in_place$LT$pyo3..instance..Bound$LT$numpy..array..PyArray$LT$i32$C$ndarray..dimension..dim..Dim$LT$$u5b$usize$u3b$$u20$2$u5d$$GT$$GT$$GT$$GT$17h9a9ceae8a01190d9E', symObjAddr: 0x650, symBinAddr: 0x8860, symSize: 0x24 }
  - { offset: 0x30B4C, size: 0x8, addend: 0x0, symName: '__ZN4core3ptr150drop_in_place$LT$alloc..vec..Vec$LT$numpy..borrow..PyReadonlyArray$LT$i32$C$ndarray..dimension..dim..Dim$LT$$u5b$usize$u3b$$u20$1$u5d$$GT$$GT$$GT$$GT$17h9a160ce5bfd882deE', symObjAddr: 0x674, symBinAddr: 0x8884, symSize: 0x5C }
  - { offset: 0x30B7B, size: 0x8, addend: 0x0, symName: '__ZN4core3ptr157drop_in_place$LT$alloc..raw_vec..RawVec$LT$numpy..borrow..PyReadonlyArray$LT$i32$C$ndarray..dimension..dim..Dim$LT$$u5b$usize$u3b$$u20$1$u5d$$GT$$GT$$GT$$GT$17h1cd2ee4dfea53adeE', symObjAddr: 0x6D0, symBinAddr: 0x88E0, symSize: 0x24 }
  - { offset: 0x30BAA, size: 0x8, addend: 0x0, symName: '__ZN4core3ptr183drop_in_place$LT$$LT$alloc..vec..into_iter..IntoIter$LT$T$C$A$GT$$u20$as$u20$core..ops..drop..Drop$GT$..drop..DropGuard$LT$$LP$usize$C$usize$C$usize$RP$$C$alloc..alloc..Global$GT$$GT$17h21fd6298838cde39E', symObjAddr: 0x6F4, symBinAddr: 0x8904, symSize: 0x24 }
  - { offset: 0x30BD9, size: 0x8, addend: 0x0, symName: '__ZN4core3ptr190drop_in_place$LT$alloc..vec..Vec$LT$usize$GT$..extend_trusted$LT$core..iter..adapters..take..Take$LT$$RF$mut$u20$core..ops..range..Range$LT$usize$GT$$GT$$GT$..$u7b$$u7b$closure$u7d$$u7d$$GT$17h3a5166f9ac48d5c5E', symObjAddr: 0x718, symBinAddr: 0x8928, symSize: 0x24 }
  - { offset: 0x30C08, size: 0x8, addend: 0x0, symName: '__ZN4core3ptr354drop_in_place$LT$$LT$core..iter..adapters..take..Take$LT$I$GT$$u20$as$u20$core..iter..adapters..take..SpecTake$GT$..spec_for_each..check$LT$usize$C$alloc..vec..Vec$LT$usize$GT$..extend_trusted$LT$core..iter..adapters..take..Take$LT$$RF$mut$u20$core..ops..range..Range$LT$usize$GT$$GT$$GT$..$u7b$$u7b$closure$u7d$$u7d$$GT$..$u7b$$u7b$closure$u7d$$u7d$$GT$17h023de224bd52a56cE', symObjAddr: 0x73C, symBinAddr: 0x894C, symSize: 0x24 }
  - { offset: 0x30C37, size: 0x8, addend: 0x0, symName: '__ZN4core3ptr366drop_in_place$LT$alloc..vec..Vec$LT$alloc..vec..Vec$LT$i32$GT$$GT$..extend_trusted$LT$core..iter..adapters..map..Map$LT$core..slice..iter..Iter$LT$numpy..borrow..PyReadonlyArray$LT$i32$C$ndarray..dimension..dim..Dim$LT$$u5b$usize$u3b$$u20$1$u5d$$GT$$GT$$GT$$C$pysynthacs_core..optimize_population..$u7b$$u7b$closure$u7d$$u7d$$GT$$GT$..$u7b$$u7b$closure$u7d$$u7d$$GT$17h585fcc7cb15c7585E', symObjAddr: 0x760, symBinAddr: 0x8970, symSize: 0x24 }
  - { offset: 0x30C66, size: 0x8, addend: 0x0, symName: '__ZN4core3ptr47drop_in_place$LT$alloc..vec..Vec$LT$i32$GT$$GT$17h1d97bad9d3ada8f6E', symObjAddr: 0x784, symBinAddr: 0x8994, symSize: 0x5C }
  - { offset: 0x30C95, size: 0x8, addend: 0x0, symName: '__ZN4core3ptr486drop_in_place$LT$core..iter..traits..iterator..Iterator..for_each..call$LT$alloc..vec..Vec$LT$i32$GT$$C$alloc..vec..Vec$LT$alloc..vec..Vec$LT$i32$GT$$GT$..extend_trusted$LT$core..iter..adapters..map..Map$LT$core..slice..iter..Iter$LT$numpy..borrow..PyReadonlyArray$LT$i32$C$ndarray..dimension..dim..Dim$LT$$u5b$usize$u3b$$u20$1$u5d$$GT$$GT$$GT$$C$pysynthacs_core..optimize_population..$u7b$$u7b$closure$u7d$$u7d$$GT$$GT$..$u7b$$u7b$closure$u7d$$u7d$$GT$..$u7b$$u7b$closure$u7d$$u7d$$GT$17h87c60517b892974eE', symObjAddr: 0x7E0, symBinAddr: 0x89F0, symSize: 0x24 }
  - { offset: 0x30CC4, size: 0x8, addend: 0x0, symName: '__ZN4core3ptr53drop_in_place$LT$pysynthacs_core..AnnealingResult$GT$17h189ee8a238f777abE', symObjAddr: 0x828, symBinAddr: 0x8A14, symSize: 0x24 }
  - { offset: 0x30CF3, size: 0x8, addend: 0x0, symName: '__ZN4core3ptr54drop_in_place$LT$alloc..raw_vec..RawVec$LT$i32$GT$$GT$17hc8fcddb18da068ffE', symObjAddr: 0x84C, symBinAddr: 0x8A38, symSize: 0x24 }
  - { offset: 0x30D22, size: 0x8, addend: 0x0, symName: '__ZN4core3ptr57drop_in_place$LT$$u5b$alloc..vec..Vec$LT$i32$GT$$u5d$$GT$17h963073f719d4b720E', symObjAddr: 0x870, symBinAddr: 0x8A5C, symSize: 0xC4 }
  - { offset: 0x30D51, size: 0x8, addend: 0x0, symName: '__ZN4core3ptr62drop_in_place$LT$alloc..vec..set_len_on_drop..SetLenOnDrop$GT$17h7a0c63e21881bb31E', symObjAddr: 0x934, symBinAddr: 0x8B20, symSize: 0x24 }
  - { offset: 0x30D80, size: 0x8, addend: 0x0, symName: '__ZN4core3ptr64drop_in_place$LT$ndarray..dimension..dynindeximpl..IxDynImpl$GT$17hcc2a32b9e1b84b28E', symObjAddr: 0x958, symBinAddr: 0x8B44, symSize: 0x24 }
  - { offset: 0x30DAF, size: 0x8, addend: 0x0, symName: '__ZN4core3ptr70drop_in_place$LT$alloc..vec..Vec$LT$alloc..vec..Vec$LT$i32$GT$$GT$$GT$17hb703b1b74c46c25dE', symObjAddr: 0x97C, symBinAddr: 0x8B68, symSize: 0x5C }
  - { offset: 0x30DDE, size: 0x8, addend: 0x0, symName: '__ZN4core3ptr73drop_in_place$LT$alloc..vec..Vec$LT$$LP$usize$C$usize$C$usize$RP$$GT$$GT$17h3c4dcb59a574663eE', symObjAddr: 0x9D8, symBinAddr: 0x8BC4, symSize: 0x5C }
  - { offset: 0x30E0D, size: 0x8, addend: 0x0, symName: '__ZN4core3ptr779drop_in_place$LT$core..iter..adapters..map..map_fold$LT$$RF$numpy..borrow..PyReadonlyArray$LT$i32$C$ndarray..dimension..dim..Dim$LT$$u5b$usize$u3b$$u20$1$u5d$$GT$$GT$$C$alloc..vec..Vec$LT$i32$GT$$C$$LP$$RP$$C$pysynthacs_core..optimize_population..$u7b$$u7b$closure$u7d$$u7d$$C$core..iter..traits..iterator..Iterator..for_each..call$LT$alloc..vec..Vec$LT$i32$GT$$C$alloc..vec..Vec$LT$alloc..vec..Vec$LT$i32$GT$$GT$..extend_trusted$LT$core..iter..adapters..map..Map$LT$core..slice..iter..Iter$LT$numpy..borrow..PyReadonlyArray$LT$i32$C$ndarray..dimension..dim..Dim$LT$$u5b$usize$u3b$$u20$1$u5d$$GT$$GT$$GT$$C$pysynthacs_core..optimize_population..$u7b$$u7b$closure$u7d$$u7d$$GT$$GT$..$u7b$$u7b$closure$u7d$$u7d$$GT$..$u7b$$u7b$closure$u7d$$u7d$$GT$..$u7b$$u7b$closure$u7d$$u7d$$GT$17hd5350a012008157eE', symObjAddr: 0xA34, symBinAddr: 0x8C20, symSize: 0x24 }
  - { offset: 0x30E3C, size: 0x8, addend: 0x0, symName: '__ZN4core3ptr77drop_in_place$LT$alloc..raw_vec..RawVec$LT$alloc..vec..Vec$LT$i32$GT$$GT$$GT$17h372be30c87077241E', symObjAddr: 0xA58, symBinAddr: 0x8C44, symSize: 0x24 }
  - { offset: 0x30E6B, size: 0x8, addend: 0x0, symName: '__ZN4core3ptr79drop_in_place$LT$pyo3..instance..Py$LT$pysynthacs_core..AnnealingResult$GT$$GT$17hc158774142b4b5f4E', symObjAddr: 0xA7C, symBinAddr: 0x8C68, symSize: 0x2C }
  - { offset: 0x30E9A, size: 0x8, addend: 0x0, symName: '__ZN4core3ptr80drop_in_place$LT$alloc..raw_vec..RawVec$LT$$LP$usize$C$usize$C$usize$RP$$GT$$GT$17h47a29fc926d46684E', symObjAddr: 0xAA8, symBinAddr: 0x8C94, symSize: 0x24 }
  - { offset: 0x30EC9, size: 0x8, addend: 0x0, symName: '__ZN4core3ptr80drop_in_place$LT$pyo3..pycell..PyRef$LT$pysynthacs_core..AnnealingResult$GT$$GT$17haec57bbb5c57aea0E', symObjAddr: 0xACC, symBinAddr: 0x8CB8, symSize: 0x5C }
  - { offset: 0x30EF8, size: 0x8, addend: 0x0, symName: '__ZN4core3ptr82drop_in_place$LT$pyo3..instance..Bound$LT$pysynthacs_core..AnnealingResult$GT$$GT$17h6c05177a0d06dc74E', symObjAddr: 0xB28, symBinAddr: 0x8D14, symSize: 0x24 }
  - { offset: 0x30F27, size: 0x8, addend: 0x0, symName: '__ZN4core3ptr83drop_in_place$LT$core..cell..UnsafeCell$LT$pysynthacs_core..AnnealingResult$GT$$GT$17h490fb5248ac52de3E', symObjAddr: 0xB4C, symBinAddr: 0x8D38, symSize: 0x24 }
  - { offset: 0x30F56, size: 0x8, addend: 0x0, symName: '__ZN4core3ptr89drop_in_place$LT$alloc..vec..into_iter..IntoIter$LT$$LP$usize$C$usize$C$usize$RP$$GT$$GT$17hbbde3a7188f457e8E', symObjAddr: 0xB70, symBinAddr: 0x8D5C, symSize: 0x24 }
  - { offset: 0x30F85, size: 0x8, addend: 0x0, symName: '__ZN4core3ptr99drop_in_place$LT$pyo3..pyclass_init..PyClassInitializer$LT$pysynthacs_core..AnnealingResult$GT$$GT$17h0aaafe251b37f304E', symObjAddr: 0xB94, symBinAddr: 0x8D80, symSize: 0x24 }
  - { offset: 0x31120, size: 0x8, addend: 0x0, symName: __ZN4core3ops8function6FnOnce9call_once17h1370d1dcd2db090bE, symObjAddr: 0x6C, symBinAddr: 0x82E8, symSize: 0x3C }
  - { offset: 0x31164, size: 0x8, addend: 0x0, symName: __ZN4core3ops8function6FnOnce9call_once17h154b67e839709deeE, symObjAddr: 0xA8, symBinAddr: 0x8324, symSize: 0x4C }
  - { offset: 0x311A8, size: 0x8, addend: 0x0, symName: __ZN4core3ops8function6FnOnce9call_once17h16b1a3afae271d67E, symObjAddr: 0xF4, symBinAddr: 0x8370, symSize: 0x3C }
  - { offset: 0x311EC, size: 0x8, addend: 0x0, symName: __ZN4core3ops8function6FnOnce9call_once17h193e9eb1eab72033E, symObjAddr: 0x130, symBinAddr: 0x83AC, symSize: 0x24 }
  - { offset: 0x31230, size: 0x8, addend: 0x0, symName: __ZN4core3ops8function6FnOnce9call_once17h532d1f3282fffe01E, symObjAddr: 0x154, symBinAddr: 0x83D0, symSize: 0x44 }
  - { offset: 0x31274, size: 0x8, addend: 0x0, symName: __ZN4core3ops8function6FnOnce9call_once17h7cb6961b192251e4E, symObjAddr: 0x198, symBinAddr: 0x8414, symSize: 0x3C }
  - { offset: 0x312B8, size: 0x8, addend: 0x0, symName: __ZN4core3ops8function6FnOnce9call_once17h90612724e5813e91E, symObjAddr: 0x1D4, symBinAddr: 0x8450, symSize: 0x44 }
  - { offset: 0x312FC, size: 0x8, addend: 0x0, symName: __ZN4core3ops8function6FnOnce9call_once17hb16efc3d6910916bE, symObjAddr: 0x218, symBinAddr: 0x8494, symSize: 0x24 }
  - { offset: 0x31340, size: 0x8, addend: 0x0, symName: __ZN4core3ops8function6FnOnce9call_once17hbc0ce740db8b5e2aE, symObjAddr: 0x23C, symBinAddr: 0x84B8, symSize: 0x44 }
  - { offset: 0x31384, size: 0x8, addend: 0x0, symName: __ZN4core3ops8function6FnOnce9call_once17hcd7375b9a1c90972E, symObjAddr: 0x280, symBinAddr: 0x84FC, symSize: 0x3C }
  - { offset: 0x313C8, size: 0x8, addend: 0x0, symName: __ZN4core3ops8function6FnOnce9call_once17hd8fc4d4a3f670325E, symObjAddr: 0x2BC, symBinAddr: 0x8538, symSize: 0x3C }
  - { offset: 0x3140C, size: 0x8, addend: 0x0, symName: __ZN4core3ops8function6FnOnce9call_once17he3b91a9b4a508673E, symObjAddr: 0x2F8, symBinAddr: 0x8574, symSize: 0x44 }
  - { offset: 0x325C5, size: 0x8, addend: 0x0, symName: '__ZN77_$LT$alloc..raw_vec..RawVec$LT$T$C$A$GT$$u20$as$u20$core..ops..drop..Drop$GT$4drop17h12ca444c4055ffe5E', symObjAddr: 0x11BC, symBinAddr: 0x93A8, symSize: 0x30 }
  - { offset: 0x32601, size: 0x8, addend: 0x0, symName: '__ZN77_$LT$alloc..raw_vec..RawVec$LT$T$C$A$GT$$u20$as$u20$core..ops..drop..Drop$GT$4drop17h23e838d1207a1327E', symObjAddr: 0x11EC, symBinAddr: 0x93D8, symSize: 0x30 }
  - { offset: 0x3263D, size: 0x8, addend: 0x0, symName: '__ZN77_$LT$alloc..raw_vec..RawVec$LT$T$C$A$GT$$u20$as$u20$core..ops..drop..Drop$GT$4drop17h34cf0e24b2fcdfa1E', symObjAddr: 0x121C, symBinAddr: 0x9408, symSize: 0x34 }
  - { offset: 0x32679, size: 0x8, addend: 0x0, symName: '__ZN77_$LT$alloc..raw_vec..RawVec$LT$T$C$A$GT$$u20$as$u20$core..ops..drop..Drop$GT$4drop17hbda915d8dd024521E', symObjAddr: 0x1250, symBinAddr: 0x943C, symSize: 0x34 }
  - { offset: 0x32711, size: 0x8, addend: 0x0, symName: '__ZN157_$LT$$LT$alloc..vec..into_iter..IntoIter$LT$T$C$A$GT$$u20$as$u20$core..ops..drop..Drop$GT$..drop..DropGuard$LT$T$C$A$GT$$u20$as$u20$core..ops..drop..Drop$GT$4drop17h3960ea720cc16497E', symObjAddr: 0x0, symBinAddr: 0x827C, symSize: 0x6C }
  - { offset: 0x3287D, size: 0x8, addend: 0x0, symName: '__ZN86_$LT$alloc..vec..into_iter..IntoIter$LT$T$C$A$GT$$u20$as$u20$core..ops..drop..Drop$GT$4drop17h07344ed022271922E', symObjAddr: 0x130C, symBinAddr: 0x94F8, symSize: 0x64 }
  - { offset: 0x32994, size: 0x8, addend: 0x0, symName: '__ZN70_$LT$alloc..vec..Vec$LT$T$C$A$GT$$u20$as$u20$core..ops..drop..Drop$GT$4drop17h5786cf68eebb11c6E', symObjAddr: 0xBE0, symBinAddr: 0x8DCC, symSize: 0x38 }
  - { offset: 0x32A44, size: 0x8, addend: 0x0, symName: '__ZN70_$LT$alloc..vec..Vec$LT$T$C$A$GT$$u20$as$u20$core..ops..drop..Drop$GT$4drop17h74c305113593bd1fE', symObjAddr: 0xC18, symBinAddr: 0x8E04, symSize: 0x24 }
  - { offset: 0x32AF4, size: 0x8, addend: 0x0, symName: '__ZN70_$LT$alloc..vec..Vec$LT$T$C$A$GT$$u20$as$u20$core..ops..drop..Drop$GT$4drop17h802de5d765055e90E', symObjAddr: 0xC3C, symBinAddr: 0x8E28, symSize: 0x38 }
  - { offset: 0x32BA4, size: 0x8, addend: 0x0, symName: '__ZN70_$LT$alloc..vec..Vec$LT$T$C$A$GT$$u20$as$u20$core..ops..drop..Drop$GT$4drop17hda794c1ab8ead57dE', symObjAddr: 0xC74, symBinAddr: 0x8E60, symSize: 0x24 }
  - { offset: 0x32D70, size: 0x8, addend: 0x0, symName: '__ZN83_$LT$alloc..vec..set_len_on_drop..SetLenOnDrop$u20$as$u20$core..ops..drop..Drop$GT$4drop17h60d0f04dc2ed8880E', symObjAddr: 0x1284, symBinAddr: 0x9470, symSize: 0x20 }
  - { offset: 0x32EE8, size: 0x8, addend: 0x0, symName: '__ZN69_$LT$pyo3..instance..Py$LT$T$GT$$u20$as$u20$core..ops..drop..Drop$GT$4drop17hee5f6738abc944daE', symObjAddr: 0xBB8, symBinAddr: 0x8DA4, symSize: 0x28 }
  - { offset: 0x32F75, size: 0x8, addend: 0x0, symName: '__ZN72_$LT$pyo3..instance..Bound$LT$T$GT$$u20$as$u20$core..ops..drop..Drop$GT$4drop17h821e7631d4feb150E', symObjAddr: 0xCC4, symBinAddr: 0x8EB0, symSize: 0x1A8 }
  - { offset: 0x32FE4, size: 0x8, addend: 0x0, symName: '__ZN72_$LT$pyo3..instance..Bound$LT$T$GT$$u20$as$u20$core..ops..drop..Drop$GT$4drop17h98ce105af64d749dE', symObjAddr: 0xE6C, symBinAddr: 0x9058, symSize: 0x1A8 }
  - { offset: 0x33053, size: 0x8, addend: 0x0, symName: '__ZN72_$LT$pyo3..instance..Bound$LT$T$GT$$u20$as$u20$core..ops..drop..Drop$GT$4drop17habeb68b8f1d9189bE', symObjAddr: 0x1014, symBinAddr: 0x9200, symSize: 0x1A8 }
  - { offset: 0x33504, size: 0x8, addend: 0x0, symName: '__ZN70_$LT$pyo3..pycell..PyRef$LT$T$GT$$u20$as$u20$core..ops..drop..Drop$GT$4drop17h997c968010477d13E', symObjAddr: 0xC98, symBinAddr: 0x8E84, symSize: 0x2C }
  - { offset: 0x336FC, size: 0x8, addend: 0x0, symName: '__ZN85_$LT$numpy..borrow..PyReadonlyArray$LT$T$C$D$GT$$u20$as$u20$core..ops..drop..Drop$GT$4drop17h37a8f77ea0ce9cffE', symObjAddr: 0x12A4, symBinAddr: 0x9490, symSize: 0x34 }
  - { offset: 0x33738, size: 0x8, addend: 0x0, symName: '__ZN85_$LT$numpy..borrow..PyReadonlyArray$LT$T$C$D$GT$$u20$as$u20$core..ops..drop..Drop$GT$4drop17h5813807ee3eb1a8bE', symObjAddr: 0x12D8, symBinAddr: 0x94C4, symSize: 0x34 }
  - { offset: 0x3458A, size: 0x8, addend: 0x0, symName: __ZN4pyo35impl_10trampoline10trampoline17h01749117294f1c08E, symObjAddr: 0x0, symBinAddr: 0x955C, symSize: 0x14C }
  - { offset: 0x3585A, size: 0x8, addend: 0x0, symName: __ZN4pyo35impl_10trampoline10trampoline17h01749117294f1c08E, symObjAddr: 0x0, symBinAddr: 0x955C, symSize: 0x14C }
  - { offset: 0x358FC, size: 0x8, addend: 0x0, symName: __ZN4pyo35impl_10trampoline10trampoline17hc3ae902a6a49d29fE, symObjAddr: 0x14C, symBinAddr: 0x96A8, symSize: 0x160 }
  - { offset: 0x359A5, size: 0x8, addend: 0x0, symName: '__ZN4pyo35impl_10trampoline10trampoline28_$u7b$$u7b$closure$u7d$$u7d$17h3a487c1510be8586E', symObjAddr: 0x2AC, symBinAddr: 0x9808, symSize: 0x40 }
  - { offset: 0x359F4, size: 0x8, addend: 0x0, symName: '__ZN4pyo35impl_10trampoline10trampoline28_$u7b$$u7b$closure$u7d$$u7d$17h5783d693986f93c9E', symObjAddr: 0x2EC, symBinAddr: 0x9848, symSize: 0x24 }
  - { offset: 0x35A48, size: 0x8, addend: 0x0, symName: '__ZN4pyo35impl_10trampoline11module_init28_$u7b$$u7b$closure$u7d$$u7d$17haecf3f96560a1a20E', symObjAddr: 0x310, symBinAddr: 0x986C, symSize: 0x40 }
  - { offset: 0x35A94, size: 0x8, addend: 0x0, symName: '__ZN4pyo35impl_10trampoline11module_init28_$u7b$$u7b$closure$u7d$$u7d$28_$u7b$$u7b$closure$u7d$$u7d$17hc4f7bbf865dff046E', symObjAddr: 0x350, symBinAddr: 0x98AC, symSize: 0x24 }
  - { offset: 0x35AEB, size: 0x8, addend: 0x0, symName: '__ZN4pyo35impl_10trampoline22fastcall_with_keywords28_$u7b$$u7b$closure$u7d$$u7d$17hb7c45b926a94dd35E', symObjAddr: 0x374, symBinAddr: 0x98D0, symSize: 0x48 }
  - { offset: 0x36344, size: 0x8, addend: 0x0, symName: '__ZN103_$LT$pyo3..instance..Bound$LT$pyo3..types..any..PyAny$GT$$u20$as$u20$pyo3..types..any..PyAnyMethods$GT$18downcast_unchecked17h830333c0f5982beeE', symObjAddr: 0x0, symBinAddr: 0x9918, symSize: 0x74 }
  - { offset: 0x3638C, size: 0x8, addend: 0x0, symName: '__ZN125_$LT$pyo3..instance..Bound$LT$numpy..array..PyArray$LT$T$C$D$GT$$GT$$u20$as$u20$numpy..array..PyArrayMethods$LT$T$C$D$GT$$GT$12try_readonly17hbdcb16200e968821E', symObjAddr: 0x564, symBinAddr: 0x9E7C, symSize: 0x30 }
  - { offset: 0x363CC, size: 0x8, addend: 0x0, symName: '__ZN125_$LT$pyo3..instance..Bound$LT$numpy..array..PyArray$LT$T$C$D$GT$$GT$$u20$as$u20$numpy..array..PyArrayMethods$LT$T$C$D$GT$$GT$12try_readonly17hf89f3e4496e45603E', symObjAddr: 0x594, symBinAddr: 0x9EAC, symSize: 0x30 }
  - { offset: 0x3640C, size: 0x8, addend: 0x0, symName: '__ZN125_$LT$pyo3..instance..Bound$LT$numpy..array..PyArray$LT$T$C$D$GT$$GT$$u20$as$u20$numpy..array..PyArrayMethods$LT$T$C$D$GT$$GT$8as_array17h95d9d0240b4e9ae6E', symObjAddr: 0x5C4, symBinAddr: 0x9EDC, symSize: 0x24 }
  - { offset: 0x3644C, size: 0x8, addend: 0x0, symName: '__ZN125_$LT$pyo3..instance..Bound$LT$numpy..array..PyArray$LT$T$C$D$GT$$GT$$u20$as$u20$numpy..array..PyArrayMethods$LT$T$C$D$GT$$GT$8as_array17hb94f300f3be8cef0E', symObjAddr: 0x5E8, symBinAddr: 0x9F00, symSize: 0x24 }
  - { offset: 0x36570, size: 0x8, addend: 0x0, symName: __ZN5numpy5array14PyArrayMethods8readonly17h599afe681d51473eE, symObjAddr: 0x1388, symBinAddr: 0xACA0, symSize: 0x8C }
  - { offset: 0x365F1, size: 0x8, addend: 0x0, symName: __ZN5numpy5array14PyArrayMethods8readonly17h79bbf818cd1ab522E, symObjAddr: 0x1414, symBinAddr: 0xAD2C, symSize: 0x8C }
  - { offset: 0x36693, size: 0x8, addend: 0x0, symName: '__ZN127_$LT$pyo3..instance..Bound$LT$numpy..array..PyArray$LT$T$C$D$GT$$GT$$u20$as$u20$numpy..untyped_array..PyUntypedArrayMethods$GT$12as_array_ptr17h6ba3cc1014c5ec2dE', symObjAddr: 0x60C, symBinAddr: 0x9F24, symSize: 0x34 }
  - { offset: 0x366F1, size: 0x8, addend: 0x0, symName: '__ZN127_$LT$pyo3..instance..Bound$LT$numpy..array..PyArray$LT$T$C$D$GT$$GT$$u20$as$u20$numpy..untyped_array..PyUntypedArrayMethods$GT$12as_array_ptr17hce17f068cb8af76cE', symObjAddr: 0x640, symBinAddr: 0x9F58, symSize: 0x34 }
  - { offset: 0x3674F, size: 0x8, addend: 0x0, symName: '__ZN127_$LT$pyo3..instance..Bound$LT$numpy..array..PyArray$LT$T$C$D$GT$$GT$$u20$as$u20$numpy..untyped_array..PyUntypedArrayMethods$GT$5dtype17h530e9346b2083ac5E', symObjAddr: 0x674, symBinAddr: 0x9F8C, symSize: 0x34 }
  - { offset: 0x367AD, size: 0x8, addend: 0x0, symName: '__ZN127_$LT$pyo3..instance..Bound$LT$numpy..array..PyArray$LT$T$C$D$GT$$GT$$u20$as$u20$numpy..untyped_array..PyUntypedArrayMethods$GT$5dtype17h5fd6a18bde2616e1E', symObjAddr: 0x6A8, symBinAddr: 0x9FC0, symSize: 0x34 }
  - { offset: 0x36811, size: 0x8, addend: 0x0, symName: __ZN5numpy13untyped_array21PyUntypedArrayMethods3len17h38e8450db1aa5c7fE, symObjAddr: 0xF1C, symBinAddr: 0xA834, symSize: 0x2C }
  - { offset: 0x36848, size: 0x8, addend: 0x0, symName: __ZN5numpy13untyped_array21PyUntypedArrayMethods4ndim17h443daa8386dfd824E, symObjAddr: 0xF48, symBinAddr: 0xA860, symSize: 0x78 }
  - { offset: 0x3687F, size: 0x8, addend: 0x0, symName: __ZN5numpy13untyped_array21PyUntypedArrayMethods4ndim17h54502637f1b7a9b5E, symObjAddr: 0xFC0, symBinAddr: 0xA8D8, symSize: 0x78 }
  - { offset: 0x368B6, size: 0x8, addend: 0x0, symName: __ZN5numpy13untyped_array21PyUntypedArrayMethods5shape17h435dd8a8a2ab79a6E, symObjAddr: 0x1038, symBinAddr: 0xA950, symSize: 0xD4 }
  - { offset: 0x36937, size: 0x8, addend: 0x0, symName: __ZN5numpy13untyped_array21PyUntypedArrayMethods5shape17hf060f8d7207b1c06E, symObjAddr: 0x110C, symBinAddr: 0xAA24, symSize: 0xD4 }
  - { offset: 0x369B8, size: 0x8, addend: 0x0, symName: __ZN5numpy13untyped_array21PyUntypedArrayMethods7strides17h4a93b819971211e0E, symObjAddr: 0x11E0, symBinAddr: 0xAAF8, symSize: 0xD4 }
  - { offset: 0x36A39, size: 0x8, addend: 0x0, symName: __ZN5numpy13untyped_array21PyUntypedArrayMethods7strides17hde9b00fdb0f2cafcE, symObjAddr: 0x12B4, symBinAddr: 0xABCC, symSize: 0xD4 }
  - { offset: 0x3819B, size: 0x8, addend: 0x0, symName: '__ZN4core5slice29_$LT$impl$u20$$u5b$T$u5d$$GT$4iter17h4c362d915c3397d0E', symObjAddr: 0x784, symBinAddr: 0xA09C, symSize: 0x28 }
  - { offset: 0x388C9, size: 0x8, addend: 0x0, symName: '__ZN50_$LT$T$u20$as$u20$core..convert..Into$LT$U$GT$$GT$4into17h9bf90d9ed3d54eb3E', symObjAddr: 0xEF8, symBinAddr: 0xA810, symSize: 0x24 }
  - { offset: 0x3896F, size: 0x8, addend: 0x0, symName: '__ZN103_$LT$pyo3..instance..Bound$LT$pyo3..types..any..PyAny$GT$$u20$as$u20$pyo3..types..any..PyAnyMethods$GT$18downcast_unchecked17h830333c0f5982beeE', symObjAddr: 0x0, symBinAddr: 0x9918, symSize: 0x74 }
  - { offset: 0x389A6, size: 0x8, addend: 0x0, symName: '__ZN103_$LT$pyo3..instance..Bound$LT$pyo3..types..any..PyAny$GT$$u20$as$u20$pyo3..types..any..PyAnyMethods$GT$18downcast_unchecked17ha7787aa585a96e27E', symObjAddr: 0x74, symBinAddr: 0x998C, symSize: 0x74 }
  - { offset: 0x389DD, size: 0x8, addend: 0x0, symName: '__ZN103_$LT$pyo3..instance..Bound$LT$pyo3..types..any..PyAny$GT$$u20$as$u20$pyo3..types..any..PyAnyMethods$GT$18downcast_unchecked17hed835ecd32f1f2b5E', symObjAddr: 0xE8, symBinAddr: 0x9A00, symSize: 0x74 }
  - { offset: 0x38A14, size: 0x8, addend: 0x0, symName: '__ZN103_$LT$pyo3..instance..Bound$LT$pyo3..types..any..PyAny$GT$$u20$as$u20$pyo3..types..any..PyAnyMethods$GT$18downcast_unchecked17hf4cec961752bb708E', symObjAddr: 0x15C, symBinAddr: 0x9A74, symSize: 0x74 }
  - { offset: 0x38A4B, size: 0x8, addend: 0x0, symName: '__ZN103_$LT$pyo3..instance..Bound$LT$pyo3..types..any..PyAny$GT$$u20$as$u20$pyo3..types..any..PyAnyMethods$GT$23downcast_into_unchecked17h4e78b1f337eb90e7E', symObjAddr: 0x1D0, symBinAddr: 0x9AE8, symSize: 0x14 }
  - { offset: 0x38A82, size: 0x8, addend: 0x0, symName: '__ZN103_$LT$pyo3..instance..Bound$LT$pyo3..types..any..PyAny$GT$$u20$as$u20$pyo3..types..any..PyAnyMethods$GT$7extract17h7940b53d3e424e79E', symObjAddr: 0x1E4, symBinAddr: 0x9AFC, symSize: 0x30 }
  - { offset: 0x38AB9, size: 0x8, addend: 0x0, symName: '__ZN103_$LT$pyo3..instance..Bound$LT$pyo3..types..any..PyAny$GT$$u20$as$u20$pyo3..types..any..PyAnyMethods$GT$7extract17h98f1f17314f285b1E', symObjAddr: 0x214, symBinAddr: 0x9B2C, symSize: 0x30 }
  - { offset: 0x38AF0, size: 0x8, addend: 0x0, symName: '__ZN103_$LT$pyo3..instance..Bound$LT$pyo3..types..any..PyAny$GT$$u20$as$u20$pyo3..types..any..PyAnyMethods$GT$7extract17h9e32180f0550df1fE', symObjAddr: 0x244, symBinAddr: 0x9B5C, symSize: 0x30 }
  - { offset: 0x38B27, size: 0x8, addend: 0x0, symName: '__ZN103_$LT$pyo3..instance..Bound$LT$pyo3..types..any..PyAny$GT$$u20$as$u20$pyo3..types..any..PyAnyMethods$GT$8downcast17h2541b86e0f31f78fE', symObjAddr: 0x274, symBinAddr: 0x9B8C, symSize: 0x84 }
  - { offset: 0x38B5E, size: 0x8, addend: 0x0, symName: '__ZN103_$LT$pyo3..instance..Bound$LT$pyo3..types..any..PyAny$GT$$u20$as$u20$pyo3..types..any..PyAnyMethods$GT$8downcast17hed72e64fdb2db2beE', symObjAddr: 0x2F8, symBinAddr: 0x9C10, symSize: 0x84 }
  - { offset: 0x38BB6, size: 0x8, addend: 0x0, symName: '__ZN115_$LT$pyo3..instance..Bound$LT$pyo3..types..module..PyModule$GT$$u20$as$u20$pyo3..types..module..PyModuleMethods$GT$3add17h673d00c3a90616e0E', symObjAddr: 0x37C, symBinAddr: 0x9C94, symSize: 0x140 }
  - { offset: 0x38C2A, size: 0x8, addend: 0x0, symName: '__ZN115_$LT$pyo3..instance..Bound$LT$pyo3..types..module..PyModule$GT$$u20$as$u20$pyo3..types..module..PyModuleMethods$GT$9add_class17h1da5b4f3b39b828bE', symObjAddr: 0x4BC, symBinAddr: 0x9DD4, symSize: 0xA8 }
  - { offset: 0x38F82, size: 0x8, addend: 0x0, symName: '__ZN127_$LT$pyo3..instance..Py$LT$pyo3..types..any..PyAny$GT$$u20$as$u20$core..convert..From$LT$pyo3..instance..Bound$LT$T$GT$$GT$$GT$4from17h71135b4128f099dbE', symObjAddr: 0x6DC, symBinAddr: 0x9FF4, symSize: 0x84 }
  - { offset: 0x38FDD, size: 0x8, addend: 0x0, symName: '__ZN129_$LT$pyo3..instance..Py$LT$T$GT$$u20$as$u20$pyo3..conversion..IntoPy$LT$pyo3..instance..Py$LT$pyo3..types..any..PyAny$GT$$GT$$GT$7into_py17h5a39584ea9387148E', symObjAddr: 0x760, symBinAddr: 0xA078, symSize: 0x24 }
  - { offset: 0x3939E, size: 0x8, addend: 0x0, symName: '__ZN69_$LT$pyo3..instance..Bound$LT$T$GT$$u20$as$u20$core..clone..Clone$GT$5clone17h006060923f2ef4d4E', symObjAddr: 0x14A0, symBinAddr: 0xADB8, symSize: 0x34 }
  - { offset: 0x393D5, size: 0x8, addend: 0x0, symName: '__ZN69_$LT$pyo3..instance..Bound$LT$T$GT$$u20$as$u20$core..clone..Clone$GT$5clone17h58e03857937e8e64E', symObjAddr: 0x14D4, symBinAddr: 0xADEC, symSize: 0x34 }
  - { offset: 0x3940C, size: 0x8, addend: 0x0, symName: '__ZN69_$LT$pyo3..instance..Bound$LT$T$GT$$u20$as$u20$core..clone..Clone$GT$5clone17hf77208a5e3b60f3dE', symObjAddr: 0x1508, symBinAddr: 0xAE20, symSize: 0x34 }
  - { offset: 0x39449, size: 0x8, addend: 0x0, symName: '__ZN74_$LT$pyo3..instance..Bound$LT$T$GT$$u20$as$u20$core..ops..deref..Deref$GT$5deref17h7d4fdf8a1992b4f1E', symObjAddr: 0x153C, symBinAddr: 0xAE54, symSize: 0x24 }
  - { offset: 0x39480, size: 0x8, addend: 0x0, symName: '__ZN74_$LT$pyo3..instance..Bound$LT$T$GT$$u20$as$u20$core..ops..deref..Deref$GT$5deref17hf7bff16e5362425fE', symObjAddr: 0x1560, symBinAddr: 0xAE78, symSize: 0x24 }
  - { offset: 0x39678, size: 0x8, addend: 0x0, symName: '__ZN4pyo35impl_9pymethods133_$LT$impl$u20$core..convert..From$LT$pyo3..impl_..pymethods..BoundRef$LT$T$GT$$GT$$u20$for$u20$$RF$pyo3..instance..Bound$LT$T$GT$$GT$4from17hc950d7b879181692E', symObjAddr: 0x7AC, symBinAddr: 0xA0C4, symSize: 0x14 }
  - { offset: 0x3A0F8, size: 0x8, addend: 0x0, symName: '__ZN4pyo38instance11Py$LT$T$GT$10into_bound17hde8ae0d10b97dfa8E', symObjAddr: 0x7C0, symBinAddr: 0xA0D8, symSize: 0x1C }
  - { offset: 0x3A13F, size: 0x8, addend: 0x0, symName: '__ZN4pyo38instance11Py$LT$T$GT$13from_non_null17h753c07355891a5f0E', symObjAddr: 0x7DC, symBinAddr: 0xA0F4, symSize: 0x14 }
  - { offset: 0x3A16B, size: 0x8, addend: 0x0, symName: '__ZN4pyo38instance11Py$LT$T$GT$13from_non_null17hd9cedda73d2a592cE', symObjAddr: 0x7F0, symBinAddr: 0xA108, symSize: 0x14 }
  - { offset: 0x3A197, size: 0x8, addend: 0x0, symName: '__ZN4pyo38instance11Py$LT$T$GT$13from_non_null17he1dea6068ccf5316E', symObjAddr: 0x804, symBinAddr: 0xA11C, symSize: 0x14 }
  - { offset: 0x3A1DD, size: 0x8, addend: 0x0, symName: '__ZN4pyo38instance11Py$LT$T$GT$16get_class_object17h356b5b1ec36ff00bE', symObjAddr: 0x818, symBinAddr: 0xA130, symSize: 0x78 }
  - { offset: 0x3A267, size: 0x8, addend: 0x0, symName: '__ZN4pyo38instance11Py$LT$T$GT$3new17he575b0ef16b00204E', symObjAddr: 0x890, symBinAddr: 0xA1A8, symSize: 0x34 }
  - { offset: 0x3A2B8, size: 0x8, addend: 0x0, symName: '__ZN4pyo38instance11Py$LT$T$GT$6as_ptr17h04d34ae483608a54E', symObjAddr: 0x8C4, symBinAddr: 0xA1DC, symSize: 0x1C }
  - { offset: 0x3A2F1, size: 0x8, addend: 0x0, symName: '__ZN4pyo38instance11Py$LT$T$GT$6as_ptr17h4b415c60cea37cbbE', symObjAddr: 0x8E0, symBinAddr: 0xA1F8, symSize: 0x1C }
  - { offset: 0x3A32A, size: 0x8, addend: 0x0, symName: '__ZN4pyo38instance11Py$LT$T$GT$6as_ptr17ha069501b69d5c6c0E', symObjAddr: 0x8FC, symBinAddr: 0xA214, symSize: 0x1C }
  - { offset: 0x3A356, size: 0x8, addend: 0x0, symName: '__ZN4pyo38instance11Py$LT$T$GT$8into_any17h1c6dfc80a6843175E', symObjAddr: 0x918, symBinAddr: 0xA230, symSize: 0x3C }
  - { offset: 0x3A382, size: 0x8, addend: 0x0, symName: '__ZN4pyo38instance11Py$LT$T$GT$8into_ptr17h1cad71d7fca9b3e1E', symObjAddr: 0x954, symBinAddr: 0xA26C, symSize: 0x30 }
  - { offset: 0x3A3AE, size: 0x8, addend: 0x0, symName: '__ZN4pyo38instance11Py$LT$T$GT$9clone_ref17h597d29578b403f2aE', symObjAddr: 0x984, symBinAddr: 0xA29C, symSize: 0x100 }
  - { offset: 0x3A45D, size: 0x8, addend: 0x0, symName: '__ZN4pyo38instance11Py$LT$T$GT$9clone_ref17h99ba2ff883349cfbE', symObjAddr: 0xA84, symBinAddr: 0xA39C, symSize: 0x100 }
  - { offset: 0x3A50C, size: 0x8, addend: 0x0, symName: '__ZN4pyo38instance11Py$LT$T$GT$9clone_ref17he77cb1039c29c2e3E', symObjAddr: 0xB84, symBinAddr: 0xA49C, symSize: 0x100 }
  - { offset: 0x3A5C8, size: 0x8, addend: 0x0, symName: '__ZN4pyo38instance14Bound$LT$T$GT$10try_borrow17hb49eef7162a4a0e2E', symObjAddr: 0xC84, symBinAddr: 0xA59C, symSize: 0x24 }
  - { offset: 0x3A5F4, size: 0x8, addend: 0x0, symName: '__ZN4pyo38instance14Bound$LT$T$GT$16get_class_object17h781351c1cf8daf8bE', symObjAddr: 0xCA8, symBinAddr: 0xA5C0, symSize: 0x2C }
  - { offset: 0x3A620, size: 0x8, addend: 0x0, symName: '__ZN4pyo38instance14Bound$LT$T$GT$2py17h54b6fd0e69246726E', symObjAddr: 0xCD4, symBinAddr: 0xA5EC, symSize: 0x10 }
  - { offset: 0x3A64C, size: 0x8, addend: 0x0, symName: '__ZN4pyo38instance14Bound$LT$T$GT$2py17hd8106733918d4259E', symObjAddr: 0xCE4, symBinAddr: 0xA5FC, symSize: 0x10 }
  - { offset: 0x3A678, size: 0x8, addend: 0x0, symName: '__ZN4pyo38instance14Bound$LT$T$GT$3new17hb8530bad2869d902E', symObjAddr: 0xCF4, symBinAddr: 0xA60C, symSize: 0x3C }
  - { offset: 0x3A6D3, size: 0x8, addend: 0x0, symName: '__ZN4pyo38instance14Bound$LT$T$GT$6as_any17h6250a7b12564e1bfE', symObjAddr: 0xD30, symBinAddr: 0xA648, symSize: 0x74 }
  - { offset: 0x3A6FF, size: 0x8, addend: 0x0, symName: '__ZN4pyo38instance14Bound$LT$T$GT$6as_any17h8d1f83b06ddd879eE', symObjAddr: 0xDA4, symBinAddr: 0xA6BC, symSize: 0x74 }
  - { offset: 0x3A72B, size: 0x8, addend: 0x0, symName: '__ZN4pyo38instance14Bound$LT$T$GT$6as_ptr17h649b3f7ff6aa5b0aE', symObjAddr: 0xE18, symBinAddr: 0xA730, symSize: 0x2C }
  - { offset: 0x3A757, size: 0x8, addend: 0x0, symName: '__ZN4pyo38instance14Bound$LT$T$GT$6as_ptr17h8fe811b227d14a70E', symObjAddr: 0xE44, symBinAddr: 0xA75C, symSize: 0x2C }
  - { offset: 0x3A783, size: 0x8, addend: 0x0, symName: '__ZN4pyo38instance14Bound$LT$T$GT$6as_ptr17hd62eda6f4006e37eE', symObjAddr: 0xE70, symBinAddr: 0xA788, symSize: 0x2C }
  - { offset: 0x3A7AF, size: 0x8, addend: 0x0, symName: '__ZN4pyo38instance14Bound$LT$T$GT$6unbind17h0977d42dd3161b96E', symObjAddr: 0xE9C, symBinAddr: 0xA7B4, symSize: 0x48 }
  - { offset: 0x3A813, size: 0x8, addend: 0x0, symName: '__ZN4pyo38instance39Borrowed$LT$pyo3..types..any..PyAny$GT$18downcast_unchecked17h6aa13738a8f31f50E', symObjAddr: 0xEE4, symBinAddr: 0xA7FC, symSize: 0x14 }
  - { offset: 0x3AA2C, size: 0x8, addend: 0x0, symName: '__ZN102_$LT$core..iter..adapters..map..Map$LT$I$C$F$GT$$u20$as$u20$core..iter..traits..iterator..Iterator$GT$4fold17hf10b5a8d937d7c16E', symObjAddr: 0x0, symBinAddr: 0xAE9C, symSize: 0x44 }
  - { offset: 0x3B28C, size: 0x8, addend: 0x0, symName: '__ZN4core4iter8adapters3map8map_fold28_$u7b$$u7b$closure$u7d$$u7d$17h9fd0c5bbc853c8fcE', symObjAddr: 0x36C, symBinAddr: 0xB208, symSize: 0x8C }
  - { offset: 0x3B317, size: 0x8, addend: 0x0, symName: '__ZN102_$LT$core..iter..adapters..map..Map$LT$I$C$F$GT$$u20$as$u20$core..iter..traits..iterator..Iterator$GT$4fold17hf10b5a8d937d7c16E', symObjAddr: 0x0, symBinAddr: 0xAE9C, symSize: 0x44 }
  - { offset: 0x3B3AF, size: 0x8, addend: 0x0, symName: '__ZN102_$LT$core..iter..adapters..map..Map$LT$I$C$F$GT$$u20$as$u20$core..iter..traits..iterator..Iterator$GT$4next17heb43e83797c644b0E', symObjAddr: 0x44, symBinAddr: 0xAEE0, symSize: 0x78 }
  - { offset: 0x3B44B, size: 0x8, addend: 0x0, symName: '__ZN102_$LT$core..iter..adapters..map..Map$LT$I$C$F$GT$$u20$as$u20$core..iter..traits..iterator..Iterator$GT$8try_fold17h85e994ebc69015cdE', symObjAddr: 0xBC, symBinAddr: 0xAF58, symSize: 0x34 }
  - { offset: 0x3B4C9, size: 0x8, addend: 0x0, symName: '__ZN102_$LT$core..iter..adapters..map..Map$LT$I$C$F$GT$$u20$as$u20$core..iter..traits..iterator..Iterator$GT$9size_hint17hcb28a05c978c1c62E', symObjAddr: 0xF0, symBinAddr: 0xAF8C, symSize: 0x24 }
  - { offset: 0x3B510, size: 0x8, addend: 0x0, symName: '__ZN102_$LT$core..iter..adapters..map..Map$LT$I$C$F$GT$$u20$as$u20$core..iter..traits..iterator..Iterator$GT$9size_hint17he8874a1c0a655952E', symObjAddr: 0x114, symBinAddr: 0xAFB0, symSize: 0x24 }
  - { offset: 0x3B55D, size: 0x8, addend: 0x0, symName: '__ZN113_$LT$core..iter..adapters..map..Map$LT$I$C$F$GT$$u20$as$u20$core..iter..traits..exact_size..ExactSizeIterator$GT$3len17ha0bdc7e3bacd86deE', symObjAddr: 0x138, symBinAddr: 0xAFD4, symSize: 0x44 }
  - { offset: 0x3B5DB, size: 0x8, addend: 0x0, symName: '__ZN113_$LT$core..iter..adapters..map..Map$LT$I$C$F$GT$$u20$as$u20$core..iter..traits..exact_size..ExactSizeIterator$GT$8is_empty17hbb51439db1b07f58E', symObjAddr: 0x17C, symBinAddr: 0xB018, symSize: 0x3C }
  - { offset: 0x3B67B, size: 0x8, addend: 0x0, symName: '__ZN4core4iter8adapters3map12map_try_fold28_$u7b$$u7b$closure$u7d$$u7d$17hc74e6078f7240040E', symObjAddr: 0x2CC, symBinAddr: 0xB168, symSize: 0xA0 }
  - { offset: 0x3B7D4, size: 0x8, addend: 0x0, symName: __ZN4core4iter6traits8iterator8Iterator10advance_by17h41d657cc3e9fd895E, symObjAddr: 0x1B8, symBinAddr: 0xB054, symSize: 0x28 }
  - { offset: 0x3B81A, size: 0x8, addend: 0x0, symName: __ZN4core4iter6traits8iterator8Iterator3nth17h221915a243b01526E, symObjAddr: 0x1E0, symBinAddr: 0xB07C, symSize: 0x7C }
  - { offset: 0x3B8EA, size: 0x8, addend: 0x0, symName: __ZN4core4iter6traits8iterator8Iterator7collect17h51d2520cb711ff5fE, symObjAddr: 0x25C, symBinAddr: 0xB0F8, symSize: 0x2C }
  - { offset: 0x3B92A, size: 0x8, addend: 0x0, symName: __ZN4core4iter6traits8iterator8Iterator8for_each17h4720095cf86f970dE, symObjAddr: 0x288, symBinAddr: 0xB124, symSize: 0x44 }
  - { offset: 0x3B99F, size: 0x8, addend: 0x0, symName: '__ZN87_$LT$I$u20$as$u20$core..iter..traits..iterator..Iterator..advance_by..SpecAdvanceBy$GT$15spec_advance_by17hbbb8c414b05399d3E', symObjAddr: 0x414, symBinAddr: 0xB2B0, symSize: 0x8C }
  - { offset: 0x3BA68, size: 0x8, addend: 0x0, symName: '__ZN63_$LT$I$u20$as$u20$core..iter..traits..collect..IntoIterator$GT$9into_iter17h9547e5f602e701d9E', symObjAddr: 0x3F8, symBinAddr: 0xB294, symSize: 0x1C }
  - { offset: 0x3D525, size: 0x8, addend: 0x0, symName: __ZN4pyo35impl_5panic9PanicTrap3new17h67449a5e71ad1516E, symObjAddr: 0x0, symBinAddr: 0xB33C, symSize: 0x18 }
  - { offset: 0x3D5B4, size: 0x8, addend: 0x0, symName: __ZN4pyo35impl_5panic9PanicTrap3new17h67449a5e71ad1516E, symObjAddr: 0x0, symBinAddr: 0xB33C, symSize: 0x18 }
  - { offset: 0x3D5D6, size: 0x8, addend: 0x0, symName: __ZN4pyo35impl_5panic9PanicTrap6disarm17h1cbd093ddf4b1eddE, symObjAddr: 0x18, symBinAddr: 0xB354, symSize: 0x28 }
  - { offset: 0x3D616, size: 0x8, addend: 0x0, symName: __ZN4pyo35impl_12deprecations12inspect_type17h0a340bc3238e1256E, symObjAddr: 0x0, symBinAddr: 0xB37C, symSize: 0x18 }
  - { offset: 0x3E981, size: 0x8, addend: 0x0, symName: __ZN4pyo35impl_12deprecations12inspect_type17h0a340bc3238e1256E, symObjAddr: 0x0, symBinAddr: 0xB37C, symSize: 0x18 }
  - { offset: 0x3E9C0, size: 0x8, addend: 0x0, symName: __ZN4pyo35impl_12deprecations12inspect_type17h30b1e240d40e8dddE, symObjAddr: 0x18, symBinAddr: 0xB394, symSize: 0x18 }
  - { offset: 0x3E9FF, size: 0x8, addend: 0x0, symName: __ZN4pyo35impl_12deprecations12inspect_type17h4f47e3af539acf8cE, symObjAddr: 0x30, symBinAddr: 0xB3AC, symSize: 0x14 }
  - { offset: 0x3EA3E, size: 0x8, addend: 0x0, symName: __ZN4pyo35impl_12deprecations12inspect_type17h53dd3ffe998cb0c6E, symObjAddr: 0x44, symBinAddr: 0xB3C0, symSize: 0x14 }
  - { offset: 0x3EA7D, size: 0x8, addend: 0x0, symName: __ZN4pyo35impl_12deprecations12inspect_type17h5a7ca34423732efaE, symObjAddr: 0x58, symBinAddr: 0xB3D4, symSize: 0x24 }
  - { offset: 0x3EABC, size: 0x8, addend: 0x0, symName: __ZN4pyo35impl_12deprecations12inspect_type17h7637fc2022bd9f0dE, symObjAddr: 0x7C, symBinAddr: 0xB3F8, symSize: 0x14 }
  - { offset: 0x3EAFB, size: 0x8, addend: 0x0, symName: __ZN4pyo35impl_12deprecations12inspect_type17hdc7d25dc60961d6fE, symObjAddr: 0x90, symBinAddr: 0xB40C, symSize: 0x14 }
  - { offset: 0x3EB3A, size: 0x8, addend: 0x0, symName: __ZN4pyo35impl_12deprecations12inspect_type17hef3a2bd1693384c3E, symObjAddr: 0xA4, symBinAddr: 0xB420, symSize: 0x18 }
  - { offset: 0x3EFE0, size: 0x8, addend: 0x0, symName: '__ZN87_$LT$pyo3..impl_..deprecations..GilRefs$LT$T$GT$$u20$as$u20$core..ops..deref..Deref$GT$5deref17h1ef598516586199fE', symObjAddr: 0x16C, symBinAddr: 0xB4E8, symSize: 0x14 }
  - { offset: 0x3F015, size: 0x8, addend: 0x0, symName: '__ZN87_$LT$pyo3..impl_..deprecations..GilRefs$LT$T$GT$$u20$as$u20$core..ops..deref..Deref$GT$5deref17h463059e7edc33abeE', symObjAddr: 0x180, symBinAddr: 0xB4FC, symSize: 0x14 }
  - { offset: 0x3F04A, size: 0x8, addend: 0x0, symName: '__ZN87_$LT$pyo3..impl_..deprecations..GilRefs$LT$T$GT$$u20$as$u20$core..ops..deref..Deref$GT$5deref17h4680ff2e40689dc8E', symObjAddr: 0x194, symBinAddr: 0xB510, symSize: 0x14 }
  - { offset: 0x3F07F, size: 0x8, addend: 0x0, symName: '__ZN87_$LT$pyo3..impl_..deprecations..GilRefs$LT$T$GT$$u20$as$u20$core..ops..deref..Deref$GT$5deref17h60a886f07ee88a99E', symObjAddr: 0x1A8, symBinAddr: 0xB524, symSize: 0x14 }
  - { offset: 0x3F0B4, size: 0x8, addend: 0x0, symName: '__ZN87_$LT$pyo3..impl_..deprecations..GilRefs$LT$T$GT$$u20$as$u20$core..ops..deref..Deref$GT$5deref17h79b257cad289e8ebE', symObjAddr: 0x1BC, symBinAddr: 0xB538, symSize: 0x14 }
  - { offset: 0x3F0E9, size: 0x8, addend: 0x0, symName: '__ZN87_$LT$pyo3..impl_..deprecations..GilRefs$LT$T$GT$$u20$as$u20$core..ops..deref..Deref$GT$5deref17h8a68c091d6b5cf22E', symObjAddr: 0x1D0, symBinAddr: 0xB54C, symSize: 0x14 }
  - { offset: 0x3F11E, size: 0x8, addend: 0x0, symName: '__ZN87_$LT$pyo3..impl_..deprecations..GilRefs$LT$T$GT$$u20$as$u20$core..ops..deref..Deref$GT$5deref17h9c2cd421a6979be9E', symObjAddr: 0x1E4, symBinAddr: 0xB560, symSize: 0x14 }
  - { offset: 0x3F153, size: 0x8, addend: 0x0, symName: '__ZN87_$LT$pyo3..impl_..deprecations..GilRefs$LT$T$GT$$u20$as$u20$core..ops..deref..Deref$GT$5deref17ha9bac64d3e23510bE', symObjAddr: 0x1F8, symBinAddr: 0xB574, symSize: 0x14 }
  - { offset: 0x3F18E, size: 0x8, addend: 0x0, symName: '__ZN93_$LT$pyo3..impl_..deprecations..OptionGilRefs$LT$T$GT$$u20$as$u20$core..ops..deref..Deref$GT$5deref17h0f4eb681dd1aa845E', symObjAddr: 0x20C, symBinAddr: 0xB588, symSize: 0x14 }
  - { offset: 0x3F1C3, size: 0x8, addend: 0x0, symName: '__ZN93_$LT$pyo3..impl_..deprecations..OptionGilRefs$LT$T$GT$$u20$as$u20$core..ops..deref..Deref$GT$5deref17h7cd573802ac7f7a8E', symObjAddr: 0x220, symBinAddr: 0xB59C, symSize: 0x14 }
  - { offset: 0x3F1F8, size: 0x8, addend: 0x0, symName: '__ZN93_$LT$pyo3..impl_..deprecations..OptionGilRefs$LT$T$GT$$u20$as$u20$core..ops..deref..Deref$GT$5deref17h93ef0a6498c60dd4E', symObjAddr: 0x234, symBinAddr: 0xB5B0, symSize: 0x14 }
  - { offset: 0x3F22D, size: 0x8, addend: 0x0, symName: '__ZN93_$LT$pyo3..impl_..deprecations..OptionGilRefs$LT$T$GT$$u20$as$u20$core..ops..deref..Deref$GT$5deref17hafd41f0010e1bb08E', symObjAddr: 0x248, symBinAddr: 0xB5C4, symSize: 0x14 }
  - { offset: 0x3F262, size: 0x8, addend: 0x0, symName: '__ZN93_$LT$pyo3..impl_..deprecations..OptionGilRefs$LT$T$GT$$u20$as$u20$core..ops..deref..Deref$GT$5deref17hb1c2827932bc03e4E', symObjAddr: 0x25C, symBinAddr: 0xB5D8, symSize: 0x14 }
  - { offset: 0x3F297, size: 0x8, addend: 0x0, symName: '__ZN93_$LT$pyo3..impl_..deprecations..OptionGilRefs$LT$T$GT$$u20$as$u20$core..ops..deref..Deref$GT$5deref17hb2e3fba1429a3cc5E', symObjAddr: 0x270, symBinAddr: 0xB5EC, symSize: 0x14 }
  - { offset: 0x3F2CC, size: 0x8, addend: 0x0, symName: '__ZN93_$LT$pyo3..impl_..deprecations..OptionGilRefs$LT$T$GT$$u20$as$u20$core..ops..deref..Deref$GT$5deref17hcd6ea6d499a378abE', symObjAddr: 0x284, symBinAddr: 0xB600, symSize: 0x14 }
  - { offset: 0x3F301, size: 0x8, addend: 0x0, symName: '__ZN93_$LT$pyo3..impl_..deprecations..OptionGilRefs$LT$T$GT$$u20$as$u20$core..ops..deref..Deref$GT$5deref17hd07ee336e4228084E', symObjAddr: 0x298, symBinAddr: 0xB614, symSize: 0x14 }
  - { offset: 0x3F509, size: 0x8, addend: 0x0, symName: '__ZN4pyo35impl_12deprecations16GilRefs$LT$T$GT$3new17h17e6ac448674faabE', symObjAddr: 0xBC, symBinAddr: 0xB438, symSize: 0x4 }
  - { offset: 0x3F52D, size: 0x8, addend: 0x0, symName: '__ZN4pyo35impl_12deprecations16GilRefs$LT$T$GT$3new17h22c48c3baa0555e4E', symObjAddr: 0xC0, symBinAddr: 0xB43C, symSize: 0x4 }
  - { offset: 0x3F551, size: 0x8, addend: 0x0, symName: '__ZN4pyo35impl_12deprecations16GilRefs$LT$T$GT$3new17h2d1477b90c7ed259E', symObjAddr: 0xC4, symBinAddr: 0xB440, symSize: 0x4 }
  - { offset: 0x3F56E, size: 0x8, addend: 0x0, symName: '__ZN4pyo35impl_12deprecations16GilRefs$LT$T$GT$3new17h3e79b1e3bbfa21ecE', symObjAddr: 0xC8, symBinAddr: 0xB444, symSize: 0x4 }
  - { offset: 0x3FC15, size: 0x8, addend: 0x0, symName: '__ZN4pyo35impl_12deprecations16GilRefs$LT$T$GT$3new17h4b576c0eb381dcf9E', symObjAddr: 0xCC, symBinAddr: 0xB448, symSize: 0x4 }
  - { offset: 0x3FC32, size: 0x8, addend: 0x0, symName: '__ZN4pyo35impl_12deprecations16GilRefs$LT$T$GT$3new17h6c419c0019e4ac6eE', symObjAddr: 0xD0, symBinAddr: 0xB44C, symSize: 0x4 }
  - { offset: 0x3FC5C, size: 0x8, addend: 0x0, symName: '__ZN4pyo35impl_12deprecations16GilRefs$LT$T$GT$3new17ha706f42a9308a639E', symObjAddr: 0xD4, symBinAddr: 0xB450, symSize: 0x4 }
  - { offset: 0x3FC86, size: 0x8, addend: 0x0, symName: '__ZN4pyo35impl_12deprecations16GilRefs$LT$T$GT$3new17hdd8d29bbe141ca06E', symObjAddr: 0xD8, symBinAddr: 0xB454, symSize: 0x4 }
  - { offset: 0x3FCB0, size: 0x8, addend: 0x0, symName: '__ZN4pyo35impl_12deprecations19NotAGilRef$LT$T$GT$12function_arg17h022cf9ee4e431975E', symObjAddr: 0xDC, symBinAddr: 0xB458, symSize: 0x10 }
  - { offset: 0x3FCE8, size: 0x8, addend: 0x0, symName: '__ZN4pyo35impl_12deprecations19NotAGilRef$LT$T$GT$12function_arg17h1e146a4624e412f9E', symObjAddr: 0xEC, symBinAddr: 0xB468, symSize: 0x10 }
  - { offset: 0x3FD20, size: 0x8, addend: 0x0, symName: '__ZN4pyo35impl_12deprecations19NotAGilRef$LT$T$GT$12function_arg17h26d82870977492d2E', symObjAddr: 0xFC, symBinAddr: 0xB478, symSize: 0x10 }
  - { offset: 0x3FD58, size: 0x8, addend: 0x0, symName: '__ZN4pyo35impl_12deprecations19NotAGilRef$LT$T$GT$12function_arg17h463fd513fbec0c13E', symObjAddr: 0x10C, symBinAddr: 0xB488, symSize: 0x10 }
  - { offset: 0x3FD90, size: 0x8, addend: 0x0, symName: '__ZN4pyo35impl_12deprecations19NotAGilRef$LT$T$GT$12function_arg17hb9be402d56d0eb4aE', symObjAddr: 0x11C, symBinAddr: 0xB498, symSize: 0x10 }
  - { offset: 0x3FDC8, size: 0x8, addend: 0x0, symName: '__ZN4pyo35impl_12deprecations19NotAGilRef$LT$T$GT$12function_arg17hc2dd2d4d0039e68aE', symObjAddr: 0x12C, symBinAddr: 0xB4A8, symSize: 0x10 }
  - { offset: 0x3FE00, size: 0x8, addend: 0x0, symName: '__ZN4pyo35impl_12deprecations19NotAGilRef$LT$T$GT$12function_arg17hc4dab1ce15fe11aaE', symObjAddr: 0x13C, symBinAddr: 0xB4B8, symSize: 0x10 }
  - { offset: 0x3FE38, size: 0x8, addend: 0x0, symName: '__ZN4pyo35impl_12deprecations19NotAGilRef$LT$T$GT$12function_arg17he56edeea047500caE', symObjAddr: 0x14C, symBinAddr: 0xB4C8, symSize: 0x10 }
  - { offset: 0x3FE63, size: 0x8, addend: 0x0, symName: '__ZN4pyo35impl_12deprecations19NotAGilRef$LT$T$GT$9is_python17hb348938451bae0e7E', symObjAddr: 0x15C, symBinAddr: 0xB4D8, symSize: 0x10 }
  - { offset: 0x3FF7C, size: 0x8, addend: 0x0, symName: __ZN8pyo3_ffi7cpython10listobject15PyList_SET_ITEM17h80b9989a01f4a3b7E, symObjAddr: 0x0, symBinAddr: 0xB628, symSize: 0x110 }
  - { offset: 0x4055E, size: 0x8, addend: 0x0, symName: __ZN8pyo3_ffi7cpython10listobject15PyList_SET_ITEM17h80b9989a01f4a3b7E, symObjAddr: 0x0, symBinAddr: 0xB628, symSize: 0x110 }
  - { offset: 0x41520, size: 0x8, addend: 0x0, symName: __ZN4pyo315internal_tricks12ptr_from_ref17h579ab96a33424546E, symObjAddr: 0x0, symBinAddr: 0xB738, symSize: 0x14 }
  - { offset: 0x426E3, size: 0x8, addend: 0x0, symName: __ZN4pyo315internal_tricks12ptr_from_ref17h579ab96a33424546E, symObjAddr: 0x0, symBinAddr: 0xB738, symSize: 0x14 }
  - { offset: 0x42718, size: 0x8, addend: 0x0, symName: __ZN4pyo315internal_tricks12ptr_from_ref17hee60644f90270d53E, symObjAddr: 0x14, symBinAddr: 0xB74C, symSize: 0x14 }
  - { offset: 0x42E88, size: 0x8, addend: 0x0, symName: '__ZN111_$LT$alloc..vec..Vec$LT$T$GT$$u20$as$u20$alloc..vec..spec_from_iter_nested..SpecFromIterNested$LT$T$C$I$GT$$GT$9from_iter17h8760cce8c1ec04c6E', symObjAddr: 0x0, symBinAddr: 0xB760, symSize: 0x15C }
  - { offset: 0x46173, size: 0x8, addend: 0x0, symName: '__ZN111_$LT$alloc..vec..Vec$LT$T$GT$$u20$as$u20$alloc..vec..spec_from_iter_nested..SpecFromIterNested$LT$T$C$I$GT$$GT$9from_iter17h8760cce8c1ec04c6E', symObjAddr: 0x0, symBinAddr: 0xB760, symSize: 0x15C }
  - { offset: 0x4674A, size: 0x8, addend: 0x0, symName: '__ZN5alloc3vec16Vec$LT$T$C$A$GT$14extend_trusted28_$u7b$$u7b$closure$u7d$$u7d$17h60e9bd116bc9c932E', symObjAddr: 0x828, symBinAddr: 0xBF88, symSize: 0x30 }
  - { offset: 0x467F2, size: 0x8, addend: 0x0, symName: '__ZN5alloc3vec16Vec$LT$T$C$A$GT$14extend_trusted28_$u7b$$u7b$closure$u7d$$u7d$17h6861b56ce41ae8b3E', symObjAddr: 0x858, symBinAddr: 0xBFB8, symSize: 0x44 }
  - { offset: 0x468A1, size: 0x8, addend: 0x0, symName: __ZN5alloc3vec9from_elem17h90c8308c93803461E, symObjAddr: 0xD80, symBinAddr: 0xC4E0, symSize: 0x24 }
  - { offset: 0x468EC, size: 0x8, addend: 0x0, symName: '__ZN72_$LT$alloc..vec..Vec$LT$T$C$A$GT$$u20$as$u20$core..ops..deref..Deref$GT$5deref17h7a6ea09ee3e05ad0E', symObjAddr: 0xDCC, symBinAddr: 0xC52C, symSize: 0x24 }
  - { offset: 0x46A22, size: 0x8, addend: 0x0, symName: '__ZN75_$LT$alloc..vec..Vec$LT$T$C$A$GT$$u20$as$u20$core..ops..deref..DerefMut$GT$9deref_mut17h92481c3bedb8aebfE', symObjAddr: 0xDF0, symBinAddr: 0xC550, symSize: 0x24 }
  - { offset: 0x46AF8, size: 0x8, addend: 0x0, symName: '__ZN81_$LT$alloc..vec..Vec$LT$T$C$A$GT$$u20$as$u20$core..ops..index..Index$LT$I$GT$$GT$5index17h39e3f4377a4b06c0E', symObjAddr: 0xE14, symBinAddr: 0xC574, symSize: 0x88 }
  - { offset: 0x46C7A, size: 0x8, addend: 0x0, symName: '__ZN81_$LT$alloc..vec..Vec$LT$T$C$A$GT$$u20$as$u20$core..ops..index..Index$LT$I$GT$$GT$5index17h5c4f6ddb0333d2acE', symObjAddr: 0xE9C, symBinAddr: 0xC5FC, symSize: 0x88 }
  - { offset: 0x46DFC, size: 0x8, addend: 0x0, symName: '__ZN81_$LT$alloc..vec..Vec$LT$T$C$A$GT$$u20$as$u20$core..ops..index..Index$LT$I$GT$$GT$5index17h95bb0903106cb3ebE', symObjAddr: 0xF24, symBinAddr: 0xC684, symSize: 0x8C }
  - { offset: 0x46F7E, size: 0x8, addend: 0x0, symName: '__ZN81_$LT$alloc..vec..Vec$LT$T$C$A$GT$$u20$as$u20$core..ops..index..Index$LT$I$GT$$GT$5index17hfa1aeb104bb0d0f4E', symObjAddr: 0xFB0, symBinAddr: 0xC710, symSize: 0x88 }
  - { offset: 0x47106, size: 0x8, addend: 0x0, symName: '__ZN84_$LT$alloc..vec..Vec$LT$T$C$A$GT$$u20$as$u20$core..ops..index..IndexMut$LT$I$GT$$GT$9index_mut17h4a2ecdb1f882b235E', symObjAddr: 0x1038, symBinAddr: 0xC798, symSize: 0x8C }
  - { offset: 0x4725A, size: 0x8, addend: 0x0, symName: '__ZN84_$LT$alloc..vec..Vec$LT$T$C$A$GT$$u20$as$u20$core..ops..index..IndexMut$LT$I$GT$$GT$9index_mut17h88cf200f00e17eaaE', symObjAddr: 0x10C4, symBinAddr: 0xC824, symSize: 0x88 }
  - { offset: 0x473AE, size: 0x8, addend: 0x0, symName: '__ZN84_$LT$alloc..vec..Vec$LT$T$C$A$GT$$u20$as$u20$core..ops..index..IndexMut$LT$I$GT$$GT$9index_mut17hf598b13c00de768bE', symObjAddr: 0x114C, symBinAddr: 0xC8AC, symSize: 0x88 }
  - { offset: 0x47508, size: 0x8, addend: 0x0, symName: '__ZN90_$LT$alloc..vec..Vec$LT$T$C$A$GT$$u20$as$u20$core..iter..traits..collect..IntoIterator$GT$9into_iter17hdbdeda410bdd18cbE', symObjAddr: 0x11D4, symBinAddr: 0xC934, symSize: 0xA0 }
  - { offset: 0x4773E, size: 0x8, addend: 0x0, symName: '__ZN93_$LT$alloc..vec..Vec$LT$T$C$A$GT$$u20$as$u20$core..iter..traits..collect..Extend$LT$T$GT$$GT$6extend17h248d6a91461d0ac6E', symObjAddr: 0x1274, symBinAddr: 0xC9D4, symSize: 0x54 }
  - { offset: 0x47798, size: 0x8, addend: 0x0, symName: '__ZN94_$LT$$RF$alloc..vec..Vec$LT$T$C$A$GT$$u20$as$u20$core..iter..traits..collect..IntoIterator$GT$9into_iter17h57ef8baf502bc9b4E', symObjAddr: 0x12C8, symBinAddr: 0xCA28, symSize: 0xA0 }
  - { offset: 0x479E8, size: 0x8, addend: 0x0, symName: '__ZN95_$LT$alloc..vec..Vec$LT$T$GT$$u20$as$u20$core..iter..traits..collect..FromIterator$LT$T$GT$$GT$9from_iter17hc6bc6f3b9b0216ffE', symObjAddr: 0x1368, symBinAddr: 0xCAC8, symSize: 0x38 }
  - { offset: 0x47A33, size: 0x8, addend: 0x0, symName: '__ZN97_$LT$alloc..vec..Vec$LT$T$C$A$GT$$u20$as$u20$alloc..vec..spec_extend..SpecExtend$LT$T$C$I$GT$$GT$11spec_extend17h0c03d4a972f14fd2E', symObjAddr: 0x13A0, symBinAddr: 0xCB00, symSize: 0x34 }
  - { offset: 0x47A84, size: 0x8, addend: 0x0, symName: '__ZN97_$LT$alloc..vec..Vec$LT$T$C$A$GT$$u20$as$u20$alloc..vec..spec_extend..SpecExtend$LT$T$C$I$GT$$GT$11spec_extend17h83a4300e72dd7749E', symObjAddr: 0x13D4, symBinAddr: 0xCB34, symSize: 0x30 }
  - { offset: 0x47AE1, size: 0x8, addend: 0x0, symName: '__ZN98_$LT$alloc..vec..Vec$LT$T$GT$$u20$as$u20$alloc..vec..spec_from_iter..SpecFromIter$LT$T$C$I$GT$$GT$9from_iter17h8a8e1107fca767eaE', symObjAddr: 0x1404, symBinAddr: 0xCB64, symSize: 0x2C }
  - { offset: 0x47C3E, size: 0x8, addend: 0x0, symName: '__ZN4pyo311conversions3std3vec83_$LT$impl$u20$pyo3..conversion..ToPyObject$u20$for$u20$alloc..vec..Vec$LT$T$GT$$GT$9to_object17hfe14ed379c019bc8E', symObjAddr: 0x15C, symBinAddr: 0xB8BC, symSize: 0x28 }
  - { offset: 0x47C9F, size: 0x8, addend: 0x0, symName: '__ZN4pyo35types8sequence85_$LT$impl$u20$pyo3..conversion..FromPyObject$u20$for$u20$alloc..vec..Vec$LT$T$GT$$GT$13extract_bound17hc03b2be3e7e45044E', symObjAddr: 0x184, symBinAddr: 0xB8E4, symSize: 0x7C }
  - { offset: 0x47CFE, size: 0x8, addend: 0x0, symName: '__ZN57_$LT$T$u20$as$u20$pyo3..conversion..FromPyObjectBound$GT$20from_py_object_bound17h50cebd69f38da454E', symObjAddr: 0x200, symBinAddr: 0xB960, symSize: 0x34 }
  - { offset: 0x47EDE, size: 0x8, addend: 0x0, symName: '__ZN71_$LT$T$u20$as$u20$pyo3..impl_..extract_argument..PyFunctionArgument$GT$7extract17h461342a83ddb5fc4E', symObjAddr: 0xDA4, symBinAddr: 0xC504, symSize: 0x28 }
  - { offset: 0x48058, size: 0x8, addend: 0x0, symName: '__ZN5alloc3vec12Vec$LT$T$GT$13with_capacity17h29402d0a9bd153e6E', symObjAddr: 0x234, symBinAddr: 0xB994, symSize: 0x44 }
  - { offset: 0x48668, size: 0x8, addend: 0x0, symName: '__ZN5alloc3vec12Vec$LT$T$GT$13with_capacity17h2df6a99b6d278d2fE', symObjAddr: 0x278, symBinAddr: 0xB9D8, symSize: 0x40 }
  - { offset: 0x486E0, size: 0x8, addend: 0x0, symName: '__ZN5alloc3vec12Vec$LT$T$GT$3new17ha6301dab014c59e1E', symObjAddr: 0x2B8, symBinAddr: 0xBA18, symSize: 0x14 }
  - { offset: 0x48868, size: 0x8, addend: 0x0, symName: '__ZN5alloc3vec16Vec$LT$T$C$A$GT$11extend_with17h98fe20dc1c9c0416E', symObjAddr: 0x2CC, symBinAddr: 0xBA2C, symSize: 0x1D8 }
  - { offset: 0x48BEE, size: 0x8, addend: 0x0, symName: '__ZN5alloc3vec16Vec$LT$T$C$A$GT$12as_mut_slice17h72e64d3c913de048E', symObjAddr: 0x4A4, symBinAddr: 0xBC04, symSize: 0x68 }
  - { offset: 0x48D8C, size: 0x8, addend: 0x0, symName: '__ZN5alloc3vec16Vec$LT$T$C$A$GT$13shrink_to_fit17h59a80b5543dceff8E', symObjAddr: 0x50C, symBinAddr: 0xBC6C, symSize: 0x7C }
  - { offset: 0x48F22, size: 0x8, addend: 0x0, symName: '__ZN5alloc3vec16Vec$LT$T$C$A$GT$14extend_trusted17h2f512aacd3b14adbE', symObjAddr: 0x588, symBinAddr: 0xBCE8, symSize: 0x150 }
  - { offset: 0x49198, size: 0x8, addend: 0x0, symName: '__ZN5alloc3vec16Vec$LT$T$C$A$GT$14extend_trusted17h78987dc6731f83d5E', symObjAddr: 0x6D8, symBinAddr: 0xBE38, symSize: 0x150 }
  - { offset: 0x4932D, size: 0x8, addend: 0x0, symName: '__ZN5alloc3vec16Vec$LT$T$C$A$GT$3len17h6c4d656c64c85237E', symObjAddr: 0x89C, symBinAddr: 0xBFFC, symSize: 0x18 }
  - { offset: 0x4936F, size: 0x8, addend: 0x0, symName: '__ZN5alloc3vec16Vec$LT$T$C$A$GT$4push17h3de19e787713dd28E', symObjAddr: 0x8B4, symBinAddr: 0xC014, symSize: 0x30 }
  - { offset: 0x493C0, size: 0x8, addend: 0x0, symName: '__ZN5alloc3vec16Vec$LT$T$C$A$GT$4push17hf646bcd8926a4f53E', symObjAddr: 0x8E4, symBinAddr: 0xC044, symSize: 0x2C }
  - { offset: 0x49411, size: 0x8, addend: 0x0, symName: '__ZN5alloc3vec16Vec$LT$T$C$A$GT$4push17hf84f19ab224fc23eE', symObjAddr: 0x910, symBinAddr: 0xC070, symSize: 0x24 }
  - { offset: 0x49586, size: 0x8, addend: 0x0, symName: '__ZN5alloc3vec16Vec$LT$T$C$A$GT$7reserve17h651191424a124ee5E', symObjAddr: 0x934, symBinAddr: 0xC094, symSize: 0xA8 }
  - { offset: 0x497EA, size: 0x8, addend: 0x0, symName: '__ZN5alloc3vec16Vec$LT$T$C$A$GT$7reserve17habf6ad5946637ce5E', symObjAddr: 0x9DC, symBinAddr: 0xC13C, symSize: 0xA0 }
  - { offset: 0x499F6, size: 0x8, addend: 0x0, symName: '__ZN5alloc3vec16Vec$LT$T$C$A$GT$8as_slice17hf76f08bb70aa1193E', symObjAddr: 0xA7C, symBinAddr: 0xC1DC, symSize: 0x68 }
  - { offset: 0x49BC3, size: 0x8, addend: 0x0, symName: '__ZN5alloc3vec16Vec$LT$T$C$A$GT$8push_mut17h331d954f5dbee660E', symObjAddr: 0xAE4, symBinAddr: 0xC244, symSize: 0xE4 }
  - { offset: 0x49E89, size: 0x8, addend: 0x0, symName: '__ZN5alloc3vec16Vec$LT$T$C$A$GT$8push_mut17hc51716b7c1f9744bE', symObjAddr: 0xBC8, symBinAddr: 0xC328, symSize: 0xE0 }
  - { offset: 0x4A127, size: 0x8, addend: 0x0, symName: '__ZN5alloc3vec16Vec$LT$T$C$A$GT$8push_mut17hf7b8882577ba5d7eE', symObjAddr: 0xCA8, symBinAddr: 0xC408, symSize: 0xD8 }
  - { offset: 0x4AB51, size: 0x8, addend: 0x0, symName: __ZN4core3ptr5write17h49f5c4693265654dE, symObjAddr: 0x0, symBinAddr: 0xCB90, symSize: 0x2C }
  - { offset: 0x4AB68, size: 0x8, addend: 0x0, symName: __ZN4core3ptr5write17h49f5c4693265654dE, symObjAddr: 0x0, symBinAddr: 0xCB90, symSize: 0x2C }
  - { offset: 0x4AEE0, size: 0x8, addend: 0x0, symName: '__ZN4core3f6421_$LT$impl$u20$f64$GT$3max17h0609f177c40d0ff0E', symObjAddr: 0x0, symBinAddr: 0xCBBC, symSize: 0x20 }
  - { offset: 0x4AEFC, size: 0x8, addend: 0x0, symName: '__ZN4core3f6421_$LT$impl$u20$f64$GT$3max17h0609f177c40d0ff0E', symObjAddr: 0x0, symBinAddr: 0xCBBC, symSize: 0x20 }
  - { offset: 0x4AF61, size: 0x8, addend: 0x0, symName: __ZN4core5slice3raw14from_raw_parts17h5df3ca68f263b88dE, symObjAddr: 0x0, symBinAddr: 0xCBDC, symSize: 0x58 }
  - { offset: 0x4B73E, size: 0x8, addend: 0x0, symName: __ZN4core5slice3raw14from_raw_parts17h5df3ca68f263b88dE, symObjAddr: 0x0, symBinAddr: 0xCBDC, symSize: 0x58 }
  - { offset: 0x4B781, size: 0x8, addend: 0x0, symName: __ZN4core5slice3raw14from_raw_parts17ha1a111c93dae80fcE, symObjAddr: 0x58, symBinAddr: 0xCC34, symSize: 0x58 }
  - { offset: 0x4C7D5, size: 0x8, addend: 0x0, symName: __ZN4pyo35impl_10trampoline11module_init17h2e979add1ec9bd47E, symObjAddr: 0x0, symBinAddr: 0xCC8C, symSize: 0x28 }
  - { offset: 0x4DAA5, size: 0x8, addend: 0x0, symName: __ZN4pyo35impl_10trampoline11module_init17h2e979add1ec9bd47E, symObjAddr: 0x0, symBinAddr: 0xCC8C, symSize: 0x28 }
  - { offset: 0x4DAD1, size: 0x8, addend: 0x0, symName: __ZN4pyo35impl_10trampoline22fastcall_with_keywords17hdb7c10f796132c19E, symObjAddr: 0x28, symBinAddr: 0xCCB4, symSize: 0x5C }
  - { offset: 0x4DB35, size: 0x8, addend: 0x0, symName: __ZN4pyo35impl_10trampoline7dealloc17h2786baa9824bf148E, symObjAddr: 0x84, symBinAddr: 0xCD10, symSize: 0x34 }
  - { offset: 0x4E293, size: 0x8, addend: 0x0, symName: '__ZN102_$LT$core..iter..adapters..zip..Zip$LT$A$C$B$GT$$u20$as$u20$core..iter..traits..iterator..Iterator$GT$4next17h6d0b52f79838e4ceE', symObjAddr: 0x0, symBinAddr: 0xCD44, symSize: 0x24 }
  - { offset: 0x4EA7A, size: 0x8, addend: 0x0, symName: '__ZN102_$LT$core..iter..adapters..zip..Zip$LT$A$C$B$GT$$u20$as$u20$core..iter..traits..iterator..Iterator$GT$4next17h6d0b52f79838e4ceE', symObjAddr: 0x0, symBinAddr: 0xCD44, symSize: 0x24 }
  - { offset: 0x4EAB8, size: 0x8, addend: 0x0, symName: '__ZN102_$LT$core..iter..adapters..zip..Zip$LT$A$C$B$GT$$u20$as$u20$core..iter..traits..iterator..Iterator$GT$4next17h9cd1a643fa9aba50E', symObjAddr: 0x24, symBinAddr: 0xCD68, symSize: 0x24 }
  - { offset: 0x4EAFC, size: 0x8, addend: 0x0, symName: '__ZN111_$LT$core..iter..adapters..zip..Zip$LT$A$C$B$GT$$u20$as$u20$core..iter..adapters..zip..ZipImpl$LT$A$C$B$GT$$GT$3new17h081a3196acc0f73cE', symObjAddr: 0x48, symBinAddr: 0xCD8C, symSize: 0x3C }
  - { offset: 0x4EB48, size: 0x8, addend: 0x0, symName: '__ZN111_$LT$core..iter..adapters..zip..Zip$LT$A$C$B$GT$$u20$as$u20$core..iter..adapters..zip..ZipImpl$LT$A$C$B$GT$$GT$4next17h7b603b9d8623fa0bE', symObjAddr: 0x140, symBinAddr: 0xCE84, symSize: 0xE0 }
  - { offset: 0x4ECAF, size: 0x8, addend: 0x0, symName: '__ZN111_$LT$core..iter..adapters..zip..Zip$LT$A$C$B$GT$$u20$as$u20$core..iter..adapters..zip..ZipImpl$LT$A$C$B$GT$$GT$3new17h8d9488e5e58dc790E', symObjAddr: 0x84, symBinAddr: 0xCDC8, symSize: 0xBC }
  - { offset: 0x4ED42, size: 0x8, addend: 0x0, symName: '__ZN111_$LT$core..iter..adapters..zip..Zip$LT$A$C$B$GT$$u20$as$u20$core..iter..adapters..zip..ZipImpl$LT$A$C$B$GT$$GT$4next17h96be218511af71b2E', symObjAddr: 0x220, symBinAddr: 0xCF64, symSize: 0xB0 }
  - { offset: 0x4EEFA, size: 0x8, addend: 0x0, symName: __ZN4core4iter6traits8iterator8Iterator8try_fold17h23b03a53f5f52940E, symObjAddr: 0x2D0, symBinAddr: 0xD014, symSize: 0x1B8 }
  - { offset: 0x4EFB0, size: 0x8, addend: 0x0, symName: __ZN4core4iter6traits8iterator8Iterator8try_fold17h911f9223c9a53f3aE, symObjAddr: 0x488, symBinAddr: 0xD1CC, symSize: 0x1B8 }
  - { offset: 0x4F072, size: 0x8, addend: 0x0, symName: '__ZN63_$LT$I$u20$as$u20$core..iter..traits..collect..IntoIterator$GT$9into_iter17h728c027c60d9a077E', symObjAddr: 0x640, symBinAddr: 0xD384, symSize: 0x30 }
  - { offset: 0x4F0AA, size: 0x8, addend: 0x0, symName: '__ZN63_$LT$I$u20$as$u20$core..iter..traits..collect..IntoIterator$GT$9into_iter17hb10f987441536d61E', symObjAddr: 0x670, symBinAddr: 0xD3B4, symSize: 0x30 }
  - { offset: 0x4F0E2, size: 0x8, addend: 0x0, symName: '__ZN63_$LT$I$u20$as$u20$core..iter..traits..collect..IntoIterator$GT$9into_iter17hf6587b01a7236437E', symObjAddr: 0x6A0, symBinAddr: 0xD3E4, symSize: 0x30 }
  - { offset: 0x507BB, size: 0x8, addend: 0x0, symName: '__ZN87_$LT$$BP$mut$u20$pyo3_ffi..object..PyObject$u20$as$u20$pyo3..ffi_ptr_ext..FfiPtrExt$GT$12assume_owned17h6238d08c7fc7b77bE', symObjAddr: 0x0, symBinAddr: 0xD414, symSize: 0x24 }
  - { offset: 0x5080E, size: 0x8, addend: 0x0, symName: __ZN8pyo3_ffi6object7Py_None17hafe3486dc3fda53dE, symObjAddr: 0x24, symBinAddr: 0xD438, symSize: 0xC }
  - { offset: 0x5193B, size: 0x8, addend: 0x0, symName: '__ZN87_$LT$$BP$mut$u20$pyo3_ffi..object..PyObject$u20$as$u20$pyo3..ffi_ptr_ext..FfiPtrExt$GT$12assume_owned17h6238d08c7fc7b77bE', symObjAddr: 0x0, symBinAddr: 0xD414, symSize: 0x24 }
  - { offset: 0x51F42, size: 0x8, addend: 0x0, symName: '__ZN106_$LT$pyo3..impl_..extract_argument..NoVarargs$u20$as$u20$pyo3..impl_..extract_argument..VarargsHandler$GT$23handle_varargs_fastcall17h4ad7142f6f582f31E', symObjAddr: 0x0, symBinAddr: 0xD444, symSize: 0xA8 }
  - { offset: 0x53616, size: 0x8, addend: 0x0, symName: '__ZN106_$LT$pyo3..impl_..extract_argument..NoVarargs$u20$as$u20$pyo3..impl_..extract_argument..VarargsHandler$GT$23handle_varargs_fastcall17h4ad7142f6f582f31E', symObjAddr: 0x0, symBinAddr: 0xD444, symSize: 0xA8 }
  - { offset: 0x5368A, size: 0x8, addend: 0x0, symName: '__ZN114_$LT$pyo3..impl_..extract_argument..NoVarkeywords$u20$as$u20$pyo3..impl_..extract_argument..VarkeywordsHandler$GT$17handle_varkeyword17h0aeadc38504a933cE', symObjAddr: 0xA8, symBinAddr: 0xD4EC, symSize: 0x60 }
  - { offset: 0x537C9, size: 0x8, addend: 0x0, symName: __ZN4pyo35impl_16extract_argument24unwrap_required_argument17h4e3989a959216b2bE, symObjAddr: 0x4A4, symBinAddr: 0xD8E8, symSize: 0x64 }
  - { offset: 0x53AA0, size: 0x8, addend: 0x0, symName: __ZN4pyo35impl_16extract_argument19FunctionDescription36find_keyword_parameter_in_positional17hbd0f3742b094c152E, symObjAddr: 0x108, symBinAddr: 0xD54C, symSize: 0x5C }
  - { offset: 0x53AD2, size: 0x8, addend: 0x0, symName: __ZN4pyo35impl_16extract_argument19FunctionDescription38find_keyword_parameter_in_keyword_only17hf39900d2ab2d1899E, symObjAddr: 0x164, symBinAddr: 0xD5A8, symSize: 0x5C }
  - { offset: 0x5400F, size: 0x8, addend: 0x0, symName: __ZN4pyo35impl_16extract_argument19FunctionDescription44ensure_no_missing_required_keyword_arguments17h65d807fe9e0d9ccfE, symObjAddr: 0x1C0, symBinAddr: 0xD604, symSize: 0x154 }
  - { offset: 0x540DB, size: 0x8, addend: 0x0, symName: __ZN4pyo35impl_16extract_argument19FunctionDescription47ensure_no_missing_required_positional_arguments17h0d9e1b6299f36518E, symObjAddr: 0x314, symBinAddr: 0xD758, symSize: 0x190 }
  - { offset: 0x54263, size: 0x8, addend: 0x0, symName: __ZN4core4hint16assert_unchecked18precondition_check17h174c68e708c770e7E, symObjAddr: 0x0, symBinAddr: 0xD94C, symSize: 0xA4 }
  - { offset: 0x54585, size: 0x8, addend: 0x0, symName: __ZN4core4hint16assert_unchecked18precondition_check17h174c68e708c770e7E, symObjAddr: 0x0, symBinAddr: 0xD94C, symSize: 0xA4 }
  - { offset: 0x5478C, size: 0x8, addend: 0x0, symName: '__ZN50_$LT$T$u20$as$u20$core..convert..Into$LT$U$GT$$GT$4into17h85c37fba3a81d978E', symObjAddr: 0x0, symBinAddr: 0xD9F0, symSize: 0x18 }
  - { offset: 0x54820, size: 0x8, addend: 0x0, symName: '__ZN50_$LT$T$u20$as$u20$core..convert..Into$LT$U$GT$$GT$4into17h85c37fba3a81d978E', symObjAddr: 0x0, symBinAddr: 0xD9F0, symSize: 0x18 }
  - { offset: 0x5487E, size: 0x8, addend: 0x0, symName: '__ZN50_$LT$T$u20$as$u20$core..convert..Into$LT$U$GT$$GT$4into17hf98cf4f904fbc3cfE', symObjAddr: 0x18, symBinAddr: 0xDA08, symSize: 0x30 }
  - { offset: 0x54C46, size: 0x8, addend: 0x0, symName: '__ZN95_$LT$ndarray..shape_builder..Shape$LT$D$GT$$u20$as$u20$ndarray..shape_builder..ShapeBuilder$GT$7strides17h0d0a5b77b285bd28E', symObjAddr: 0x3DC, symBinAddr: 0xDDCC, symSize: 0x44 }
  - { offset: 0x54C89, size: 0x8, addend: 0x0, symName: '__ZN95_$LT$ndarray..shape_builder..Shape$LT$D$GT$$u20$as$u20$ndarray..shape_builder..ShapeBuilder$GT$7strides17hfb9cdd65a27d86e3E', symObjAddr: 0x420, symBinAddr: 0xDE10, symSize: 0x40 }
  - { offset: 0x54E33, size: 0x8, addend: 0x0, symName: '__ZN7ndarray13shape_builder16Strides$LT$D$GT$15strides_for_dim17h715daf9bb69d9f1aE', symObjAddr: 0x48, symBinAddr: 0xDA38, symSize: 0x1D0 }
  - { offset: 0x54F05, size: 0x8, addend: 0x0, symName: '__ZN7ndarray13shape_builder16Strides$LT$D$GT$15strides_for_dim17habb57e75c0050a76E', symObjAddr: 0x218, symBinAddr: 0xDC08, symSize: 0x1C4 }
  - { offset: 0x550C1, size: 0x8, addend: 0x0, symName: _PyInit_pysynthacs_core, symObjAddr: 0x0, symBinAddr: 0xDE50, symSize: 0x34 }
  - { offset: 0x550E5, size: 0x8, addend: 0x0, symName: __ZN15pysynthacs_core15pysynthacs_core9_PYO3_DEF17h2a09b292671d6839E, symObjAddr: 0x58, symBinAddr: 0xE03F0, symSize: 0x0 }
  - { offset: 0x550F2, size: 0x8, addend: 0x0, symName: _PyInit_pysynthacs_core, symObjAddr: 0x0, symBinAddr: 0xDE50, symSize: 0x34 }
  - { offset: 0x56D49, size: 0x8, addend: 0x0, symName: '__ZN7ndarray11arraytraits94_$LT$impl$u20$core..ops..index..Index$LT$I$GT$$u20$for$u20$ndarray..ArrayBase$LT$S$C$D$GT$$GT$5index28_$u7b$$u7b$closure$u7d$$u7d$17h588b507297a1bb9eE', symObjAddr: 0x0, symBinAddr: 0xDE84, symSize: 0x10 }
  - { offset: 0x56D6A, size: 0x8, addend: 0x0, symName: '__ZN7ndarray11arraytraits94_$LT$impl$u20$core..ops..index..Index$LT$I$GT$$u20$for$u20$ndarray..ArrayBase$LT$S$C$D$GT$$GT$5index28_$u7b$$u7b$closure$u7d$$u7d$17h588b507297a1bb9eE', symObjAddr: 0x0, symBinAddr: 0xDE84, symSize: 0x10 }
  - { offset: 0x56DAD, size: 0x8, addend: 0x0, symName: '__ZN7ndarray11arraytraits94_$LT$impl$u20$core..ops..index..Index$LT$I$GT$$u20$for$u20$ndarray..ArrayBase$LT$S$C$D$GT$$GT$5index28_$u7b$$u7b$closure$u7d$$u7d$17had37cbda80ccdbb1E', symObjAddr: 0x10, symBinAddr: 0xDE94, symSize: 0x10 }
  - { offset: 0x56EE7, size: 0x8, addend: 0x0, symName: __ZN4rand3rng3Rng3gen17h231a2ecfd3efb1a5E, symObjAddr: 0x0, symBinAddr: 0xDEA4, symSize: 0x30 }
  - { offset: 0x56F03, size: 0x8, addend: 0x0, symName: __ZN4rand3rng3Rng3gen17h231a2ecfd3efb1a5E, symObjAddr: 0x0, symBinAddr: 0xDEA4, symSize: 0x30 }
  - { offset: 0x56F41, size: 0x8, addend: 0x0, symName: __ZN4rand3rng3Rng3gen17h45f1a229e70a31a4E, symObjAddr: 0x30, symBinAddr: 0xDED4, symSize: 0x30 }
  - { offset: 0x56F7F, size: 0x8, addend: 0x0, symName: __ZN4rand3rng3Rng3gen17ha60b8153958dd43dE, symObjAddr: 0x60, symBinAddr: 0xDF04, symSize: 0x30 }
  - { offset: 0x56FBD, size: 0x8, addend: 0x0, symName: __ZN4rand3rng3Rng3gen17he39a6b06fc04bf8aE, symObjAddr: 0x90, symBinAddr: 0xDF34, symSize: 0x30 }
  - { offset: 0x56FFB, size: 0x8, addend: 0x0, symName: __ZN4rand3rng3Rng9gen_range17h678df337b1797f46E, symObjAddr: 0xC0, symBinAddr: 0xDF64, symSize: 0xC0 }
  - { offset: 0x57050, size: 0x8, addend: 0x0, symName: __ZN4rand3rng3Rng9gen_range17h8c57ead15736ad3eE, symObjAddr: 0x180, symBinAddr: 0xE024, symSize: 0xC0 }
  - { offset: 0x570B2, size: 0x8, addend: 0x0, symName: __ZN9rand_core11SeedableRng13seed_from_u6417h4fb6979961c6583eE, symObjAddr: 0x240, symBinAddr: 0xE0E4, symSize: 0x25C }
  - { offset: 0x57326, size: 0x8, addend: 0x0, symName: '__ZN103_$LT$alloc..vec..into_iter..IntoIter$LT$T$C$A$GT$$u20$as$u20$core..iter..traits..iterator..Iterator$GT$4next17h781c93cc635c4307E', symObjAddr: 0x0, symBinAddr: 0xE340, symSize: 0xB0 }
  - { offset: 0x5781C, size: 0x8, addend: 0x0, symName: '__ZN103_$LT$alloc..vec..into_iter..IntoIter$LT$T$C$A$GT$$u20$as$u20$core..iter..traits..iterator..Iterator$GT$4next17h781c93cc635c4307E', symObjAddr: 0x0, symBinAddr: 0xE340, symSize: 0xB0 }
  - { offset: 0x57AFB, size: 0x8, addend: 0x0, symName: '__ZN5alloc3vec9into_iter21IntoIter$LT$T$C$A$GT$16as_raw_mut_slice17h73768838314951a1E', symObjAddr: 0xB0, symBinAddr: 0xE3F0, symSize: 0xC0 }
  - { offset: 0x57C68, size: 0x8, addend: 0x0, symName: '__ZN51_$LT$i32$u20$as$u20$alloc..vec..is_zero..IsZero$GT$7is_zero17hdc25e5c89a77a26fE', symObjAddr: 0x0, symBinAddr: 0xE4B0, symSize: 0x20 }
  - { offset: 0x57C9F, size: 0x8, addend: 0x0, symName: '__ZN51_$LT$i32$u20$as$u20$alloc..vec..is_zero..IsZero$GT$7is_zero17hdc25e5c89a77a26fE', symObjAddr: 0x0, symBinAddr: 0xE4B0, symSize: 0x20 }
  - { offset: 0x57D1C, size: 0x8, addend: 0x0, symName: '__ZN4core3num21_$LT$impl$u20$i32$GT$3abs17h5721b96dde3c6f7eE', symObjAddr: 0x0, symBinAddr: 0xE4D0, symSize: 0x6C }
  - { offset: 0x57D38, size: 0x8, addend: 0x0, symName: '__ZN4core3num21_$LT$impl$u20$i32$GT$3abs17h5721b96dde3c6f7eE', symObjAddr: 0x0, symBinAddr: 0xE4D0, symSize: 0x6C }
  - { offset: 0x57DB9, size: 0x8, addend: 0x0, symName: '__ZN4core3num23_$LT$impl$u20$isize$GT$12unsigned_abs17h28abcb053c46f239E', symObjAddr: 0x6C, symBinAddr: 0xE53C, symSize: 0x40 }
  - { offset: 0x57E3E, size: 0x8, addend: 0x0, symName: '__ZN4core3num23_$LT$impl$u20$usize$GT$11checked_add17h4ff4ee248ffe86dfE', symObjAddr: 0xAC, symBinAddr: 0xE57C, symSize: 0x7C }
  - { offset: 0x57EC3, size: 0x8, addend: 0x0, symName: '__ZN4core3num23_$LT$impl$u20$usize$GT$11checked_mul17h3ae02cb38f9c42d8E', symObjAddr: 0x128, symBinAddr: 0xE5F8, symSize: 0x74 }
  - { offset: 0x57FA1, size: 0x8, addend: 0x0, symName: '__ZN4core3num23_$LT$impl$u20$usize$GT$13unchecked_add18precondition_check17h8ad4d103cff56888E', symObjAddr: 0x19C, symBinAddr: 0xE66C, symSize: 0xB0 }
  - { offset: 0x585B3, size: 0x8, addend: 0x0, symName: '__ZN50_$LT$T$u20$as$u20$core..convert..Into$LT$U$GT$$GT$4into17h9558cbcd9df8cf5cE', symObjAddr: 0x0, symBinAddr: 0xE71C, symSize: 0x18 }
  - { offset: 0x58DBD, size: 0x8, addend: 0x0, symName: '__ZN50_$LT$T$u20$as$u20$core..convert..Into$LT$U$GT$$GT$4into17h9558cbcd9df8cf5cE', symObjAddr: 0x0, symBinAddr: 0xE71C, symSize: 0x18 }
  - { offset: 0x58E1B, size: 0x8, addend: 0x0, symName: '__ZN50_$LT$T$u20$as$u20$core..convert..Into$LT$U$GT$$GT$4into17ha39c582439c7f3fbE', symObjAddr: 0x18, symBinAddr: 0xE734, symSize: 0x14 }
  - { offset: 0x5A18B, size: 0x8, addend: 0x0, symName: '__ZN104_$LT$core..iter..adapters..copied..Copied$LT$I$GT$$u20$as$u20$core..iter..traits..iterator..Iterator$GT$4next17hfdcde3a40f053f14E', symObjAddr: 0x0, symBinAddr: 0xE748, symSize: 0x5C }
  - { offset: 0x5B3DC, size: 0x8, addend: 0x0, symName: '__ZN104_$LT$core..iter..adapters..copied..Copied$LT$I$GT$$u20$as$u20$core..iter..traits..iterator..Iterator$GT$4next17hfdcde3a40f053f14E', symObjAddr: 0x0, symBinAddr: 0xE748, symSize: 0x5C }
  - { offset: 0x5B481, size: 0x8, addend: 0x0, symName: '__ZN63_$LT$I$u20$as$u20$core..iter..traits..collect..IntoIterator$GT$9into_iter17h4ffc68b75e5fd583E', symObjAddr: 0x5C, symBinAddr: 0xE7A4, symSize: 0x1C }
  - { offset: 0x5BB3D, size: 0x8, addend: 0x0, symName: '__ZN66_$LT$f64$u20$as$u20$rand..distributions..utils..FloatSIMDUtils$GT$13cast_from_int17h4fc21f5f36fb79c5E', symObjAddr: 0x0, symBinAddr: 0xE7C0, symSize: 0x14 }
  - { offset: 0x5BB5E, size: 0x8, addend: 0x0, symName: '__ZN66_$LT$f64$u20$as$u20$rand..distributions..utils..FloatSIMDUtils$GT$13cast_from_int17h4fc21f5f36fb79c5E', symObjAddr: 0x0, symBinAddr: 0xE7C0, symSize: 0x14 }
  - { offset: 0x5BBBC, size: 0x8, addend: 0x0, symName: '__ZN4core5slice29_$LT$impl$u20$$u5b$T$u5d$$GT$18split_at_unchecked18precondition_check17h97149067076939d3E', symObjAddr: 0x0, symBinAddr: 0xE7D4, symSize: 0xAC }
  - { offset: 0x5BEE3, size: 0x8, addend: 0x0, symName: '__ZN4core5slice29_$LT$impl$u20$$u5b$T$u5d$$GT$18split_at_unchecked18precondition_check17h97149067076939d3E', symObjAddr: 0x0, symBinAddr: 0xE7D4, symSize: 0xAC }
  - { offset: 0x5C0F2, size: 0x8, addend: 0x0, symName: '__ZN116_$LT$rand..distributions..uniform..UniformInt$LT$u32$GT$$u20$as$u20$rand..distributions..uniform..UniformSampler$GT$13sample_single17h36b6ac77d6fd9027E', symObjAddr: 0x0, symBinAddr: 0xE880, symSize: 0xF0 }
  - { offset: 0x5C167, size: 0x8, addend: 0x0, symName: '__ZN116_$LT$rand..distributions..uniform..UniformInt$LT$u32$GT$$u20$as$u20$rand..distributions..uniform..UniformSampler$GT$13sample_single17h36b6ac77d6fd9027E', symObjAddr: 0x0, symBinAddr: 0xE880, symSize: 0xF0 }
  - { offset: 0x5C246, size: 0x8, addend: 0x0, symName: '__ZN116_$LT$rand..distributions..uniform..UniformInt$LT$u32$GT$$u20$as$u20$rand..distributions..uniform..UniformSampler$GT$23sample_single_inclusive17h228e74fbc23ddcaaE', symObjAddr: 0xF0, symBinAddr: 0xE970, symSize: 0x284 }
  - { offset: 0x5C4A1, size: 0x8, addend: 0x0, symName: '__ZN118_$LT$rand..distributions..uniform..UniformInt$LT$usize$GT$$u20$as$u20$rand..distributions..uniform..UniformSampler$GT$13sample_single17h24f9c59a1846eee6E', symObjAddr: 0x374, symBinAddr: 0xEBF4, symSize: 0xF0 }
  - { offset: 0x5C580, size: 0x8, addend: 0x0, symName: '__ZN118_$LT$rand..distributions..uniform..UniformInt$LT$usize$GT$$u20$as$u20$rand..distributions..uniform..UniformSampler$GT$23sample_single_inclusive17h869a7c57839b934aE', symObjAddr: 0x464, symBinAddr: 0xECE4, symSize: 0x28C }
  - { offset: 0x5CA8C, size: 0x8, addend: 0x0, symName: '__ZN4pyo36pycell14PyRef$LT$T$GT$10try_borrow17hfa3da37a9765d010E', symObjAddr: 0x0, symBinAddr: 0xEF70, symSize: 0x4C }
  - { offset: 0x5DDB7, size: 0x8, addend: 0x0, symName: '__ZN4pyo36pycell14PyRef$LT$T$GT$10try_borrow28_$u7b$$u7b$closure$u7d$$u7d$17h4a02e3a92e551b92E', symObjAddr: 0x4C, symBinAddr: 0xEFBC, symSize: 0x24 }
  - { offset: 0x5E581, size: 0x8, addend: 0x0, symName: '__ZN4pyo36pycell14PyRef$LT$T$GT$10try_borrow17hfa3da37a9765d010E', symObjAddr: 0x0, symBinAddr: 0xEF70, symSize: 0x4C }
  - { offset: 0x5E5F6, size: 0x8, addend: 0x0, symName: __ZN3std5panic12catch_unwind17h4eafb0b9874f1363E, symObjAddr: 0x0, symBinAddr: 0xEFE0, symSize: 0xA8 }
  - { offset: 0x5FB00, size: 0x8, addend: 0x0, symName: __ZN3std5panic12catch_unwind17h4eafb0b9874f1363E, symObjAddr: 0x0, symBinAddr: 0xEFE0, symSize: 0xA8 }
  - { offset: 0x5FB92, size: 0x8, addend: 0x0, symName: __ZN3std5panic12catch_unwind17hc5279455de20d72fE, symObjAddr: 0xA8, symBinAddr: 0xF088, symSize: 0xCC }
  - { offset: 0x6049C, size: 0x8, addend: 0x0, symName: __ZN4pyo36marker6Python19assume_gil_acquired17hcc2f5664d342f087E, symObjAddr: 0x0, symBinAddr: 0xF1A8, symSize: 0x4 }
  - { offset: 0x605DE, size: 0x8, addend: 0x0, symName: __ZN4pyo36marker6Python19assume_gil_acquired17hcc2f5664d342f087E, symObjAddr: 0x0, symBinAddr: 0xF1A8, symSize: 0x4 }
  - { offset: 0x6060F, size: 0x8, addend: 0x0, symName: '__ZN49_$LT$usize$u20$as$u20$core..iter..range..Step$GT$13steps_between17h0797941822b43551E', symObjAddr: 0x0, symBinAddr: 0xF1AC, symSize: 0x8C }
  - { offset: 0x60630, size: 0x8, addend: 0x0, symName: '__ZN49_$LT$usize$u20$as$u20$core..iter..range..Step$GT$13steps_between17h0797941822b43551E', symObjAddr: 0x0, symBinAddr: 0xF1AC, symSize: 0x8C }
  - { offset: 0x6074E, size: 0x8, addend: 0x0, symName: '__ZN4core5slice29_$LT$impl$u20$$u5b$T$u5d$$GT$7get_mut17h2533a162a6a434acE', symObjAddr: 0x0, symBinAddr: 0xF238, symSize: 0x44 }
  - { offset: 0x6076A, size: 0x8, addend: 0x0, symName: '__ZN4core5slice29_$LT$impl$u20$$u5b$T$u5d$$GT$7get_mut17h2533a162a6a434acE', symObjAddr: 0x0, symBinAddr: 0xF238, symSize: 0x44 }
  - { offset: 0x607B9, size: 0x8, addend: 0x0, symName: '__ZN4core5slice29_$LT$impl$u20$$u5b$T$u5d$$GT$8iter_mut17h2fa9af14e1a8dc8cE', symObjAddr: 0x44, symBinAddr: 0xF27C, symSize: 0x28 }
  - { offset: 0x60952, size: 0x8, addend: 0x0, symName: __ZN4core4iter6traits8iterator8Iterator3map17hc89aa4ebbc02d319E, symObjAddr: 0x0, symBinAddr: 0xF2A4, symSize: 0x30 }
  - { offset: 0x61297, size: 0x8, addend: 0x0, symName: __ZN4core4iter8adapters3zip27TrustedRandomAccessNoCoerce4size17habc012ad606a3defE, symObjAddr: 0x600, symBinAddr: 0xF8A4, symSize: 0x2C }
  - { offset: 0x61400, size: 0x8, addend: 0x0, symName: __ZN4core4iter6traits8iterator8Iterator3map17hc89aa4ebbc02d319E, symObjAddr: 0x0, symBinAddr: 0xF2A4, symSize: 0x30 }
  - { offset: 0x6146D, size: 0x8, addend: 0x0, symName: __ZN4core4iter6traits8iterator8Iterator3map17hfb46800d923b5586E, symObjAddr: 0x30, symBinAddr: 0xF2D4, symSize: 0x1C }
  - { offset: 0x614C5, size: 0x8, addend: 0x0, symName: __ZN4core4iter6traits8iterator8Iterator3zip17hc738e46fbd9ccd21E, symObjAddr: 0x4C, symBinAddr: 0xF2F0, symSize: 0xC8 }
  - { offset: 0x6153B, size: 0x8, addend: 0x0, symName: __ZN4core4iter6traits8iterator8Iterator6copied17hf124d8f71b87f6ceE, symObjAddr: 0x114, symBinAddr: 0xF3B8, symSize: 0x1C }
  - { offset: 0x6157B, size: 0x8, addend: 0x0, symName: __ZN4core4iter6traits8iterator8Iterator6filter17h13931c1e49a06b08E, symObjAddr: 0x130, symBinAddr: 0xF3D4, symSize: 0x1C }
  - { offset: 0x615CA, size: 0x8, addend: 0x0, symName: __ZN4core4iter6traits8iterator8Iterator6filter17hca191e16764223d3E, symObjAddr: 0x14C, symBinAddr: 0xF3F0, symSize: 0x1C }
  - { offset: 0x61619, size: 0x8, addend: 0x0, symName: __ZN4core4iter6traits8iterator8Iterator7product17h877bab6f463cddb4E, symObjAddr: 0x168, symBinAddr: 0xF40C, symSize: 0x2C }
  - { offset: 0x61659, size: 0x8, addend: 0x0, symName: __ZN4core4iter6traits8iterator8Iterator8try_fold17h3c23fb0675e7502bE, symObjAddr: 0x194, symBinAddr: 0xF438, symSize: 0x178 }
  - { offset: 0x6170D, size: 0x8, addend: 0x0, symName: __ZN4core4iter6traits8iterator8Iterator8try_fold17hea5ccbbb3a1e9a15E, symObjAddr: 0x30C, symBinAddr: 0xF5B0, symSize: 0x178 }
  - { offset: 0x617C1, size: 0x8, addend: 0x0, symName: __ZN4core4iter6traits8iterator8Iterator8try_fold17hf1a1c42239cd3debE, symObjAddr: 0x484, symBinAddr: 0xF728, symSize: 0x154 }
  - { offset: 0x61875, size: 0x8, addend: 0x0, symName: __ZN4core4iter6traits8iterator8Iterator9enumerate17hbe786e6d316245c6E, symObjAddr: 0x5D8, symBinAddr: 0xF87C, symSize: 0x28 }
  - { offset: 0x618FF, size: 0x8, addend: 0x0, symName: '__ZN72_$LT$$RF$mut$u20$I$u20$as$u20$core..iter..traits..iterator..Iterator$GT$4next17h5bf88d6b27fa216aE', symObjAddr: 0x740, symBinAddr: 0xF9E4, symSize: 0x28 }
  - { offset: 0x61942, size: 0x8, addend: 0x0, symName: '__ZN63_$LT$I$u20$as$u20$core..iter..traits..collect..IntoIterator$GT$9into_iter17h0d7d4084fc2b132dE', symObjAddr: 0x72C, symBinAddr: 0xF9D0, symSize: 0x14 }
  - { offset: 0x61B87, size: 0x8, addend: 0x0, symName: '__ZN91_$LT$core..slice..iter..Iter$LT$T$GT$$u20$as$u20$core..iter..traits..iterator..Iterator$GT$3all17heefdfc104b16fe3cE', symObjAddr: 0x768, symBinAddr: 0xFA0C, symSize: 0xE0 }
  - { offset: 0x61C60, size: 0x8, addend: 0x0, symName: '__ZN91_$LT$core..slice..iter..Iter$LT$T$GT$$u20$as$u20$core..iter..traits..iterator..Iterator$GT$4fold17h055228afdbd615f5E', symObjAddr: 0x848, symBinAddr: 0xFAEC, symSize: 0x1A4 }
  - { offset: 0x61D92, size: 0x8, addend: 0x0, symName: '__ZN91_$LT$core..slice..iter..Iter$LT$T$GT$$u20$as$u20$core..iter..traits..iterator..Iterator$GT$4fold17h67082d81f65bd949E', symObjAddr: 0x9EC, symBinAddr: 0xFC90, symSize: 0x1A0 }
  - { offset: 0x61EC0, size: 0x8, addend: 0x0, symName: '__ZN91_$LT$core..slice..iter..Iter$LT$T$GT$$u20$as$u20$core..iter..traits..iterator..Iterator$GT$4next17h02c2627a136ab3f1E', symObjAddr: 0xB8C, symBinAddr: 0xFE30, symSize: 0x84 }
  - { offset: 0x61F76, size: 0x8, addend: 0x0, symName: '__ZN91_$LT$core..slice..iter..Iter$LT$T$GT$$u20$as$u20$core..iter..traits..iterator..Iterator$GT$4next17h0a92cc7057332049E', symObjAddr: 0xC10, symBinAddr: 0xFEB4, symSize: 0x84 }
  - { offset: 0x6202C, size: 0x8, addend: 0x0, symName: '__ZN91_$LT$core..slice..iter..Iter$LT$T$GT$$u20$as$u20$core..iter..traits..iterator..Iterator$GT$4next17h3be463e5ae5cdbdaE', symObjAddr: 0xC94, symBinAddr: 0xFF38, symSize: 0x84 }
  - { offset: 0x62131, size: 0x8, addend: 0x0, symName: '__ZN91_$LT$core..slice..iter..Iter$LT$T$GT$$u20$as$u20$core..iter..traits..iterator..Iterator$GT$8position17h16b77c403582e309E', symObjAddr: 0xD18, symBinAddr: 0xFFBC, symSize: 0x1BC }
  - { offset: 0x622B6, size: 0x8, addend: 0x0, symName: '__ZN91_$LT$core..slice..iter..Iter$LT$T$GT$$u20$as$u20$core..iter..traits..iterator..Iterator$GT$8position17hb9404b440db430e9E', symObjAddr: 0xED4, symBinAddr: 0x10178, symSize: 0x1BC }
  - { offset: 0x623EC, size: 0x8, addend: 0x0, symName: '__ZN91_$LT$core..slice..iter..Iter$LT$T$GT$$u20$as$u20$core..iter..traits..iterator..Iterator$GT$9size_hint17hd229252c926c0f56E', symObjAddr: 0x1090, symBinAddr: 0x10334, symSize: 0x60 }
  - { offset: 0x624CD, size: 0x8, addend: 0x0, symName: '__ZN94_$LT$core..slice..iter..IterMut$LT$T$GT$$u20$as$u20$core..iter..traits..iterator..Iterator$GT$24__iterator_get_unchecked17hbefda7926928f798E', symObjAddr: 0x10F0, symBinAddr: 0x10394, symSize: 0x20 }
  - { offset: 0x62528, size: 0x8, addend: 0x0, symName: '__ZN94_$LT$core..slice..iter..IterMut$LT$T$GT$$u20$as$u20$core..iter..traits..iterator..Iterator$GT$4next17hadf69c8cae7a3389E', symObjAddr: 0x1110, symBinAddr: 0x103B4, symSize: 0x84 }
  - { offset: 0x625DE, size: 0x8, addend: 0x0, symName: '__ZN94_$LT$core..slice..iter..IterMut$LT$T$GT$$u20$as$u20$core..iter..traits..iterator..Iterator$GT$9size_hint17hc98af629dc7771b0E', symObjAddr: 0x1194, symBinAddr: 0x10438, symSize: 0x60 }
  - { offset: 0x643E9, size: 0x8, addend: 0x0, symName: '__ZN4core5slice4iter13Iter$LT$T$GT$3new17h3691a7e4d738dce8E', symObjAddr: 0x62C, symBinAddr: 0xF8D0, symSize: 0x50 }
  - { offset: 0x64599, size: 0x8, addend: 0x0, symName: '__ZN4core5slice4iter13Iter$LT$T$GT$3new17he05d4a9b5873b801E', symObjAddr: 0x67C, symBinAddr: 0xF920, symSize: 0x50 }
  - { offset: 0x6473C, size: 0x8, addend: 0x0, symName: '__ZN4core5slice4iter16IterMut$LT$T$GT$3new17ha06a5d0d4d8a7f1cE', symObjAddr: 0x6CC, symBinAddr: 0xF970, symSize: 0x50 }
  - { offset: 0x6488F, size: 0x8, addend: 0x0, symName: '__ZN4core5slice4iter23ChunksExactMut$LT$T$GT$14into_remainder17h4287426863b54cd9E', symObjAddr: 0x71C, symBinAddr: 0xF9C0, symSize: 0x10 }
  - { offset: 0x64CE1, size: 0x8, addend: 0x0, symName: '__ZN42_$LT$$RF$T$u20$as$u20$core..fmt..Debug$GT$3fmt17haf686a861975a256E', symObjAddr: 0x0, symBinAddr: 0x10498, symSize: 0x3C }
  - { offset: 0x64CFD, size: 0x8, addend: 0x0, symName: '__ZN42_$LT$$RF$T$u20$as$u20$core..fmt..Debug$GT$3fmt17haf686a861975a256E', symObjAddr: 0x0, symBinAddr: 0x10498, symSize: 0x3C }
  - { offset: 0x64D49, size: 0x8, addend: 0x0, symName: '__ZN48_$LT$$u5b$T$u5d$$u20$as$u20$core..fmt..Debug$GT$3fmt17hd5c545a039d0920bE', symObjAddr: 0x3C, symBinAddr: 0x104D4, symSize: 0x88 }
  - { offset: 0x652BF, size: 0x8, addend: 0x0, symName: '__ZN134_$LT$pysynthacs_core..AnnealingResult$u20$as$u20$pyo3..conversion..IntoPy$LT$pyo3..instance..Py$LT$pyo3..types..any..PyAny$GT$$GT$$GT$7into_py17h5e7373fb6580be93E', symObjAddr: 0x0, symBinAddr: 0x1055C, symSize: 0xA0 }
  - { offset: 0x68069, size: 0x8, addend: 0x0, symName: '__ZN86_$LT$pysynthacs_core..AnnealingResult$u20$as$u20$pyo3..impl_..pyclass..PyClassImpl$GT$10items_iter15INTRINSIC_ITEMS17h34eae58e3fc0ec47E', symObjAddr: 0x3108, symBinAddr: 0xD9340, symSize: 0x0 }
  - { offset: 0x68080, size: 0x8, addend: 0x0, symName: '__ZN227_$LT$$LT$pysynthacs_core..AnnealingResult$u20$as$u20$pyo3..impl_..pyclass..PyClassImpl$GT$..items_iter..INTRINSIC_ITEMS..Offset$u20$as$u20$pyo3..impl_..pyclass..OffsetCalculator$LT$pysynthacs_core..AnnealingResult$C$i32$GT$$GT$6offset17h57a74b3e0442981eE', symObjAddr: 0x2328, symBinAddr: 0x12884, symSize: 0x40 }
  - { offset: 0x680A3, size: 0x8, addend: 0x0, symName: '__ZN229_$LT$$LT$pysynthacs_core..AnnealingResult$u20$as$u20$pyo3..impl_..pyclass..PyClassImpl$GT$..items_iter..INTRINSIC_ITEMS..Offset$u20$as$u20$pyo3..impl_..pyclass..OffsetCalculator$LT$pysynthacs_core..AnnealingResult$C$usize$GT$$GT$6offset17hae08c1131ff313a0E', symObjAddr: 0x2368, symBinAddr: 0x128C4, symSize: 0x40 }
  - { offset: 0x680C6, size: 0x8, addend: 0x0, symName: '__ZN252_$LT$$LT$pysynthacs_core..AnnealingResult$u20$as$u20$pyo3..impl_..pyclass..PyClassImpl$GT$..items_iter..INTRINSIC_ITEMS..Offset$u20$as$u20$pyo3..impl_..pyclass..OffsetCalculator$LT$pysynthacs_core..AnnealingResult$C$alloc..vec..Vec$LT$usize$GT$$GT$$GT$6offset17h63b8c1be8979bc6cE', symObjAddr: 0x23A8, symBinAddr: 0x12904, symSize: 0x40 }
  - { offset: 0x680F8, size: 0x8, addend: 0x0, symName: '__ZN86_$LT$pysynthacs_core..AnnealingResult$u20$as$u20$pyo3..impl_..pyclass..PyClassImpl$GT$16lazy_type_object11TYPE_OBJECT17h00219d06e12d0a9fE', symObjAddr: 0x31B8, symBinAddr: 0xE0470, symSize: 0x0 }
  - { offset: 0x68118, size: 0x8, addend: 0x0, symName: '__ZN86_$LT$pysynthacs_core..AnnealingResult$u20$as$u20$pyo3..impl_..pyclass..PyClassImpl$GT$3doc3DOC17heed36c381e3a0ae3E', symObjAddr: 0x3200, symBinAddr: 0xE04B8, symSize: 0x0 }
  - { offset: 0x68126, size: 0x8, addend: 0x0, symName: '__ZN86_$LT$pysynthacs_core..AnnealingResult$u20$as$u20$pyo3..impl_..pyclass..PyClassImpl$GT$10items_iter17hf160b682a8ea2ccbE', symObjAddr: 0x240C, symBinAddr: 0x12968, symSize: 0x3C }
  - { offset: 0x68161, size: 0x8, addend: 0x0, symName: '__ZN86_$LT$pysynthacs_core..AnnealingResult$u20$as$u20$pyo3..impl_..pyclass..PyClassImpl$GT$16lazy_type_object17h443cb618f6203c8fE', symObjAddr: 0x2448, symBinAddr: 0x129A4, symSize: 0xC }
  - { offset: 0x6817E, size: 0x8, addend: 0x0, symName: '__ZN86_$LT$pysynthacs_core..AnnealingResult$u20$as$u20$pyo3..impl_..pyclass..PyClassImpl$GT$3doc17h38259f81977779faE', symObjAddr: 0x2454, symBinAddr: 0x129B0, symSize: 0x3C }
  - { offset: 0x681E8, size: 0x8, addend: 0x0, symName: '__ZN134_$LT$pysynthacs_core..AnnealingResult$u20$as$u20$pyo3..conversion..IntoPy$LT$pyo3..instance..Py$LT$pyo3..types..any..PyAny$GT$$GT$$GT$7into_py17h5e7373fb6580be93E', symObjAddr: 0x0, symBinAddr: 0x1055C, symSize: 0xA0 }
  - { offset: 0x68266, size: 0x8, addend: 0x0, symName: __ZN15pysynthacs_core15pysynthacs_core17h228f70e46f946a6eE, symObjAddr: 0xA0, symBinAddr: 0x105FC, symSize: 0x1CC }
  - { offset: 0x68360, size: 0x8, addend: 0x0, symName: __ZN15pysynthacs_core19optimize_population17hc8b10a88d51664e6E, symObjAddr: 0x26C, symBinAddr: 0x107C8, symSize: 0x149C }
  - { offset: 0x688BC, size: 0x8, addend: 0x0, symName: __ZN15pysynthacs_core32__pyfunction_optimize_population17haa33f6dad218e251E, symObjAddr: 0x1708, symBinAddr: 0x11C64, symSize: 0xB98 }
  - { offset: 0x68C3D, size: 0x8, addend: 0x0, symName: '__ZN15pysynthacs_core59_$LT$impl$u20$pysynthacs_core..pysynthacs_core..MakeDef$GT$8make_def15__pyo3_pymodule17hb9f0f29c0a3b3ff5E', symObjAddr: 0x22A0, symBinAddr: 0x127FC, symSize: 0x38 }
  - { offset: 0x68C75, size: 0x8, addend: 0x0, symName: '__ZN15pysynthacs_core63_$LT$impl$u20$pysynthacs_core..optimize_population..MakeDef$GT$9_PYO3_DEF10trampoline17hd77b71c9105e6667E', symObjAddr: 0x22D8, symBinAddr: 0x12834, symSize: 0x50 }
  - { offset: 0x68CD2, size: 0x8, addend: 0x0, symName: '__ZN82_$LT$pysynthacs_core..AnnealingResult$u20$as$u20$pyo3..type_object..PyTypeInfo$GT$15type_object_raw17h308aae102a4c12eeE', symObjAddr: 0x23E8, symBinAddr: 0x12944, symSize: 0x24 }
  - { offset: 0x69730, size: 0x8, addend: 0x0, symName: '__ZN108_$LT$core..iter..adapters..filter..Filter$LT$I$C$P$GT$$u20$as$u20$core..iter..traits..iterator..Iterator$GT$8try_fold17h49d3011b0cfb9604E', symObjAddr: 0x0, symBinAddr: 0x129EC, symSize: 0x34 }
  - { offset: 0x69756, size: 0x8, addend: 0x0, symName: '__ZN108_$LT$core..iter..adapters..filter..Filter$LT$I$C$P$GT$$u20$as$u20$core..iter..traits..iterator..Iterator$GT$8try_fold17h49d3011b0cfb9604E', symObjAddr: 0x0, symBinAddr: 0x129EC, symSize: 0x34 }
  - { offset: 0x697CB, size: 0x8, addend: 0x0, symName: '__ZN108_$LT$core..iter..adapters..filter..Filter$LT$I$C$P$GT$$u20$as$u20$core..iter..traits..iterator..Iterator$GT$8try_fold17hdaab08280f94a966E', symObjAddr: 0x34, symBinAddr: 0x12A20, symSize: 0x34 }
  - { offset: 0x69846, size: 0x8, addend: 0x0, symName: '__ZN4core4iter8adapters6filter15filter_try_fold28_$u7b$$u7b$closure$u7d$$u7d$17h16040904431884c1E', symObjAddr: 0x68, symBinAddr: 0x12A54, symSize: 0x108 }
  - { offset: 0x698D0, size: 0x8, addend: 0x0, symName: '__ZN4core4iter8adapters6filter15filter_try_fold28_$u7b$$u7b$closure$u7d$$u7d$17h8a957ab2e27886bbE', symObjAddr: 0x170, symBinAddr: 0x12B5C, symSize: 0x108 }
  - { offset: 0x69B59, size: 0x8, addend: 0x0, symName: '__ZN4core3ptr7mut_ptr31_$LT$impl$u20$$BP$mut$u20$T$GT$7is_null17h0ae1af98c0d0aa48E', symObjAddr: 0x0, symBinAddr: 0x12C64, symSize: 0x18 }
  - { offset: 0x69BB7, size: 0x8, addend: 0x0, symName: '__ZN4core3ptr7mut_ptr31_$LT$impl$u20$$BP$mut$u20$T$GT$7is_null17h0ae1af98c0d0aa48E', symObjAddr: 0x0, symBinAddr: 0x12C64, symSize: 0x18 }
  - { offset: 0x69C53, size: 0x8, addend: 0x0, symName: __ZN4pyo33gil8GILGuard6python17h733ffa4e21dd5e8bE, symObjAddr: 0x0, symBinAddr: 0x12C7C, symSize: 0x20 }
  - { offset: 0x69D03, size: 0x8, addend: 0x0, symName: __ZN4pyo33gil8GILGuard6python17h733ffa4e21dd5e8bE, symObjAddr: 0x0, symBinAddr: 0x12C7C, symSize: 0x20 }
  - { offset: 0x69D43, size: 0x8, addend: 0x0, symName: '__ZN4core3ptr9const_ptr33_$LT$impl$u20$$BP$const$u20$T$GT$7is_null17h40b49728a331f2c9E', symObjAddr: 0x0, symBinAddr: 0x12C9C, symSize: 0x18 }
  - { offset: 0x69D7B, size: 0x8, addend: 0x0, symName: '__ZN4core3ptr9const_ptr33_$LT$impl$u20$$BP$const$u20$T$GT$7is_null17h40b49728a331f2c9E', symObjAddr: 0x0, symBinAddr: 0x12C9C, symSize: 0x18 }
  - { offset: 0x69E02, size: 0x8, addend: 0x0, symName: __ZN4core5slice3raw14from_raw_parts18precondition_check17h18f69bcb6af3f5cdE, symObjAddr: 0x0, symBinAddr: 0x12CB4, symSize: 0x1D8 }
  - { offset: 0x6A399, size: 0x8, addend: 0x0, symName: __ZN4core5slice3raw14from_raw_parts18precondition_check17h18f69bcb6af3f5cdE, symObjAddr: 0x0, symBinAddr: 0x12CB4, symSize: 0x1D8 }
  - { offset: 0x6A537, size: 0x8, addend: 0x0, symName: __ZN4core5slice3raw18from_raw_parts_mut18precondition_check17hb614c00188996b6aE, symObjAddr: 0x1D8, symBinAddr: 0x12E8C, symSize: 0x1D8 }
  - { offset: 0x6A8B4, size: 0x8, addend: 0x0, symName: '__ZN4core3ptr8non_null16NonNull$LT$T$GT$13new_unchecked17hf83cf25bc980ecfdE', symObjAddr: 0x0, symBinAddr: 0x13064, symSize: 0x3C }
  - { offset: 0x6BD4E, size: 0x8, addend: 0x0, symName: '__ZN4core3ptr8non_null16NonNull$LT$T$GT$13new_unchecked17hf83cf25bc980ecfdE', symObjAddr: 0x0, symBinAddr: 0x13064, symSize: 0x3C }
  - { offset: 0x6BDD8, size: 0x8, addend: 0x0, symName: '__ZN4core3ptr8non_null16NonNull$LT$T$GT$20offset_from_unsigned17h080db46ed24b005aE', symObjAddr: 0x3C, symBinAddr: 0x130A0, symSize: 0x7C }
  - { offset: 0x6C537, size: 0x8, addend: 0x0, symName: '__ZN4core3ptr8non_null16NonNull$LT$T$GT$20offset_from_unsigned17h29cca3a9ab4f1b33E', symObjAddr: 0xB8, symBinAddr: 0x1311C, symSize: 0x7C }
  - { offset: 0x6C629, size: 0x8, addend: 0x0, symName: __ZN7ndarray9extension7nonnull30nonnull_debug_checked_from_ptr17h630c7781bea1bb44E, symObjAddr: 0x0, symBinAddr: 0x13198, symSize: 0x5C }
  - { offset: 0x6C645, size: 0x8, addend: 0x0, symName: __ZN7ndarray9extension7nonnull30nonnull_debug_checked_from_ptr17h630c7781bea1bb44E, symObjAddr: 0x0, symBinAddr: 0x13198, symSize: 0x5C }
  - { offset: 0x6C6EC, size: 0x8, addend: 0x0, symName: __ZN4core3ptr19copy_nonoverlapping18precondition_check17h15682b9a127134eaE, symObjAddr: 0x0, symBinAddr: 0x131F4, symSize: 0x358 }
  - { offset: 0x6CA0A, size: 0x8, addend: 0x0, symName: __ZN4core3ptr19copy_nonoverlapping18precondition_check17h15682b9a127134eaE, symObjAddr: 0x0, symBinAddr: 0x131F4, symSize: 0x358 }
  - { offset: 0x6D05B, size: 0x8, addend: 0x0, symName: '__ZN4pyo312pyclass_init27PyClassInitializer$LT$T$GT$19create_class_object17h68bf3f75be68da23E', symObjAddr: 0x0, symBinAddr: 0x1354C, symSize: 0x98 }
  - { offset: 0x6E730, size: 0x8, addend: 0x0, symName: '__ZN96_$LT$pyo3..pyclass_init..PyClassInitializer$LT$T$GT$$u20$as$u20$core..convert..From$LT$T$GT$$GT$4from17hcfc54daf039bd79cE', symObjAddr: 0x454, symBinAddr: 0x139A0, symSize: 0x1C }
  - { offset: 0x6EFF4, size: 0x8, addend: 0x0, symName: '__ZN4pyo312pyclass_init27PyClassInitializer$LT$T$GT$19create_class_object17h68bf3f75be68da23E', symObjAddr: 0x0, symBinAddr: 0x1354C, symSize: 0x98 }
  - { offset: 0x6F0BA, size: 0x8, addend: 0x0, symName: '__ZN4pyo312pyclass_init27PyClassInitializer$LT$T$GT$27create_class_object_of_type17h39069e3a64dca61aE', symObjAddr: 0x98, symBinAddr: 0x135E4, symSize: 0x2DC }
  - { offset: 0x6F2AE, size: 0x8, addend: 0x0, symName: '__ZN4pyo312pyclass_init27PyClassInitializer$LT$T$GT$3new17hfab4ed7f0b02b8f1E', symObjAddr: 0x374, symBinAddr: 0x138C0, symSize: 0xE0 }
  - { offset: 0x6F306, size: 0x8, addend: 0x0, symName: __ZN4core4iter6traits8iterator8Iterator3zip17h5048df8e1b57a1adE, symObjAddr: 0x0, symBinAddr: 0x139BC, symSize: 0xB4 }
  - { offset: 0x6FB94, size: 0x8, addend: 0x0, symName: __ZN4core4iter6traits8iterator8Iterator3zip17h5048df8e1b57a1adE, symObjAddr: 0x0, symBinAddr: 0x139BC, symSize: 0xB4 }
  - { offset: 0x70CE8, size: 0x8, addend: 0x0, symName: '__ZN50_$LT$T$u20$as$u20$core..convert..Into$LT$U$GT$$GT$4into17h380a34fb619013cdE', symObjAddr: 0x0, symBinAddr: 0x13A70, symSize: 0x24 }
  - { offset: 0x714CC, size: 0x8, addend: 0x0, symName: '__ZN50_$LT$T$u20$as$u20$core..convert..Into$LT$U$GT$$GT$4into17h380a34fb619013cdE', symObjAddr: 0x0, symBinAddr: 0x13A70, symSize: 0x24 }
  - { offset: 0x71508, size: 0x8, addend: 0x0, symName: '__ZN50_$LT$T$u20$as$u20$core..convert..Into$LT$U$GT$$GT$4into17h5ae6b131ce28ab9eE', symObjAddr: 0x24, symBinAddr: 0x13A94, symSize: 0x2C }
  - { offset: 0x71F73, size: 0x8, addend: 0x0, symName: '__ZN74_$LT$numpy..error..IgnoreError$u20$as$u20$core..convert..From$LT$E$GT$$GT$4from17h22957ea3e45fa1afE', symObjAddr: 0x50, symBinAddr: 0x13AC0, symSize: 0x14 }
  - { offset: 0x71FA4, size: 0x8, addend: 0x0, symName: '__ZN74_$LT$numpy..error..IgnoreError$u20$as$u20$core..convert..From$LT$E$GT$$GT$4from17ha254d49a1aba9ce5E', symObjAddr: 0x64, symBinAddr: 0x13AD4, symSize: 0x14 }
  - { offset: 0x71FD6, size: 0x8, addend: 0x0, symName: '__ZN74_$LT$numpy..error..IgnoreError$u20$as$u20$core..convert..From$LT$E$GT$$GT$4from17hec84f4726eb59281E', symObjAddr: 0x78, symBinAddr: 0x13AE8, symSize: 0x2C }
  - { offset: 0x7284D, size: 0x8, addend: 0x0, symName: '__ZN116_$LT$$RF$pyo3..impl_..pyclass..PyClassImplCollector$LT$T$GT$$u20$as$u20$pyo3..impl_..pyclass..PyMethods$LT$T$GT$$GT$10py_methods17had8608c63f731408E', symObjAddr: 0x0, symBinAddr: 0x13B14, symSize: 0x18 }
  - { offset: 0x73EEC, size: 0x8, addend: 0x0, symName: '__ZN116_$LT$$RF$pyo3..impl_..pyclass..PyClassImplCollector$LT$T$GT$$u20$as$u20$pyo3..impl_..pyclass..PyMethods$LT$T$GT$$GT$10py_methods17had8608c63f731408E', symObjAddr: 0x0, symBinAddr: 0x13B14, symSize: 0x18 }
  - { offset: 0x73F29, size: 0x8, addend: 0x0, symName: '__ZN118_$LT$pyo3..impl_..pyclass..SendablePyClass$LT$T$GT$$u20$as$u20$pyo3..impl_..pyclass..PyClassThreadChecker$LT$T$GT$$GT$3new17h3d56b083b13d41d9E', symObjAddr: 0x18, symBinAddr: 0x13B2C, symSize: 0x4 }
  - { offset: 0x73F4D, size: 0x8, addend: 0x0, symName: '__ZN118_$LT$pyo3..impl_..pyclass..SendablePyClass$LT$T$GT$$u20$as$u20$pyo3..impl_..pyclass..PyClassThreadChecker$LT$T$GT$$GT$6ensure17h89f19680313281beE', symObjAddr: 0x1C, symBinAddr: 0x13B30, symSize: 0x10 }
  - { offset: 0x73F80, size: 0x8, addend: 0x0, symName: '__ZN118_$LT$pyo3..impl_..pyclass..SendablePyClass$LT$T$GT$$u20$as$u20$pyo3..impl_..pyclass..PyClassThreadChecker$LT$T$GT$$GT$8can_drop17h065d1dc74b43941dE', symObjAddr: 0x2C, symBinAddr: 0x13B40, symSize: 0x18 }
  - { offset: 0x73FD8, size: 0x8, addend: 0x0, symName: '__ZN130_$LT$$RF$pyo3..impl_..pyclass..PyClassImplCollector$LT$T$GT$$u20$as$u20$pyo3..impl_..pyclass..PyClassNewTextSignature$LT$T$GT$$GT$18new_text_signature17h2ee8a5c05a763a8aE', symObjAddr: 0x44, symBinAddr: 0x13B58, symSize: 0x14 }
  - { offset: 0x74010, size: 0x8, addend: 0x0, symName: __ZN4pyo35impl_7pyclass10tp_dealloc17h57954c574eb7bc72E, symObjAddr: 0x58, symBinAddr: 0x13B6C, symSize: 0x34 }
  - { offset: 0x74043, size: 0x8, addend: 0x0, symName: __ZN4pyo35impl_7pyclass12class_offset17h9b58e0b9a7452c87E, symObjAddr: 0x8C, symBinAddr: 0x13BA0, symSize: 0xC }
  - { offset: 0x7406B, size: 0x8, addend: 0x0, symName: __ZN4pyo35impl_7pyclass18tp_dealloc_with_gc17hff406c0ca06217e5E, symObjAddr: 0x98, symBinAddr: 0x13BAC, symSize: 0x4C }
  - { offset: 0x740BC, size: 0x8, addend: 0x0, symName: __ZN4pyo35impl_7pyclass25pyo3_get_value_topyobject17h838d9ab6ef1e03d5E, symObjAddr: 0xE4, symBinAddr: 0x13BF8, symSize: 0x178 }
  - { offset: 0x741F6, size: 0x8, addend: 0x0, symName: __ZN4pyo35impl_7pyclass25pyo3_get_value_topyobject17hd3e542ed1fd78b57E, symObjAddr: 0x25C, symBinAddr: 0x13D70, symSize: 0x178 }
  - { offset: 0x74330, size: 0x8, addend: 0x0, symName: __ZN4pyo35impl_7pyclass25pyo3_get_value_topyobject17hf04cfad6d5b8faceE, symObjAddr: 0x3D4, symBinAddr: 0x13EE8, symSize: 0x178 }
  - { offset: 0x75092, size: 0x8, addend: 0x0, symName: '__ZN4pyo35impl_7pyclass29PyClassImplCollector$LT$T$GT$3new17h036377b9d0e647d7E', symObjAddr: 0x54C, symBinAddr: 0x14060, symSize: 0x4 }
  - { offset: 0x7520D, size: 0x8, addend: 0x0, symName: '__ZN4pyo35impl_7pyclass62PyClassGetterGenerator$LT$ClassT$C$FieldT$C$Offset$C$_$C$_$GT$8generate17h24685409500e832eE', symObjAddr: 0x550, symBinAddr: 0x14064, symSize: 0x78 }
  - { offset: 0x7529F, size: 0x8, addend: 0x0, symName: '__ZN4pyo35impl_7pyclass62PyClassGetterGenerator$LT$ClassT$C$FieldT$C$Offset$C$_$C$_$GT$8generate17h8a0c90818659113aE', symObjAddr: 0x5C8, symBinAddr: 0x140DC, symSize: 0x78 }
  - { offset: 0x75331, size: 0x8, addend: 0x0, symName: '__ZN4pyo35impl_7pyclass62PyClassGetterGenerator$LT$ClassT$C$FieldT$C$Offset$C$_$C$_$GT$8generate17hff1aea92cf6d32ecE', symObjAddr: 0x640, symBinAddr: 0x14154, symSize: 0x78 }
  - { offset: 0x75467, size: 0x8, addend: 0x0, symName: '__ZN5alloc7raw_vec19RawVec$LT$T$C$A$GT$8grow_one17h0a0f1fb50a26fba8E', symObjAddr: 0x0, symBinAddr: 0x141CC, symSize: 0x84 }
  - { offset: 0x7721A, size: 0x8, addend: 0x0, symName: '__ZN5alloc7raw_vec19RawVec$LT$T$C$A$GT$8grow_one17h0a0f1fb50a26fba8E', symObjAddr: 0x0, symBinAddr: 0x141CC, symSize: 0x84 }
  - { offset: 0x772F3, size: 0x8, addend: 0x0, symName: '__ZN5alloc7raw_vec19RawVec$LT$T$C$A$GT$8grow_one17h89b1ffefe34a93aaE', symObjAddr: 0x84, symBinAddr: 0x14250, symSize: 0x88 }
  - { offset: 0x773CE, size: 0x8, addend: 0x0, symName: '__ZN5alloc7raw_vec19RawVec$LT$T$C$A$GT$8grow_one17h9dbc386a135e3472E', symObjAddr: 0x10C, symBinAddr: 0x142D8, symSize: 0x88 }
  - { offset: 0x77459, size: 0x8, addend: 0x0, symName: __ZN7ndarray9dimension20strides_non_negative17h93246f6847fe69c2E, symObjAddr: 0x0, symBinAddr: 0x14360, symSize: 0x84 }
  - { offset: 0x774BB, size: 0x8, addend: 0x0, symName: __ZN7ndarray9dimension20strides_non_negative17h93246f6847fe69c2E, symObjAddr: 0x0, symBinAddr: 0x14360, symSize: 0x84 }
  - { offset: 0x7751E, size: 0x8, addend: 0x0, symName: __ZN7ndarray9dimension20strides_non_negative17hb4aee59b7da37fa1E, symObjAddr: 0x84, symBinAddr: 0x143E4, symSize: 0x84 }
  - { offset: 0x77581, size: 0x8, addend: 0x0, symName: __ZN7ndarray9dimension21size_of_shape_checked17h645ac7ce10d9645cE, symObjAddr: 0x108, symBinAddr: 0x14468, symSize: 0xDC }
  - { offset: 0x775F0, size: 0x8, addend: 0x0, symName: __ZN7ndarray9dimension21size_of_shape_checked17ha7120e3ef201a8b4E, symObjAddr: 0x1E4, symBinAddr: 0x14544, symSize: 0xDC }
  - { offset: 0x77664, size: 0x8, addend: 0x0, symName: '__ZN7ndarray9dimension21size_of_shape_checked28_$u7b$$u7b$closure$u7d$$u7d$17h01e5cc681b2bff7aE', symObjAddr: 0x2C0, symBinAddr: 0x14620, symSize: 0x18 }
  - { offset: 0x77695, size: 0x8, addend: 0x0, symName: '__ZN7ndarray9dimension21size_of_shape_checked28_$u7b$$u7b$closure$u7d$$u7d$17h29aec32d1b7d283dE', symObjAddr: 0x2D8, symBinAddr: 0x14638, symSize: 0x18 }
  - { offset: 0x776C6, size: 0x8, addend: 0x0, symName: '__ZN7ndarray9dimension21size_of_shape_checked28_$u7b$$u7b$closure$u7d$$u7d$17h44116dd62ac98f65E', symObjAddr: 0x2F0, symBinAddr: 0x14650, symSize: 0x2C }
  - { offset: 0x7771E, size: 0x8, addend: 0x0, symName: '__ZN7ndarray9dimension21size_of_shape_checked28_$u7b$$u7b$closure$u7d$$u7d$17h4c9b9855619214fcE', symObjAddr: 0x31C, symBinAddr: 0x1467C, symSize: 0x3C }
  - { offset: 0x77784, size: 0x8, addend: 0x0, symName: '__ZN7ndarray9dimension21size_of_shape_checked28_$u7b$$u7b$closure$u7d$$u7d$17hab7ace83ac7c766bE', symObjAddr: 0x358, symBinAddr: 0x146B8, symSize: 0x3C }
  - { offset: 0x777EA, size: 0x8, addend: 0x0, symName: '__ZN7ndarray9dimension21size_of_shape_checked28_$u7b$$u7b$closure$u7d$$u7d$17hb6dbb5037a5f41d4E', symObjAddr: 0x394, symBinAddr: 0x146F4, symSize: 0x2C }
  - { offset: 0x7786D, size: 0x8, addend: 0x0, symName: __ZN7ndarray9dimension29max_abs_offset_check_overflow17h2bf563388d8c8982E, symObjAddr: 0x3C0, symBinAddr: 0x14720, symSize: 0x40 }
  - { offset: 0x778B9, size: 0x8, addend: 0x0, symName: __ZN7ndarray9dimension29max_abs_offset_check_overflow17h735295272678d93cE, symObjAddr: 0x400, symBinAddr: 0x14760, symSize: 0x40 }
  - { offset: 0x77905, size: 0x8, addend: 0x0, symName: __ZN7ndarray9dimension34max_abs_offset_check_overflow_impl17h43531a088619d5e4E, symObjAddr: 0x440, symBinAddr: 0x147A0, symSize: 0x22C }
  - { offset: 0x779D8, size: 0x8, addend: 0x0, symName: __ZN7ndarray9dimension34max_abs_offset_check_overflow_impl17hc3a65bfd498fdb2eE, symObjAddr: 0x66C, symBinAddr: 0x149CC, symSize: 0x22C }
  - { offset: 0x77AB0, size: 0x8, addend: 0x0, symName: '__ZN7ndarray9dimension34max_abs_offset_check_overflow_impl28_$u7b$$u7b$closure$u7d$$u7d$17h0f05812bf7caed2cE', symObjAddr: 0x898, symBinAddr: 0x14BF8, symSize: 0x18 }
  - { offset: 0x77AE1, size: 0x8, addend: 0x0, symName: '__ZN7ndarray9dimension34max_abs_offset_check_overflow_impl28_$u7b$$u7b$closure$u7d$$u7d$17h4a10aef95d16b7d4E', symObjAddr: 0x8B0, symBinAddr: 0x14C10, symSize: 0x18 }
  - { offset: 0x77B12, size: 0x8, addend: 0x0, symName: '__ZN7ndarray9dimension34max_abs_offset_check_overflow_impl28_$u7b$$u7b$closure$u7d$$u7d$17h5d2d8e09e441b285E', symObjAddr: 0x8C8, symBinAddr: 0x14C28, symSize: 0x18 }
  - { offset: 0x77B43, size: 0x8, addend: 0x0, symName: '__ZN7ndarray9dimension34max_abs_offset_check_overflow_impl28_$u7b$$u7b$closure$u7d$$u7d$17h66cbf2662951790cE', symObjAddr: 0x8E0, symBinAddr: 0x14C40, symSize: 0x18 }
  - { offset: 0x77B74, size: 0x8, addend: 0x0, symName: '__ZN7ndarray9dimension34max_abs_offset_check_overflow_impl28_$u7b$$u7b$closure$u7d$$u7d$17hc15f95fb891ea0f9E', symObjAddr: 0x8F8, symBinAddr: 0x14C58, symSize: 0xD0 }
  - { offset: 0x77C66, size: 0x8, addend: 0x0, symName: '__ZN7ndarray9dimension34max_abs_offset_check_overflow_impl28_$u7b$$u7b$closure$u7d$$u7d$17hebabe5c42b93f4d9E', symObjAddr: 0x9C8, symBinAddr: 0x14D28, symSize: 0xD0 }
  - { offset: 0x781E9, size: 0x8, addend: 0x0, symName: '__ZN73_$LT$pyo3..types..any..PyAny$u20$as$u20$pyo3..type_object..PyTypeInfo$GT$15type_object_raw17hb6c09435410cb36aE', symObjAddr: 0x0, symBinAddr: 0x14DF8, symSize: 0x24 }
  - { offset: 0x792C6, size: 0x8, addend: 0x0, symName: '__ZN73_$LT$pyo3..types..any..PyAny$u20$as$u20$pyo3..type_object..PyTypeInfo$GT$15type_object_raw17hb6c09435410cb36aE', symObjAddr: 0x0, symBinAddr: 0x14DF8, symSize: 0x24 }
  - { offset: 0x7983B, size: 0x8, addend: 0x0, symName: __ZN4pyo35types8sequence16extract_sequence17h7cf219972d928a42E, symObjAddr: 0x0, symBinAddr: 0x14E1C, symSize: 0x35C }
  - { offset: 0x7ACFF, size: 0x8, addend: 0x0, symName: __ZN4pyo35types8sequence16extract_sequence17h7cf219972d928a42E, symObjAddr: 0x0, symBinAddr: 0x14E1C, symSize: 0x35C }
  - { offset: 0x7B79B, size: 0x8, addend: 0x0, symName: '__ZN68_$LT$rand_pcg..pcg128..Lcg128Xsl64$u20$as$u20$rand_core..RngCore$GT$8next_u3217hadc446065941ec4cE', symObjAddr: 0x0, symBinAddr: 0x15178, symSize: 0x24 }
  - { offset: 0x7B7B7, size: 0x8, addend: 0x0, symName: '__ZN68_$LT$rand_pcg..pcg128..Lcg128Xsl64$u20$as$u20$rand_core..RngCore$GT$8next_u3217hadc446065941ec4cE', symObjAddr: 0x0, symBinAddr: 0x15178, symSize: 0x24 }
  - { offset: 0x7B7E3, size: 0x8, addend: 0x0, symName: '__ZN68_$LT$rand_pcg..pcg128..Lcg128Xsl64$u20$as$u20$rand_core..RngCore$GT$8next_u6417h9ea38e8bc300f02dE', symObjAddr: 0x24, symBinAddr: 0x1519C, symSize: 0x94 }
  - { offset: 0x7B9AF, size: 0x8, addend: 0x0, symName: __ZN8rand_pcg6pcg12811Lcg128Xsl644step17hcdaa863512b53fe4E, symObjAddr: 0xB8, symBinAddr: 0x15230, symSize: 0xB8 }
  - { offset: 0x7BA3A, size: 0x8, addend: 0x0, symName: '__ZN110_$LT$core..iter..adapters..enumerate..Enumerate$LT$I$GT$$u20$as$u20$core..iter..traits..iterator..Iterator$GT$4next17h022d53d583efaafeE', symObjAddr: 0x0, symBinAddr: 0x152E8, symSize: 0xE0 }
  - { offset: 0x7CFC1, size: 0x8, addend: 0x0, symName: '__ZN110_$LT$core..iter..adapters..enumerate..Enumerate$LT$I$GT$$u20$as$u20$core..iter..traits..iterator..Iterator$GT$4next17h022d53d583efaafeE', symObjAddr: 0x0, symBinAddr: 0x152E8, symSize: 0xE0 }
  - { offset: 0x7D0A7, size: 0x8, addend: 0x0, symName: '__ZN110_$LT$core..iter..adapters..enumerate..Enumerate$LT$I$GT$$u20$as$u20$core..iter..traits..iterator..Iterator$GT$4next17hd2de874e9efed9afE', symObjAddr: 0xE0, symBinAddr: 0x153C8, symSize: 0xEC }
  - { offset: 0x7D1F3, size: 0x8, addend: 0x0, symName: '__ZN63_$LT$I$u20$as$u20$core..iter..traits..collect..IntoIterator$GT$9into_iter17h38a787ba804db6dcE', symObjAddr: 0x1CC, symBinAddr: 0x154B4, symSize: 0x18 }
  - { offset: 0x7D22A, size: 0x8, addend: 0x0, symName: '__ZN63_$LT$I$u20$as$u20$core..iter..traits..collect..IntoIterator$GT$9into_iter17heff60b9f53878a5cE', symObjAddr: 0x1E4, symBinAddr: 0x154CC, symSize: 0x18 }
  - { offset: 0x7D999, size: 0x8, addend: 0x0, symName: '__ZN100_$LT$core..iter..adapters..take..Take$LT$I$GT$$u20$as$u20$core..iter..traits..iterator..Iterator$GT$8for_each17hf9b1260beae08a57E', symObjAddr: 0x0, symBinAddr: 0x154E4, symSize: 0x28 }
  - { offset: 0x7D9BF, size: 0x8, addend: 0x0, symName: '__ZN100_$LT$core..iter..adapters..take..Take$LT$I$GT$$u20$as$u20$core..iter..traits..iterator..Iterator$GT$8for_each17hf9b1260beae08a57E', symObjAddr: 0x0, symBinAddr: 0x154E4, symSize: 0x28 }
  - { offset: 0x7DA08, size: 0x8, addend: 0x0, symName: '__ZN100_$LT$core..iter..adapters..take..Take$LT$I$GT$$u20$as$u20$core..iter..traits..iterator..Iterator$GT$9size_hint17h3b5648b39090fb9bE', symObjAddr: 0x28, symBinAddr: 0x1550C, symSize: 0x100 }
  - { offset: 0x7DB0B, size: 0x8, addend: 0x0, symName: '__ZN98_$LT$core..iter..adapters..take..Take$LT$I$GT$$u20$as$u20$core..iter..adapters..take..SpecTake$GT$13spec_for_each5check28_$u7b$$u7b$closure$u7d$$u7d$17h42bff82730dc9f71E', symObjAddr: 0x1E0, symBinAddr: 0x156C4, symSize: 0x90 }
  - { offset: 0x7DB8B, size: 0x8, addend: 0x0, symName: '__ZN98_$LT$core..iter..adapters..take..Take$LT$I$GT$$u20$as$u20$core..iter..adapters..take..SpecTake$GT$13spec_for_each17h64470ad948b70ac4E', symObjAddr: 0x140, symBinAddr: 0x15624, symSize: 0xA0 }
  - { offset: 0x7DC47, size: 0x8, addend: 0x0, symName: '__ZN63_$LT$I$u20$as$u20$core..iter..traits..collect..IntoIterator$GT$9into_iter17h2d6c2e03f0b17796E', symObjAddr: 0x128, symBinAddr: 0x1560C, symSize: 0x18 }
  - { offset: 0x7DE6C, size: 0x8, addend: 0x0, symName: '__ZN7ndarray9dimension15dimension_trait9Dimension15fortran_strides28_$u7b$$u7b$closure$u7d$$u7d$17h552e7e8a03ef3818E', symObjAddr: 0x0, symBinAddr: 0x15754, symSize: 0x28 }
  - { offset: 0x7DE92, size: 0x8, addend: 0x0, symName: '__ZN7ndarray9dimension15dimension_trait9Dimension15fortran_strides28_$u7b$$u7b$closure$u7d$$u7d$17h552e7e8a03ef3818E', symObjAddr: 0x0, symBinAddr: 0x15754, symSize: 0x28 }
  - { offset: 0x7DF74, size: 0x8, addend: 0x0, symName: '__ZN4core3ptr9const_ptr33_$LT$impl$u20$$BP$const$u20$T$GT$7is_null17hbbf45c69b3ba36ebE', symObjAddr: 0x0, symBinAddr: 0x1577C, symSize: 0x18 }
  - { offset: 0x7E76D, size: 0x8, addend: 0x0, symName: '__ZN4core3ptr9const_ptr33_$LT$impl$u20$$BP$const$u20$T$GT$7is_null17hbbf45c69b3ba36ebE', symObjAddr: 0x0, symBinAddr: 0x1577C, symSize: 0x18 }
  - { offset: 0x7E947, size: 0x8, addend: 0x0, symName: '__ZN4core5slice29_$LT$impl$u20$$u5b$T$u5d$$GT$15copy_from_slice17ha491b95577672924E', symObjAddr: 0x18, symBinAddr: 0x15794, symSize: 0xAC }
  - { offset: 0x7EA12, size: 0x8, addend: 0x0, symName: '__ZN4core5slice29_$LT$impl$u20$$u5b$T$u5d$$GT$18split_at_unchecked17h84a78b73705df663E', symObjAddr: 0xC4, symBinAddr: 0x15840, symSize: 0xEC }
  - { offset: 0x7EB9E, size: 0x8, addend: 0x0, symName: '__ZN4core5slice29_$LT$impl$u20$$u5b$T$u5d$$GT$8split_at17h8dea0bfe7b5e4feaE', symObjAddr: 0x1B0, symBinAddr: 0x1592C, symSize: 0xD8 }
  - { offset: 0x7FAD3, size: 0x8, addend: 0x0, symName: __ZN4core6option6Option4Some17hfa4bcae4dfd7207aE, symObjAddr: 0x6D4, symBinAddr: 0x15E50, symSize: 0x1C }
  - { offset: 0x801D7, size: 0x8, addend: 0x0, symName: '__ZN86_$LT$core..option..Option$LT$T$GT$$u20$as$u20$pyo3..impl_..wrap..SomeWrap$LT$T$GT$$GT$4wrap17h2d62b441b4fc970eE', symObjAddr: 0x6F0, symBinAddr: 0x15E6C, symSize: 0x14 }
  - { offset: 0x808AA, size: 0x8, addend: 0x0, symName: '__ZN4core6option15Option$LT$T$GT$10ok_or_else17h84bd03cc754da1d7E', symObjAddr: 0x288, symBinAddr: 0x15A04, symSize: 0x60 }
  - { offset: 0x80915, size: 0x8, addend: 0x0, symName: '__ZN4core6option15Option$LT$T$GT$10ok_or_else17h8693d025748605c2E', symObjAddr: 0x2E8, symBinAddr: 0x15A64, symSize: 0x60 }
  - { offset: 0x80980, size: 0x8, addend: 0x0, symName: '__ZN4core6option15Option$LT$T$GT$10ok_or_else17h8abd5297065be30bE', symObjAddr: 0x348, symBinAddr: 0x15AC4, symSize: 0x60 }
  - { offset: 0x809EB, size: 0x8, addend: 0x0, symName: '__ZN4core6option15Option$LT$T$GT$10ok_or_else17hc784c3ccb2fa277fE', symObjAddr: 0x3A8, symBinAddr: 0x15B24, symSize: 0x60 }
  - { offset: 0x80A56, size: 0x8, addend: 0x0, symName: '__ZN4core6option15Option$LT$T$GT$10ok_or_else17hcfbf8c2f075aa57cE', symObjAddr: 0x408, symBinAddr: 0x15B84, symSize: 0x60 }
  - { offset: 0x80AC1, size: 0x8, addend: 0x0, symName: '__ZN4core6option15Option$LT$T$GT$10ok_or_else17hfd97b21813ce3bc3E', symObjAddr: 0x468, symBinAddr: 0x15BE4, symSize: 0x60 }
  - { offset: 0x80B57, size: 0x8, addend: 0x0, symName: '__ZN4core6option15Option$LT$T$GT$14unwrap_or_else17h727606dc0638875eE', symObjAddr: 0x4C8, symBinAddr: 0x15C44, symSize: 0x48 }
  - { offset: 0x80B9B, size: 0x8, addend: 0x0, symName: '__ZN4core6option15Option$LT$T$GT$14unwrap_or_else17h73f3b6fe1983000fE', symObjAddr: 0x510, symBinAddr: 0x15C8C, symSize: 0x48 }
  - { offset: 0x80BEC, size: 0x8, addend: 0x0, symName: '__ZN4core6option15Option$LT$T$GT$3map17hde873b1cf42b27e8E', symObjAddr: 0x558, symBinAddr: 0x15CD4, symSize: 0x50 }
  - { offset: 0x80C64, size: 0x8, addend: 0x0, symName: '__ZN4core6option15Option$LT$T$GT$6expect17h07d96483e684f08fE', symObjAddr: 0x5A8, symBinAddr: 0x15D24, symSize: 0x60 }
  - { offset: 0x80CAD, size: 0x8, addend: 0x0, symName: '__ZN4core6option15Option$LT$T$GT$6expect17hba39d79e85cbf228E', symObjAddr: 0x608, symBinAddr: 0x15D84, symSize: 0x5C }
  - { offset: 0x80D12, size: 0x8, addend: 0x0, symName: '__ZN4core6option15Option$LT$T$GT$7is_none17h8df95f248380c4f0E', symObjAddr: 0x664, symBinAddr: 0x15DE0, symSize: 0x20 }
  - { offset: 0x80D69, size: 0x8, addend: 0x0, symName: '__ZN4core6option15Option$LT$T$GT$7is_some17hb873f0ab83395da7E', symObjAddr: 0x684, symBinAddr: 0x15E00, symSize: 0x28 }
  - { offset: 0x80DA2, size: 0x8, addend: 0x0, symName: '__ZN4core6option15Option$LT$T$GT$7replace17hcbb48368c9cdbc99E', symObjAddr: 0x6AC, symBinAddr: 0x15E28, symSize: 0x28 }
  - { offset: 0x80E19, size: 0x8, addend: 0x0, symName: '__ZN4pyo35impl_9pymethods39BoundRef$LT$pyo3..types..any..PyAny$GT$18downcast_unchecked17hed3fadc103cfcfaaE', symObjAddr: 0x0, symBinAddr: 0x15E80, symSize: 0x24 }
  - { offset: 0x82061, size: 0x8, addend: 0x0, symName: '__ZN50_$LT$T$u20$as$u20$core..convert..Into$LT$U$GT$$GT$4into17h9397c8449bd91fe9E', symObjAddr: 0x24, symBinAddr: 0x15EA4, symSize: 0x24 }
  - { offset: 0x8211A, size: 0x8, addend: 0x0, symName: '__ZN85_$LT$pyo3..impl_..pymethods..BoundRef$LT$T$GT$$u20$as$u20$core..ops..deref..Deref$GT$5deref17h9e61810b6995993bE', symObjAddr: 0x48, symBinAddr: 0x15EC8, symSize: 0x18 }
  - { offset: 0x828E7, size: 0x8, addend: 0x0, symName: '__ZN4pyo35impl_9pymethods39BoundRef$LT$pyo3..types..any..PyAny$GT$18downcast_unchecked17hed3fadc103cfcfaaE', symObjAddr: 0x0, symBinAddr: 0x15E80, symSize: 0x24 }
  - { offset: 0x8294B, size: 0x8, addend: 0x0, symName: __ZN4core3fmt8builders9DebugList7entries17hf97a7530ed82269bE, symObjAddr: 0x0, symBinAddr: 0x15EE0, symSize: 0xD0 }
  - { offset: 0x82BE6, size: 0x8, addend: 0x0, symName: __ZN4core3fmt8builders9DebugList7entries17hf97a7530ed82269bE, symObjAddr: 0x0, symBinAddr: 0x15EE0, symSize: 0xD0 }
  - { offset: 0x82C7C, size: 0x8, addend: 0x0, symName: '__ZN87_$LT$ndarray..dimension..dynindeximpl..IxDynImpl$u20$as$u20$core..ops..deref..Deref$GT$5deref17hc11cecf0b02a30b8E', symObjAddr: 0x0, symBinAddr: 0x15FB0, symSize: 0x24 }
  - { offset: 0x82C9D, size: 0x8, addend: 0x0, symName: '__ZN87_$LT$ndarray..dimension..dynindeximpl..IxDynImpl$u20$as$u20$core..ops..deref..Deref$GT$5deref17hc11cecf0b02a30b8E', symObjAddr: 0x0, symBinAddr: 0x15FB0, symSize: 0x24 }
  - { offset: 0x82DEE, size: 0x8, addend: 0x0, symName: __ZN4pyo35impl_16extract_argument16extract_argument17h1a40370ee2540b02E, symObjAddr: 0x0, symBinAddr: 0x15FD4, symSize: 0x124 }
  - { offset: 0x84ACD, size: 0x8, addend: 0x0, symName: __ZN4pyo35impl_16extract_argument16extract_argument17h1a40370ee2540b02E, symObjAddr: 0x0, symBinAddr: 0x15FD4, symSize: 0x124 }
  - { offset: 0x84B51, size: 0x8, addend: 0x0, symName: __ZN4pyo35impl_16extract_argument16extract_argument17h20408726ad922ed2E, symObjAddr: 0x124, symBinAddr: 0x160F8, symSize: 0x11C }
  - { offset: 0x84BD5, size: 0x8, addend: 0x0, symName: __ZN4pyo35impl_16extract_argument16extract_argument17h9f97bd543f321624E, symObjAddr: 0x240, symBinAddr: 0x16214, symSize: 0x134 }
  - { offset: 0x84C5A, size: 0x8, addend: 0x0, symName: __ZN4pyo35impl_16extract_argument16extract_argument17hd83e975d53f06f87E, symObjAddr: 0x374, symBinAddr: 0x16348, symSize: 0x11C }
  - { offset: 0x84CDE, size: 0x8, addend: 0x0, symName: __ZN4pyo35impl_16extract_argument16extract_argument17he46a82e68a523453E, symObjAddr: 0x490, symBinAddr: 0x16464, symSize: 0x11C }
  - { offset: 0x84D62, size: 0x8, addend: 0x0, symName: __ZN4pyo35impl_16extract_argument16extract_argument17heb9cee17a2f5b033E, symObjAddr: 0x5AC, symBinAddr: 0x16580, symSize: 0x11C }
  - { offset: 0x84EEF, size: 0x8, addend: 0x0, symName: '__ZN4pyo35impl_16extract_argument19FunctionDescription26extract_arguments_fastcall28_$u7b$$u7b$closure$u7d$$u7d$17haf58c26a4271c1f1E', symObjAddr: 0x1380, symBinAddr: 0x17354, symSize: 0x24 }
  - { offset: 0x84F47, size: 0x8, addend: 0x0, symName: '__ZN4pyo35impl_16extract_argument19FunctionDescription36find_keyword_parameter_in_positional28_$u7b$$u7b$closure$u7d$$u7d$17h876309ddb04e7e68E', symObjAddr: 0x13A4, symBinAddr: 0x17378, symSize: 0x48 }
  - { offset: 0x84FA7, size: 0x8, addend: 0x0, symName: '__ZN4pyo35impl_16extract_argument19FunctionDescription38find_keyword_parameter_in_keyword_only28_$u7b$$u7b$closure$u7d$$u7d$17h9faf415d2d22ca15E', symObjAddr: 0x13EC, symBinAddr: 0x173C0, symSize: 0x38 }
  - { offset: 0x84FE9, size: 0x8, addend: 0x0, symName: __ZN4pyo35impl_16extract_argument25extract_optional_argument17h494c239bda62f828E, symObjAddr: 0x1424, symBinAddr: 0x173F8, symSize: 0xCC }
  - { offset: 0x8505E, size: 0x8, addend: 0x0, symName: __ZN4pyo35impl_16extract_argument29extract_argument_with_default17h22bf9471176ec90bE, symObjAddr: 0x14F0, symBinAddr: 0x174C4, symSize: 0x8C }
  - { offset: 0x850DA, size: 0x8, addend: 0x0, symName: __ZN4pyo35impl_16extract_argument29extract_argument_with_default17h338ff7e0014ad685E, symObjAddr: 0x157C, symBinAddr: 0x17550, symSize: 0x8C }
  - { offset: 0x85156, size: 0x8, addend: 0x0, symName: __ZN4pyo35impl_16extract_argument29extract_argument_with_default17h562057c77772a2c0E, symObjAddr: 0x1608, symBinAddr: 0x175DC, symSize: 0x8C }
  - { offset: 0x851D2, size: 0x8, addend: 0x0, symName: __ZN4pyo35impl_16extract_argument29extract_argument_with_default17hbaba499f936546d7E, symObjAddr: 0x1694, symBinAddr: 0x17668, symSize: 0x8C }
  - { offset: 0x85253, size: 0x8, addend: 0x0, symName: '__ZN71_$LT$T$u20$as$u20$pyo3..impl_..extract_argument..PyFunctionArgument$GT$7extract17h25ef47b87bab0f7aE', symObjAddr: 0x1720, symBinAddr: 0x176F4, symSize: 0x28 }
  - { offset: 0x85292, size: 0x8, addend: 0x0, symName: '__ZN71_$LT$T$u20$as$u20$pyo3..impl_..extract_argument..PyFunctionArgument$GT$7extract17h47a62b94d1477b4dE', symObjAddr: 0x1748, symBinAddr: 0x1771C, symSize: 0x28 }
  - { offset: 0x852D1, size: 0x8, addend: 0x0, symName: '__ZN71_$LT$T$u20$as$u20$pyo3..impl_..extract_argument..PyFunctionArgument$GT$7extract17h9ee5b265e166b74cE', symObjAddr: 0x1770, symBinAddr: 0x17744, symSize: 0x28 }
  - { offset: 0x85310, size: 0x8, addend: 0x0, symName: '__ZN71_$LT$T$u20$as$u20$pyo3..impl_..extract_argument..PyFunctionArgument$GT$7extract17hd97e46aea43c9642E', symObjAddr: 0x1798, symBinAddr: 0x1776C, symSize: 0x28 }
  - { offset: 0x85C8A, size: 0x8, addend: 0x0, symName: __ZN4pyo35impl_16extract_argument19FunctionDescription13handle_kwargs17h42f0d0a7cef5a083E, symObjAddr: 0x6C8, symBinAddr: 0x1669C, symSize: 0x6E8 }
  - { offset: 0x85EA3, size: 0x8, addend: 0x0, symName: __ZN4pyo35impl_16extract_argument19FunctionDescription26extract_arguments_fastcall17h32de42e99a7cc9b5E, symObjAddr: 0xDB0, symBinAddr: 0x16D84, symSize: 0x5D0 }
  - { offset: 0x86543, size: 0x8, addend: 0x0, symName: __ZN4rand3seq9gen_index17hf44f88fbd8fa0b84E, symObjAddr: 0x0, symBinAddr: 0x17794, symSize: 0x74 }
  - { offset: 0x8655A, size: 0x8, addend: 0x0, symName: __ZN4rand3seq9gen_index17hf44f88fbd8fa0b84E, symObjAddr: 0x0, symBinAddr: 0x17794, symSize: 0x74 }
  - { offset: 0x86608, size: 0x8, addend: 0x0, symName: '__ZN102_$LT$core..iter..adapters..zip..Zip$LT$A$C$B$GT$$u20$as$u20$core..iter..traits..iterator..Iterator$GT$4next17h653a2129cdc3c950E', symObjAddr: 0x0, symBinAddr: 0x17824, symSize: 0x24 }
  - { offset: 0x86681, size: 0x8, addend: 0x0, symName: '__ZN4core5array98_$LT$impl$u20$core..convert..TryFrom$LT$$RF$$u5b$T$u5d$$GT$$u20$for$u20$$u5b$T$u3b$$u20$N$u5d$$GT$8try_from17hc3281dff930b06a2E', symObjAddr: 0x5A8, symBinAddr: 0x17C3C, symSize: 0x84 }
  - { offset: 0x86801, size: 0x8, addend: 0x0, symName: '__ZN67_$LT$core..array..TryFromSliceError$u20$as$u20$core..fmt..Debug$GT$3fmt17h976f1ef6c279e5ccE', symObjAddr: 0xC84, symBinAddr: 0x1824C, symSize: 0x54 }
  - { offset: 0x86851, size: 0x8, addend: 0x0, symName: '__ZN102_$LT$core..iter..adapters..zip..Zip$LT$A$C$B$GT$$u20$as$u20$core..iter..traits..iterator..Iterator$GT$4next17h653a2129cdc3c950E', symObjAddr: 0x0, symBinAddr: 0x17824, symSize: 0x24 }
  - { offset: 0x86895, size: 0x8, addend: 0x0, symName: '__ZN111_$LT$core..iter..adapters..zip..Zip$LT$A$C$B$GT$$u20$as$u20$core..iter..adapters..zip..ZipImpl$LT$A$C$B$GT$$GT$3new17h2425525770937deeE', symObjAddr: 0x24, symBinAddr: 0x17848, symSize: 0xEC }
  - { offset: 0x8692A, size: 0x8, addend: 0x0, symName: '__ZN111_$LT$core..iter..adapters..zip..Zip$LT$A$C$B$GT$$u20$as$u20$core..iter..adapters..zip..ZipImpl$LT$A$C$B$GT$$GT$4next17he17c5856dd989ec1E', symObjAddr: 0x110, symBinAddr: 0x17934, symSize: 0xD0 }
  - { offset: 0x869FD, size: 0x8, addend: 0x0, symName: __ZN4core4iter8adapters3zip27TrustedRandomAccessNoCoerce4size17h8142a91b3a4e8f8dE, symObjAddr: 0x550, symBinAddr: 0x17BE4, symSize: 0x2C }
  - { offset: 0x86A34, size: 0x8, addend: 0x0, symName: __ZN4core4iter8adapters3zip27TrustedRandomAccessNoCoerce4size17hecee6cedf0d8f0a7E, symObjAddr: 0x57C, symBinAddr: 0x17C10, symSize: 0x2C }
  - { offset: 0x86A7D, size: 0x8, addend: 0x0, symName: __ZN4core4iter6traits8iterator8Iterator3zip17h9aa42ff50e3d871aE, symObjAddr: 0x4B4, symBinAddr: 0x17B48, symSize: 0x9C }
  - { offset: 0x86AFF, size: 0x8, addend: 0x0, symName: '__ZN63_$LT$I$u20$as$u20$core..iter..traits..collect..IntoIterator$GT$9into_iter17h0d232b92c8838e50E', symObjAddr: 0xB58, symBinAddr: 0x181EC, symSize: 0x30 }
  - { offset: 0x86B37, size: 0x8, addend: 0x0, symName: '__ZN63_$LT$I$u20$as$u20$core..iter..traits..collect..IntoIterator$GT$9into_iter17h9798a0b707e051ffE', symObjAddr: 0xB88, symBinAddr: 0x1821C, symSize: 0x30 }
  - { offset: 0x871CE, size: 0x8, addend: 0x0, symName: '__ZN4core3ptr9const_ptr33_$LT$impl$u20$$BP$const$u20$T$GT$20offset_from_unsigned18precondition_check17h77b0fbda555c0eaeE', symObjAddr: 0x408, symBinAddr: 0x17A9C, symSize: 0xAC }
  - { offset: 0x875C6, size: 0x8, addend: 0x0, symName: '__ZN4core3num21_$LT$impl$u20$u64$GT$13from_le_bytes17h8f0b8718d8029050E', symObjAddr: 0x370, symBinAddr: 0x17A04, symSize: 0x1C }
  - { offset: 0x87783, size: 0x8, addend: 0x0, symName: '__ZN94_$LT$core..slice..iter..IterMut$LT$T$GT$$u20$as$u20$core..iter..traits..iterator..Iterator$GT$24__iterator_get_unchecked17hfe85c238789c417eE', symObjAddr: 0x10D4, symBinAddr: 0x184A0, symSize: 0x20 }
  - { offset: 0x877DE, size: 0x8, addend: 0x0, symName: '__ZN94_$LT$core..slice..iter..IterMut$LT$T$GT$$u20$as$u20$core..iter..traits..iterator..Iterator$GT$9size_hint17h4d31e399551f9830E', symObjAddr: 0x10F4, symBinAddr: 0x184C0, symSize: 0x60 }
  - { offset: 0x87853, size: 0x8, addend: 0x0, symName: '__ZN98_$LT$core..slice..iter..ChunksExact$LT$T$GT$$u20$as$u20$core..iter..traits..iterator..Iterator$GT$24__iterator_get_unchecked17h5b818a996bee8e4fE', symObjAddr: 0x1154, symBinAddr: 0x18520, symSize: 0xA0 }
  - { offset: 0x87911, size: 0x8, addend: 0x0, symName: '__ZN98_$LT$core..slice..iter..ChunksExact$LT$T$GT$$u20$as$u20$core..iter..traits..iterator..Iterator$GT$9size_hint17hf789cd59ccb2572cE', symObjAddr: 0x11F4, symBinAddr: 0x185C0, symSize: 0x6C }
  - { offset: 0x879D9, size: 0x8, addend: 0x0, symName: '__ZN4core5slice29_$LT$impl$u20$$u5b$T$u5d$$GT$12chunks_exact17h6e963294a281b5c3E', symObjAddr: 0x62C, symBinAddr: 0x17CC0, symSize: 0x11C }
  - { offset: 0x87AD2, size: 0x8, addend: 0x0, symName: '__ZN4core5slice29_$LT$impl$u20$$u5b$T$u5d$$GT$18split_at_unchecked17ha1265a503dd056bdE', symObjAddr: 0x748, symBinAddr: 0x17DDC, symSize: 0xEC }
  - { offset: 0x87C30, size: 0x8, addend: 0x0, symName: '__ZN4core5slice29_$LT$impl$u20$$u5b$T$u5d$$GT$18split_at_unchecked18precondition_check17he97bc8e88a10cd3fE', symObjAddr: 0x834, symBinAddr: 0x17EC8, symSize: 0xAC }
  - { offset: 0x87C99, size: 0x8, addend: 0x0, symName: '__ZN4core5slice29_$LT$impl$u20$$u5b$T$u5d$$GT$8iter_mut17h13271c72bfa10209E', symObjAddr: 0x8E0, symBinAddr: 0x17F74, symSize: 0x28 }
  - { offset: 0x87D32, size: 0x8, addend: 0x0, symName: __ZN4core5slice3raw14from_raw_parts18precondition_check17he4544c4933a239ecE, symObjAddr: 0x908, symBinAddr: 0x17F9C, symSize: 0x1D8 }
  - { offset: 0x87FCC, size: 0x8, addend: 0x0, symName: '__ZN53_$LT$T$u20$as$u20$core..convert..TryInto$LT$U$GT$$GT$8try_into17hba4c86c33ef9c635E', symObjAddr: 0xB30, symBinAddr: 0x181C4, symSize: 0x28 }
  - { offset: 0x881EF, size: 0x8, addend: 0x0, symName: '__ZN4core3ptr8non_null16NonNull$LT$T$GT$20offset_from_unsigned17ha605db6e0607b0d0E', symObjAddr: 0x38C, symBinAddr: 0x17A20, symSize: 0x7C }
  - { offset: 0x88553, size: 0x8, addend: 0x0, symName: '__ZN4core5slice4iter16IterMut$LT$T$GT$3new17hc8567618ff1dbb5cE', symObjAddr: 0xAE0, symBinAddr: 0x18174, symSize: 0x50 }
  - { offset: 0x88663, size: 0x8, addend: 0x0, symName: '__ZN72_$LT$rand_pcg..pcg128..Lcg128Xsl64$u20$as$u20$rand_core..SeedableRng$GT$9from_seed17hf5233872022736f3E', symObjAddr: 0xD20, symBinAddr: 0x182A0, symSize: 0xA4 }
  - { offset: 0x88757, size: 0x8, addend: 0x0, symName: __ZN8rand_pcg6pcg12811Lcg128Xsl6415from_state_incr17ha774558e6293ad99E, symObjAddr: 0xEFC, symBinAddr: 0x18344, symSize: 0xA4 }
  - { offset: 0x887D6, size: 0x8, addend: 0x0, symName: __ZN8rand_pcg6pcg12811Lcg128Xsl644step17hfbd8eab0b14f9e38E, symObjAddr: 0xFF8, symBinAddr: 0x183E8, symSize: 0xB8 }
  - { offset: 0x888BB, size: 0x8, addend: 0x0, symName: __ZN9rand_core2le13read_u64_into17h1bad2c777d44d9e1E, symObjAddr: 0x1260, symBinAddr: 0x1862C, symSize: 0x1E4 }
  - { offset: 0x88B1F, size: 0x8, addend: 0x0, symName: '__ZN63_$LT$I$u20$as$u20$core..iter..traits..collect..IntoIterator$GT$9into_iter17h3b53793abcf34e5fE', symObjAddr: 0x1858, symBinAddr: 0x18810, symSize: 0x1C }
  - { offset: 0x88CC1, size: 0x8, addend: 0x0, symName: '__ZN4core5array76_$LT$impl$u20$core..default..Default$u20$for$u20$$u5b$T$u3b$$u20$32$u5d$$GT$7default17hb2ac92e413c20894E', symObjAddr: 0x1FF4, symBinAddr: 0x1882C, symSize: 0x110 }
  - { offset: 0x88F7A, size: 0x8, addend: 0x0, symName: '__ZN4core5array92_$LT$impl$u20$core..convert..AsMut$LT$$u5b$T$u5d$$GT$$u20$for$u20$$u5b$T$u3b$$u20$N$u5d$$GT$6as_mut17hc1bb6d3131d37f6dE', symObjAddr: 0x2104, symBinAddr: 0x1893C, symSize: 0x1C }
  - { offset: 0x89050, size: 0x8, addend: 0x0, symName: '__ZN101_$LT$core..slice..iter..ChunksExactMut$LT$T$GT$$u20$as$u20$core..iter..traits..iterator..Iterator$GT$4next17hfd7ce0621ba578e2E', symObjAddr: 0x0, symBinAddr: 0x18958, symSize: 0xF8 }
  - { offset: 0x892CD, size: 0x8, addend: 0x0, symName: '__ZN101_$LT$core..slice..iter..ChunksExactMut$LT$T$GT$$u20$as$u20$core..iter..traits..iterator..Iterator$GT$4next17hfd7ce0621ba578e2E', symObjAddr: 0x0, symBinAddr: 0x18958, symSize: 0xF8 }
  - { offset: 0x8944F, size: 0x8, addend: 0x0, symName: '__ZN4core5slice29_$LT$impl$u20$$u5b$T$u5d$$GT$16chunks_exact_mut17heca4f053a4701f29E', symObjAddr: 0x3930, symBinAddr: 0x18A98, symSize: 0x11C }
  - { offset: 0x89548, size: 0x8, addend: 0x0, symName: '__ZN4core5slice29_$LT$impl$u20$$u5b$T$u5d$$GT$22split_at_mut_unchecked17h3af1cb099ffdd222E', symObjAddr: 0x3A4C, symBinAddr: 0x18BB4, symSize: 0xF8 }
  - { offset: 0x8969F, size: 0x8, addend: 0x0, symName: '__ZN4core5slice29_$LT$impl$u20$$u5b$T$u5d$$GT$22split_at_mut_unchecked18precondition_check17ha23f1ad9daaafb51E', symObjAddr: 0x3B44, symBinAddr: 0x18CAC, symSize: 0xAC }
  - { offset: 0x89743, size: 0x8, addend: 0x0, symName: __ZN4core5slice3raw18from_raw_parts_mut18precondition_check17h14296a93d32a2955E, symObjAddr: 0x3C18, symBinAddr: 0x18D58, symSize: 0x1D8 }
  - { offset: 0x89FF3, size: 0x8, addend: 0x0, symName: '__ZN4core3fmt2rt38_$LT$impl$u20$core..fmt..Arguments$GT$9new_const17hbffef4e4e0964db0E', symObjAddr: 0x2BE0, symBinAddr: 0x18A50, symSize: 0x48 }
  - { offset: 0x8A1AD, size: 0x8, addend: 0x0, symName: __ZN9rand_core11SeedableRng13seed_from_u645pcg3217hbdc80fe0b7c443d3E, symObjAddr: 0x265C, symBinAddr: 0x19424, symSize: 0xD0 }
  - { offset: 0x8A46F, size: 0x8, addend: 0x0, symName: '__ZN4core3num21_$LT$impl$u20$u32$GT$11to_le_bytes17h76ddb0489dba73e6E', symObjAddr: 0xDDC, symBinAddr: 0x18F30, symSize: 0x18 }
  - { offset: 0x8A690, size: 0x8, addend: 0x0, symName: __ZN4core3ptr19copy_nonoverlapping18precondition_check17h6ae47f3d375d8cb4E, symObjAddr: 0xF58, symBinAddr: 0x18F48, symSize: 0x358 }
  - { offset: 0x8ABED, size: 0x8, addend: 0x0, symName: '__ZN4core5slice29_$LT$impl$u20$$u5b$T$u5d$$GT$15copy_from_slice17h247d456b1e73539dE', symObjAddr: 0x157C, symBinAddr: 0x192A0, symSize: 0xAC }
  - { offset: 0x8B0D5, size: 0x8, addend: 0x0, symName: __ZN4core9ub_checks23maybe_is_nonoverlapping7runtime17hd5f79e4d61f8e26dE, symObjAddr: 0x18C4, symBinAddr: 0x1934C, symSize: 0xD8 }
  - { offset: 0x8B86D, size: 0x8, addend: 0x0, symName: __ZN4core3cmp3Ord3min17he3bafb0b5b24b41dE, symObjAddr: 0x104, symBinAddr: 0x194F4, symSize: 0x80 }
  - { offset: 0x8BD91, size: 0x8, addend: 0x0, symName: '__ZN4core3fmt2rt38_$LT$impl$u20$core..fmt..Arguments$GT$6new_v117h2843f8222b9efdfcE', symObjAddr: 0x184, symBinAddr: 0x19574, symSize: 0x50 }
  - { offset: 0x8BDF5, size: 0x8, addend: 0x0, symName: '__ZN4core6option15Option$LT$T$GT$9unwrap_or17hfcffb46d73a07d0cE', symObjAddr: 0xA7C, symBinAddr: 0x195C4, symSize: 0x44 }
  - { offset: 0x8BE7E, size: 0x8, addend: 0x0, symName: __ZN5numpy6npyffi5array12PY_ARRAY_API17h29e36136837868daE, symObjAddr: 0x51C00, symBinAddr: 0xE1008, symSize: 0x0 }
  - { offset: 0x8E7AE, size: 0x8, addend: 0x0, symName: __ZN5numpy6npyffi5array15numpy_core_name8MOD_NAME17h6d70bcfd37f569e1E, symObjAddr: 0x51C10, symBinAddr: 0xE1098, symSize: 0x0 }
  - { offset: 0x8E7BB, size: 0x8, addend: 0x0, symName: '__ZN5numpy6npyffi5array15numpy_core_name28_$u7b$$u7b$closure$u7d$$u7d$17hf97361c3e9d4be6fE', symObjAddr: 0xEDA0, symBinAddr: 0x1AA4C, symSize: 0x53C }
  - { offset: 0x8E9EF, size: 0x8, addend: 0x0, symName: __ZN5numpy6npyffi5array8mod_name8MOD_NAME17h506b4ab6640e47bcE, symObjAddr: 0x12020, symBinAddr: 0xE04D0, symSize: 0x0 }
  - { offset: 0x8E9FC, size: 0x8, addend: 0x0, symName: '__ZN5numpy6npyffi5array8mod_name28_$u7b$$u7b$closure$u7d$$u7d$17hf0941cc62d4f6d1bE', symObjAddr: 0xF364, symBinAddr: 0x1AFC8, symSize: 0x10C }
  - { offset: 0x8EBF8, size: 0x8, addend: 0x0, symName: '__ZN5numpy6npyffi5array10PyArrayAPI3get28_$u7b$$u7b$closure$u7d$$u7d$17h585f1be24fc2e599E', symObjAddr: 0xE82C, symBinAddr: 0x1A934, symSize: 0x9C }
  - { offset: 0x8EC61, size: 0x8, addend: 0x0, symName: __ZN5numpy6npyffi5array13PyArray_Check17h3683a8dacd8da4caE, symObjAddr: 0xED24, symBinAddr: 0x1A9D0, symSize: 0x3C }
  - { offset: 0x8ECAA, size: 0x8, addend: 0x0, symName: __ZN5numpy6npyffi5array15numpy_core_name17h392fb0905d643c16E, symObjAddr: 0xED60, symBinAddr: 0x1AA0C, symSize: 0x40 }
  - { offset: 0x8ECE1, size: 0x8, addend: 0x0, symName: __ZN5numpy6npyffi5array8mod_name17h74961ec7d9c86bf5E, symObjAddr: 0xF324, symBinAddr: 0x1AF88, symSize: 0x40 }
  - { offset: 0x921BC, size: 0x8, addend: 0x0, symName: __ZN5numpy6npyffi5array10PyArrayAPI15get_type_object17h07178f9a22c96b92E, symObjAddr: 0x30BC, symBinAddr: 0x19608, symSize: 0x10D0 }
  - { offset: 0x9229B, size: 0x8, addend: 0x0, symName: __ZN5numpy6npyffi5array10PyArrayAPI18PyArray_EquivTypes17h28a2ca0efb711650E, symObjAddr: 0x5E24, symBinAddr: 0x1A6D8, symSize: 0xA4 }
  - { offset: 0x92649, size: 0x8, addend: 0x0, symName: __ZN5numpy6npyffi5array10PyArrayAPI21PyArray_DescrFromType17hb8b6a004439ec275E, symObjAddr: 0x8AD0, symBinAddr: 0x1A77C, symSize: 0x98 }
  - { offset: 0x92834, size: 0x8, addend: 0x0, symName: __ZN5numpy6npyffi5array10PyArrayAPI33PyArray_GetNDArrayCFeatureVersion17hbdfd62a090f48e52E, symObjAddr: 0xE160, symBinAddr: 0x1A814, symSize: 0x8C }
  - { offset: 0x92891, size: 0x8, addend: 0x0, symName: __ZN5numpy6npyffi5array10PyArrayAPI3get17h2ff9cd268cb3ef9bE, symObjAddr: 0xE798, symBinAddr: 0x1A8A0, symSize: 0x94 }
  - { offset: 0x92B34, size: 0x8, addend: 0x0, symName: '__ZN9hashbrown3raw21RawTable$LT$T$C$A$GT$14reserve_rehash28_$u7b$$u7b$closure$u7d$$u7d$17h04f0ef44b3eb2c05E', symObjAddr: 0x4728, symBinAddr: 0x1CDFC, symSize: 0xB8 }
  - { offset: 0x92CF1, size: 0x8, addend: 0x0, symName: '__ZN9hashbrown3raw21RawTable$LT$T$C$A$GT$14reserve_rehash28_$u7b$$u7b$closure$u7d$$u7d$17h318faba74ec2e059E', symObjAddr: 0x47E0, symBinAddr: 0x1CEB4, symSize: 0xB8 }
  - { offset: 0x92EAE, size: 0x8, addend: 0x0, symName: '__ZN9hashbrown3raw21RawTable$LT$T$C$A$GT$14reserve_rehash28_$u7b$$u7b$closure$u7d$$u7d$17h69acdc4f08274bfcE', symObjAddr: 0x4950, symBinAddr: 0x1CF6C, symSize: 0x30 }
  - { offset: 0x92F0B, size: 0x8, addend: 0x0, symName: '__ZN9hashbrown3raw21RawTable$LT$T$C$A$GT$24find_or_find_insert_slot28_$u7b$$u7b$closure$u7d$$u7d$17h985fbbd5cbf28528E', symObjAddr: 0x4C64, symBinAddr: 0x1D168, symSize: 0xBC }
  - { offset: 0x930DC, size: 0x8, addend: 0x0, symName: '__ZN9hashbrown3raw21RawTable$LT$T$C$A$GT$4find28_$u7b$$u7b$closure$u7d$$u7d$17h05c51cc2328904aaE', symObjAddr: 0x5C84, symBinAddr: 0x1DB60, symSize: 0xBC }
  - { offset: 0x9329E, size: 0x8, addend: 0x0, symName: '__ZN9hashbrown3raw21RawTable$LT$T$C$A$GT$4find28_$u7b$$u7b$closure$u7d$$u7d$17h68189806e3260b20E', symObjAddr: 0x5D40, symBinAddr: 0x1DC1C, symSize: 0xBC }
  - { offset: 0x93460, size: 0x8, addend: 0x0, symName: '__ZN9hashbrown3raw21RawTable$LT$T$C$A$GT$4find28_$u7b$$u7b$closure$u7d$$u7d$17hc6d676c116dd2e47E', symObjAddr: 0x5F74, symBinAddr: 0x1DCD8, symSize: 0xBC }
  - { offset: 0x941C4, size: 0x8, addend: 0x0, symName: '__ZN79_$LT$hashbrown..raw..RawTable$LT$T$C$A$GT$$u20$as$u20$core..ops..drop..Drop$GT$4drop17ha28e6c7fd5861404E', symObjAddr: 0x3C, symBinAddr: 0x1B0D4, symSize: 0x3C }
  - { offset: 0x94200, size: 0x8, addend: 0x0, symName: '__ZN79_$LT$hashbrown..raw..RawTable$LT$T$C$A$GT$$u20$as$u20$core..ops..drop..Drop$GT$4drop17hd1613d54cd2d6bacE', symObjAddr: 0xB4, symBinAddr: 0x1B110, symSize: 0x3C }
  - { offset: 0x9962A, size: 0x8, addend: 0x0, symName: __ZN9hashbrown3raw11TableLayout20calculate_layout_for17h0ccfb91f7a31589dE, symObjAddr: 0xF0, symBinAddr: 0x1B14C, symSize: 0x220 }
  - { offset: 0x999CF, size: 0x8, addend: 0x0, symName: __ZN9hashbrown3raw13RawTableInner13drop_elements17h9e15e71a7a60aa63E, symObjAddr: 0x310, symBinAddr: 0x1B36C, symSize: 0x28 }
  - { offset: 0x99CEF, size: 0x8, addend: 0x0, symName: __ZN9hashbrown3raw13RawTableInner13drop_elements17he962930b55af0646E, symObjAddr: 0x5E0, symBinAddr: 0x1B394, symSize: 0x154 }
  - { offset: 0x9A19A, size: 0x8, addend: 0x0, symName: __ZN9hashbrown3raw13RawTableInner15fix_insert_slot17h605584b4800c2fe5E, symObjAddr: 0x734, symBinAddr: 0x1B4E8, symSize: 0x10C }
  - { offset: 0x9A512, size: 0x8, addend: 0x0, symName: __ZN9hashbrown3raw13RawTableInner15rehash_in_place17h558e99fb3dad248eE, symObjAddr: 0x840, symBinAddr: 0x1B5F4, symSize: 0x408 }
  - { offset: 0x9AD0A, size: 0x8, addend: 0x0, symName: __ZN9hashbrown3raw13RawTableInner16drop_inner_table17h40382575b7adc639E, symObjAddr: 0xCF8, symBinAddr: 0x1B9FC, symSize: 0xB0 }
  - { offset: 0x9AF8F, size: 0x8, addend: 0x0, symName: __ZN9hashbrown3raw13RawTableInner16drop_inner_table17h85ee8acdc20babd6E, symObjAddr: 0xDA8, symBinAddr: 0x1BAAC, symSize: 0xB0 }
  - { offset: 0x9B1EB, size: 0x8, addend: 0x0, symName: __ZN9hashbrown3raw13RawTableInner16find_insert_slot17h8d097ae9dad7465aE, symObjAddr: 0xF08, symBinAddr: 0x1BB5C, symSize: 0xFC }
  - { offset: 0x9B3D1, size: 0x8, addend: 0x0, symName: __ZN9hashbrown3raw13RawTableInner19prepare_insert_slot17h72ef433b11ebede6E, symObjAddr: 0x1004, symBinAddr: 0x1BC58, symSize: 0x74 }
  - { offset: 0x9B6C2, size: 0x8, addend: 0x0, symName: __ZN9hashbrown3raw13RawTableInner23prepare_rehash_in_place17h76dbfd999d2c7492E, symObjAddr: 0x1078, symBinAddr: 0x1BCCC, symSize: 0x218 }
  - { offset: 0x9BCF8, size: 0x8, addend: 0x0, symName: __ZN9hashbrown3raw13RawTableInner25find_insert_slot_in_group17h189d901f0147d810E, symObjAddr: 0x1290, symBinAddr: 0x1BEE4, symSize: 0x144 }
  - { offset: 0x9BFAD, size: 0x8, addend: 0x0, symName: __ZN9hashbrown3raw13RawTableInner30find_or_find_insert_slot_inner17h6fb662f0c428d758E, symObjAddr: 0x13D4, symBinAddr: 0x1C028, symSize: 0x2A0 }
  - { offset: 0x9C3CF, size: 0x8, addend: 0x0, symName: __ZN9hashbrown3raw13RawTableInner5erase17hf41e0fbb46dfc8e0E, symObjAddr: 0x1674, symBinAddr: 0x1C2C8, symSize: 0x178 }
  - { offset: 0x9C70E, size: 0x8, addend: 0x0, symName: '__ZN9hashbrown3raw21RawIterRange$LT$T$GT$3new17hafa94eff53bafd4aE', symObjAddr: 0x1890, symBinAddr: 0x1C440, symSize: 0xA4 }
  - { offset: 0x9C8B9, size: 0x8, addend: 0x0, symName: '__ZN9hashbrown3raw21RawIterRange$LT$T$GT$3new17hc7eaf73001f4cbd0E', symObjAddr: 0x19D8, symBinAddr: 0x1C4E4, symSize: 0xA4 }
  - { offset: 0x9CB8B, size: 0x8, addend: 0x0, symName: '__ZN9hashbrown3raw21RawIterRange$LT$T$GT$9next_impl17h2bc5bcd6b553c76aE', symObjAddr: 0x1C3C, symBinAddr: 0x1C588, symSize: 0x1C0 }
  - { offset: 0x9D014, size: 0x8, addend: 0x0, symName: '__ZN9hashbrown3raw21RawIterRange$LT$T$GT$9next_impl17h4533149a3937dffeE', symObjAddr: 0x1DFC, symBinAddr: 0x1C748, symSize: 0x1C0 }
  - { offset: 0x9D350, size: 0x8, addend: 0x0, symName: '__ZN9hashbrown3raw21RawTable$LT$T$C$A$GT$12remove_entry17h572135ac153cfc1dE', symObjAddr: 0x217C, symBinAddr: 0x1C908, symSize: 0xA4 }
  - { offset: 0x9D3D7, size: 0x8, addend: 0x0, symName: '__ZN9hashbrown3raw21RawTable$LT$T$C$A$GT$12remove_entry17h79c2ead25d7d5f66E', symObjAddr: 0x2220, symBinAddr: 0x1C9AC, symSize: 0xB4 }
  - { offset: 0x9D4E9, size: 0x8, addend: 0x0, symName: '__ZN9hashbrown3raw21RawTable$LT$T$C$A$GT$13erase_no_drop17h00e5a8b509ab8056E', symObjAddr: 0x22D4, symBinAddr: 0x1CA60, symSize: 0x90 }
  - { offset: 0x9D6DC, size: 0x8, addend: 0x0, symName: '__ZN9hashbrown3raw21RawTable$LT$T$C$A$GT$13erase_no_drop17h0e328989958bf47dE', symObjAddr: 0x2364, symBinAddr: 0x1CAF0, symSize: 0x90 }
  - { offset: 0x9DA1A, size: 0x8, addend: 0x0, symName: '__ZN9hashbrown3raw21RawTable$LT$T$C$A$GT$14insert_in_slot17h31ab737747b9adb3E', symObjAddr: 0x23F4, symBinAddr: 0x1CB80, symSize: 0x12C }
  - { offset: 0x9DEE2, size: 0x8, addend: 0x0, symName: '__ZN9hashbrown3raw21RawTable$LT$T$C$A$GT$14insert_no_grow17h79af80030444923aE', symObjAddr: 0x2678, symBinAddr: 0x1CCAC, symSize: 0x150 }
  - { offset: 0x9E536, size: 0x8, addend: 0x0, symName: '__ZN9hashbrown3raw21RawTable$LT$T$C$A$GT$14reserve_rehash17haa51ad2358478c6bE', symObjAddr: 0x30A8, symBinAddr: 0x8D4F4, symSize: 0x778 }
  - { offset: 0x9ED46, size: 0x8, addend: 0x0, symName: '__ZN9hashbrown3raw21RawTable$LT$T$C$A$GT$14reserve_rehash17hfa9d7bbdb757b872E', symObjAddr: 0x3FA8, symBinAddr: 0x8DC6C, symSize: 0x780 }
  - { offset: 0x9F846, size: 0x8, addend: 0x0, symName: '__ZN9hashbrown3raw21RawTable$LT$T$C$A$GT$16with_capacity_in17h638f30b598b84c6bE', symObjAddr: 0x4A98, symBinAddr: 0x1CF9C, symSize: 0x98 }
  - { offset: 0x9F9BA, size: 0x8, addend: 0x0, symName: '__ZN9hashbrown3raw21RawTable$LT$T$C$A$GT$24find_or_find_insert_slot17h59e2b18a93b1f5bcE', symObjAddr: 0x4B30, symBinAddr: 0x1D034, symSize: 0x134 }
  - { offset: 0x9FF6D, size: 0x8, addend: 0x0, symName: '__ZN9hashbrown3raw21RawTable$LT$T$C$A$GT$4find17h12e11ea6a00093bcE', symObjAddr: 0x4D20, symBinAddr: 0x1D224, symSize: 0x314 }
  - { offset: 0xA04F5, size: 0x8, addend: 0x0, symName: '__ZN9hashbrown3raw21RawTable$LT$T$C$A$GT$4find17h63f18b3d26155e4bE', symObjAddr: 0x5348, symBinAddr: 0x1D538, symSize: 0x314 }
  - { offset: 0xA0A7D, size: 0x8, addend: 0x0, symName: '__ZN9hashbrown3raw21RawTable$LT$T$C$A$GT$4find17hf3610e747e328c78E', symObjAddr: 0x5970, symBinAddr: 0x1D84C, symSize: 0x314 }
  - { offset: 0xA13FC, size: 0x8, addend: 0x0, symName: '__ZN9hashbrown3raw21RawTable$LT$T$C$A$GT$6remove17h12fb6581e0f2310eE', symObjAddr: 0x6030, symBinAddr: 0x1DD94, symSize: 0x100 }
  - { offset: 0xA16D1, size: 0x8, addend: 0x0, symName: '__ZN9hashbrown3raw21RawTable$LT$T$C$A$GT$6remove17ha4a77de9704335afE', symObjAddr: 0x6130, symBinAddr: 0x1DE94, symSize: 0x100 }
  - { offset: 0xA18E6, size: 0x8, addend: 0x0, symName: '__ZN9hashbrown3raw21RawTable$LT$T$C$A$GT$7reserve17h07edddc69f62b503E', symObjAddr: 0x6230, symBinAddr: 0x1DF94, symSize: 0xB0 }
  - { offset: 0xA19EA, size: 0x8, addend: 0x0, symName: '__ZN9hashbrown3raw21RawTable$LT$T$C$A$GT$7reserve17hfa3f8bdf6cb38603E', symObjAddr: 0x6440, symBinAddr: 0x1E044, symSize: 0xB0 }
  - { offset: 0xA3284, size: 0x8, addend: 0x0, symName: __ZN4core3mem6forget17h70aff516fcb7874bE, symObjAddr: 0x52C, symBinAddr: 0x1E430, symSize: 0x10 }
  - { offset: 0xA33A1, size: 0x8, addend: 0x0, symName: __ZN4core4iter8adapters3zip27TrustedRandomAccessNoCoerce4size17h5c157fb8d4b59979E, symObjAddr: 0x620, symBinAddr: 0x1E524, symSize: 0x2C }
  - { offset: 0xA3427, size: 0x8, addend: 0x0, symName: __ZN4core4iter6traits8iterator8Iterator3zip17hb624aad54f799549E, symObjAddr: 0x53C, symBinAddr: 0x1E440, symSize: 0xC8 }
  - { offset: 0xA349D, size: 0x8, addend: 0x0, symName: __ZN4core4iter6traits8iterator8Iterator6copied17hb1af6094b0506a75E, symObjAddr: 0x604, symBinAddr: 0x1E508, symSize: 0x1C }
  - { offset: 0xA34E9, size: 0x8, addend: 0x0, symName: '__ZN63_$LT$I$u20$as$u20$core..iter..traits..collect..IntoIterator$GT$9into_iter17h5d971b604404cf55E', symObjAddr: 0x656C, symBinAddr: 0x1FBE0, symSize: 0x1C }
  - { offset: 0xA35BD, size: 0x8, addend: 0x0, symName: '__ZN4core5slice4iter87_$LT$impl$u20$core..iter..traits..collect..IntoIterator$u20$for$u20$$RF$$u5b$T$u5d$$GT$9into_iter17h4bc1b908e7c7ffd2E', symObjAddr: 0x69C, symBinAddr: 0x1E5A0, symSize: 0x50 }
  - { offset: 0xA3700, size: 0x8, addend: 0x0, symName: '__ZN91_$LT$core..slice..iter..Iter$LT$T$GT$$u20$as$u20$core..iter..traits..iterator..Iterator$GT$24__iterator_get_unchecked17h0c1a89367f0bcfdbE', symObjAddr: 0x6940, symBinAddr: 0x1FE64, symSize: 0x20 }
  - { offset: 0xA37AA, size: 0x8, addend: 0x0, symName: '__ZN91_$LT$core..slice..iter..Iter$LT$T$GT$$u20$as$u20$core..iter..traits..iterator..Iterator$GT$3all17h2af521395421f3a3E', symObjAddr: 0x6960, symBinAddr: 0x1FE84, symSize: 0xE0 }
  - { offset: 0xA3883, size: 0x8, addend: 0x0, symName: '__ZN91_$LT$core..slice..iter..Iter$LT$T$GT$$u20$as$u20$core..iter..traits..iterator..Iterator$GT$4fold17hd32ddcf4a986ea72E', symObjAddr: 0x6A40, symBinAddr: 0x1FF64, symSize: 0x1A4 }
  - { offset: 0xA39B5, size: 0x8, addend: 0x0, symName: '__ZN91_$LT$core..slice..iter..Iter$LT$T$GT$$u20$as$u20$core..iter..traits..iterator..Iterator$GT$4next17hac409bec03a9eb28E', symObjAddr: 0x6BE4, symBinAddr: 0x20108, symSize: 0x84 }
  - { offset: 0xA3A6B, size: 0x8, addend: 0x0, symName: '__ZN91_$LT$core..slice..iter..Iter$LT$T$GT$$u20$as$u20$core..iter..traits..iterator..Iterator$GT$4next17hec5edd6408b3208fE', symObjAddr: 0x6C68, symBinAddr: 0x2018C, symSize: 0x84 }
  - { offset: 0xA3B21, size: 0x8, addend: 0x0, symName: '__ZN91_$LT$core..slice..iter..Iter$LT$T$GT$$u20$as$u20$core..iter..traits..iterator..Iterator$GT$9size_hint17h1a095539f927c525E', symObjAddr: 0x6CEC, symBinAddr: 0x20210, symSize: 0x60 }
  - { offset: 0xA3C0A, size: 0x8, addend: 0x0, symName: __ZN4core9core_arch7aarch644neon9generated7vld1_u817h600f1ebe94365a47E, symObjAddr: 0x6EC, symBinAddr: 0x1E5F0, symSize: 0x34 }
  - { offset: 0xA3C38, size: 0x8, addend: 0x0, symName: __ZN4core9core_arch7aarch644neon9generated7vst1_u817h217bd78c0bd287bcE, symObjAddr: 0x720, symBinAddr: 0x1E624, symSize: 0x40 }
  - { offset: 0xA3C72, size: 0x8, addend: 0x0, symName: __ZN4core9core_arch7aarch644neon9generated8vcgez_s817h90a49aeb66f3c757E, symObjAddr: 0x760, symBinAddr: 0x1E664, symSize: 0x68 }
  - { offset: 0xA3D14, size: 0x8, addend: 0x0, symName: __ZN4core9core_arch7aarch644neon9generated8vcltz_s817h7563759bad74d546E, symObjAddr: 0x7C8, symBinAddr: 0x1E6CC, symSize: 0x68 }
  - { offset: 0xA49E0, size: 0x8, addend: 0x0, symName: '__ZN45_$LT$i32$u20$as$u20$numpy..dtype..Element$GT$15get_dtype_bound17hbbdda1d1d495a03aE', symObjAddr: 0x10C, symBinAddr: 0x1E0F4, symSize: 0x20 }
  - { offset: 0xA4A79, size: 0x8, addend: 0x0, symName: __ZN5numpy5dtype12npy_int_type17he8a7c1f0b092297cE, symObjAddr: 0x3884, symBinAddr: 0x1F5BC, symSize: 0x234 }
  - { offset: 0xA4ACD, size: 0x8, addend: 0x0, symName: __ZN5numpy5dtype19npy_int_type_lookup17h28759b663c2d9a77E, symObjAddr: 0x3F1C, symBinAddr: 0x1F7F0, symSize: 0xFC }
  - { offset: 0xA4BE7, size: 0x8, addend: 0x0, symName: __ZN5numpy5dtype19npy_int_type_lookup17h84805fe4bb326846E, symObjAddr: 0x4018, symBinAddr: 0x1F8EC, symSize: 0xFC }
  - { offset: 0xA4D01, size: 0x8, addend: 0x0, symName: __ZN5numpy5dtype19npy_int_type_lookup17hd126b68289e1ee69E, symObjAddr: 0x4114, symBinAddr: 0x1F9E8, symSize: 0xFC }
  - { offset: 0xA4E1B, size: 0x8, addend: 0x0, symName: __ZN5numpy5dtype19npy_int_type_lookup17hdd8a646c99069e7cE, symObjAddr: 0x4210, symBinAddr: 0x1FAE4, symSize: 0xFC }
  - { offset: 0xA535D, size: 0x8, addend: 0x0, symName: '__ZN4pyo34sync20GILOnceCell$LT$T$GT$11get_or_init28_$u7b$$u7b$closure$u7d$$u7d$17hec9f14f737afb44cE', symObjAddr: 0x958, symBinAddr: 0x1E80C, symSize: 0x24 }
  - { offset: 0xA592D, size: 0x8, addend: 0x0, symName: '__ZN87_$LT$$BP$mut$u20$pyo3_ffi..object..PyObject$u20$as$u20$pyo3..ffi_ptr_ext..FfiPtrExt$GT$19assume_owned_or_err17h3ed537ea2269c4e2E', symObjAddr: 0x66D8, symBinAddr: 0x1FBFC, symSize: 0x24 }
  - { offset: 0xA5972, size: 0x8, addend: 0x0, symName: '__ZN87_$LT$$BP$mut$u20$pyo3_ffi..object..PyObject$u20$as$u20$pyo3..ffi_ptr_ext..FfiPtrExt$GT$22assume_borrowed_or_opt17hf5508e91ae0dd2b3E', symObjAddr: 0x66FC, symBinAddr: 0x1FC20, symSize: 0x24 }
  - { offset: 0xA59B7, size: 0x8, addend: 0x0, symName: '__ZN87_$LT$$BP$mut$u20$pyo3_ffi..object..PyObject$u20$as$u20$pyo3..ffi_ptr_ext..FfiPtrExt$GT$25assume_borrowed_unchecked17h22bbbf422a84e526E', symObjAddr: 0x6720, symBinAddr: 0x1FC44, symSize: 0x24 }
  - { offset: 0xA5CA9, size: 0x8, addend: 0x0, symName: __ZN8pyo3_ffi6object17PyType_HasFeature17h7181a933a096ae2dE, symObjAddr: 0x6774, symBinAddr: 0x1FC98, symSize: 0x88 }
  - { offset: 0xA5CE6, size: 0x8, addend: 0x0, symName: __ZN8pyo3_ffi6object18PyObject_TypeCheck17h5e8b9deec0c8f3f7E, symObjAddr: 0x67FC, symBinAddr: 0x1FD20, symSize: 0x74 }
  - { offset: 0xA5D23, size: 0x8, addend: 0x0, symName: __ZN8pyo3_ffi6object19PyType_FastSubclass17h2ad5d597a0972ad6E, symObjAddr: 0x6870, symBinAddr: 0x1FD94, symSize: 0x28 }
  - { offset: 0xA5D60, size: 0x8, addend: 0x0, symName: __ZN8pyo3_ffi6object7Py_TYPE17hd2ce99938b6bcac2E, symObjAddr: 0x6898, symBinAddr: 0x1FDBC, symSize: 0x74 }
  - { offset: 0xA64A4, size: 0x8, addend: 0x0, symName: __ZN8pyo3_ffi13unicodeobject15PyUnicode_Check17h0a48b074fb7cd7daE, symObjAddr: 0x6744, symBinAddr: 0x1FC68, symSize: 0x30 }
  - { offset: 0xA64D6, size: 0x8, addend: 0x0, symName: __ZN8pyo3_ffi9pycapsule20PyCapsule_CheckExact17ha9478d851c3e6ea1E, symObjAddr: 0x690C, symBinAddr: 0x1FE30, symSize: 0x34 }
  - { offset: 0xA6523, size: 0x8, addend: 0x0, symName: '__ZN46_$LT$isize$u20$as$u20$num_integer..Integer$GT$3gcd17h9ac7482e8726dc04E', symObjAddr: 0x1CC, symBinAddr: 0x1E114, symSize: 0x31C }
  - { offset: 0xA67E6, size: 0x8, addend: 0x0, symName: '__ZN4core5slice4iter13Iter$LT$T$GT$3new17h649414586c5a11b9E', symObjAddr: 0x64C, symBinAddr: 0x1E550, symSize: 0x50 }
  - { offset: 0xA6AF8, size: 0x8, addend: 0x0, symName: '__ZN4pyo34sync20GILOnceCell$LT$T$GT$11get_or_init17hf68608d2347ad4c2E', symObjAddr: 0x880, symBinAddr: 0x1E734, symSize: 0xD8 }
  - { offset: 0xA7016, size: 0x8, addend: 0x0, symName: '__ZN4pyo34sync20GILOnceCell$LT$T$GT$15get_or_try_init17h4865692cc242e9a5E', symObjAddr: 0x97C, symBinAddr: 0x1E830, symSize: 0xC0 }
  - { offset: 0xA70A9, size: 0x8, addend: 0x0, symName: '__ZN4pyo34sync20GILOnceCell$LT$T$GT$15get_or_try_init17h531fa72f7f156ce0E', symObjAddr: 0xA3C, symBinAddr: 0x1E8F0, symSize: 0xC0 }
  - { offset: 0xA713C, size: 0x8, addend: 0x0, symName: '__ZN4pyo34sync20GILOnceCell$LT$T$GT$15get_or_try_init17h8034e1b1a32d2d4eE', symObjAddr: 0xBBC, symBinAddr: 0x1E9B0, symSize: 0xC0 }
  - { offset: 0xA728B, size: 0x8, addend: 0x0, symName: '__ZN4pyo34sync20GILOnceCell$LT$T$GT$15get_or_try_init17hb61b310a4a55382fE', symObjAddr: 0xDF0, symBinAddr: 0x1EA70, symSize: 0xC0 }
  - { offset: 0xA7304, size: 0x8, addend: 0x0, symName: '__ZN4pyo34sync20GILOnceCell$LT$T$GT$3get17h3ca707e40dc2868fE', symObjAddr: 0xEB0, symBinAddr: 0x1EB30, symSize: 0x70 }
  - { offset: 0xA7348, size: 0x8, addend: 0x0, symName: '__ZN4pyo34sync20GILOnceCell$LT$T$GT$3get17h3ef7abf8379746e6E', symObjAddr: 0xF20, symBinAddr: 0x1EBA0, symSize: 0x70 }
  - { offset: 0xA738C, size: 0x8, addend: 0x0, symName: '__ZN4pyo34sync20GILOnceCell$LT$T$GT$3get17h6209ab6d4f4ae26dE', symObjAddr: 0xF90, symBinAddr: 0x1EC10, symSize: 0x70 }
  - { offset: 0xA73D0, size: 0x8, addend: 0x0, symName: '__ZN4pyo34sync20GILOnceCell$LT$T$GT$3get17h9f552e715ad347faE', symObjAddr: 0x1000, symBinAddr: 0x1EC80, symSize: 0x70 }
  - { offset: 0xA7414, size: 0x8, addend: 0x0, symName: '__ZN4pyo34sync20GILOnceCell$LT$T$GT$3get17hc7cdd64b76a2a3c5E', symObjAddr: 0x1070, symBinAddr: 0x1ECF0, symSize: 0x70 }
  - { offset: 0xA7458, size: 0x8, addend: 0x0, symName: '__ZN4pyo34sync20GILOnceCell$LT$T$GT$3get17hca970dbbbeb88013E', symObjAddr: 0x10E0, symBinAddr: 0x1ED60, symSize: 0x70 }
  - { offset: 0xA74D2, size: 0x8, addend: 0x0, symName: '__ZN4pyo34sync20GILOnceCell$LT$T$GT$3set17h377f467914c54c4bE', symObjAddr: 0x1150, symBinAddr: 0x1EDD0, symSize: 0x194 }
  - { offset: 0xA758D, size: 0x8, addend: 0x0, symName: '__ZN4pyo34sync20GILOnceCell$LT$T$GT$3set17h43a5caa8132dada1E', symObjAddr: 0x12E4, symBinAddr: 0x1EF64, symSize: 0x11C }
  - { offset: 0xA7647, size: 0x8, addend: 0x0, symName: '__ZN4pyo34sync20GILOnceCell$LT$T$GT$3set17h52e940d5310e3d14E', symObjAddr: 0x1400, symBinAddr: 0x1F080, symSize: 0x124 }
  - { offset: 0xA7702, size: 0x8, addend: 0x0, symName: '__ZN4pyo34sync20GILOnceCell$LT$T$GT$3set17h986feac74a7ef18bE', symObjAddr: 0x1524, symBinAddr: 0x1F1A4, symSize: 0x11C }
  - { offset: 0xA77BD, size: 0x8, addend: 0x0, symName: '__ZN4pyo34sync20GILOnceCell$LT$T$GT$3set17hb17a2a4ef977838cE', symObjAddr: 0x1640, symBinAddr: 0x1F2C0, symSize: 0x194 }
  - { offset: 0xA7878, size: 0x8, addend: 0x0, symName: '__ZN4pyo34sync20GILOnceCell$LT$T$GT$3set17heda29db6b62beccbE', symObjAddr: 0x17D4, symBinAddr: 0x1F454, symSize: 0x11C }
  - { offset: 0xA7928, size: 0x8, addend: 0x0, symName: '__ZN4pyo34sync20GILOnceCell$LT$T$GT$4init17h2313dddbf1f1b6dcE', symObjAddr: 0x18F0, symBinAddr: 0x8E3EC, symSize: 0x158 }
  - { offset: 0xA7A29, size: 0x8, addend: 0x0, symName: '__ZN4pyo34sync20GILOnceCell$LT$T$GT$4init17h5e427a12439aa1bcE', symObjAddr: 0x1BC8, symBinAddr: 0x8E544, symSize: 0xF8 }
  - { offset: 0xA7B32, size: 0x8, addend: 0x0, symName: '__ZN4pyo34sync20GILOnceCell$LT$T$GT$4init17h7fd57d8dd21024d6E', symObjAddr: 0x1E04, symBinAddr: 0x8E63C, symSize: 0x190 }
  - { offset: 0xA7C06, size: 0x8, addend: 0x0, symName: '__ZN4pyo34sync20GILOnceCell$LT$T$GT$4init17hcebc2059ac3fc362E', symObjAddr: 0x1F94, symBinAddr: 0x8E7CC, symSize: 0x144 }
  - { offset: 0xA7D04, size: 0x8, addend: 0x0, symName: '__ZN4pyo34sync20GILOnceCell$LT$T$GT$4init17hdcfc8b06f605fc94E', symObjAddr: 0x20D8, symBinAddr: 0x8E910, symSize: 0x144 }
  - { offset: 0xA7E77, size: 0x8, addend: 0x0, symName: __ZN5numpy5dtype12PyArrayDescr13from_npy_type17he651a90c3418d0c9E, symObjAddr: 0x27B8, symBinAddr: 0x1F570, symSize: 0x4C }
  - { offset: 0xA80EA, size: 0x8, addend: 0x0, symName: '__ZN105_$LT$std..collections..hash..map..Iter$LT$K$C$V$GT$$u20$as$u20$core..iter..traits..iterator..Iterator$GT$4next17h3057ada5c881f843E', symObjAddr: 0x0, symBinAddr: 0x20270, symSize: 0x24 }
  - { offset: 0xA84EF, size: 0x8, addend: 0x0, symName: '__ZN71_$LT$alloc..borrow..Cow$LT$B$GT$$u20$as$u20$core..ops..deref..Deref$GT$5deref17h07ddd10040aa0acaE', symObjAddr: 0x3F10, symBinAddr: 0x21C7C, symSize: 0x70 }
  - { offset: 0xA860A, size: 0x8, addend: 0x0, symName: '__ZN64_$LT$alloc..ffi..c_str..NulError$u20$as$u20$core..fmt..Debug$GT$3fmt17hc6773f236af62fa8E', symObjAddr: 0x3D64, symBinAddr: 0x21C00, symSize: 0x5C }
  - { offset: 0xA864A, size: 0x8, addend: 0x0, symName: '__ZN70_$LT$alloc..ffi..c_str..CString$u20$as$u20$core..ops..deref..Deref$GT$5deref17hd5bfbea82cd97e9bE', symObjAddr: 0x3EF0, symBinAddr: 0x21C5C, symSize: 0x20 }
  - { offset: 0xA86D8, size: 0x8, addend: 0x0, symName: '__ZN97_$LT$alloc..ffi..c_str..CString$u20$as$u20$core..borrow..Borrow$LT$core..ffi..c_str..CStr$GT$$GT$6borrow17h0497ca1af82bee37E', symObjAddr: 0x4D1C, symBinAddr: 0x223F4, symSize: 0x20 }
  - { offset: 0xA8789, size: 0x8, addend: 0x0, symName: __ZN5alloc3fmt6format17h9755d70dd0abc405E, symObjAddr: 0x3588, symBinAddr: 0x21A94, symSize: 0xC4 }
  - { offset: 0xA8AAD, size: 0x8, addend: 0x0, symName: '__ZN4core3ptr7mut_ptr31_$LT$impl$u20$$BP$mut$u20$T$GT$6offset18precondition_check17hdd875215eea167b2E', symObjAddr: 0x19C8, symBinAddr: 0x20DC8, symSize: 0x110 }
  - { offset: 0xA8DF9, size: 0x8, addend: 0x0, symName: '__ZN4core3ptr9const_ptr33_$LT$impl$u20$$BP$const$u20$T$GT$11offset_from17hcc818cda5f05f077E', symObjAddr: 0x1AF0, symBinAddr: 0x20ED8, symSize: 0x48 }
  - { offset: 0xA8E77, size: 0x8, addend: 0x0, symName: '__ZN4core3ptr9const_ptr33_$LT$impl$u20$$BP$const$u20$T$GT$20offset_from_unsigned18precondition_check17h1191e2b61acc5ad1E', symObjAddr: 0x1B38, symBinAddr: 0x20F20, symSize: 0xAC }
  - { offset: 0xA8F75, size: 0x8, addend: 0x0, symName: '__ZN4core3ptr9const_ptr33_$LT$impl$u20$$BP$const$u20$T$GT$6offset18precondition_check17h93e6cb2356e29e29E', symObjAddr: 0x1BE4, symBinAddr: 0x20FCC, symSize: 0x110 }
  - { offset: 0xA93C2, size: 0x8, addend: 0x0, symName: '__ZN4core3num23_$LT$impl$u20$usize$GT$13unchecked_add18precondition_check17h9e123365c94fb7e8E', symObjAddr: 0x18C0, symBinAddr: 0x20D18, symSize: 0xB0 }
  - { offset: 0xA94CD, size: 0x8, addend: 0x0, symName: '__ZN4core3num23_$LT$impl$u20$isize$GT$3abs17h5ed5e7443631e0e1E', symObjAddr: 0x1854, symBinAddr: 0x20CAC, symSize: 0x6C }
  - { offset: 0xAA42D, size: 0x8, addend: 0x0, symName: __ZN4core4hash6Hasher11write_isize17h887e95a8e813b82dE, symObjAddr: 0x1E7C, symBinAddr: 0x210DC, symSize: 0x28 }
  - { offset: 0xAA4FB, size: 0x8, addend: 0x0, symName: '__ZN153_$LT$core..result..Result$LT$T$C$F$GT$$u20$as$u20$core..ops..try_trait..FromResidual$LT$core..result..Result$LT$core..convert..Infallible$C$E$GT$$GT$$GT$13from_residual17h0866aa9bdcf22ffbE', symObjAddr: 0x4BC, symBinAddr: 0x20590, symSize: 0x48 }
  - { offset: 0xAA580, size: 0x8, addend: 0x0, symName: '__ZN153_$LT$core..result..Result$LT$T$C$F$GT$$u20$as$u20$core..ops..try_trait..FromResidual$LT$core..result..Result$LT$core..convert..Infallible$C$E$GT$$GT$$GT$13from_residual17h21f0d20b049ca417E', symObjAddr: 0x50C, symBinAddr: 0x205D8, symSize: 0x58 }
  - { offset: 0xAA5E8, size: 0x8, addend: 0x0, symName: '__ZN153_$LT$core..result..Result$LT$T$C$F$GT$$u20$as$u20$core..ops..try_trait..FromResidual$LT$core..result..Result$LT$core..convert..Infallible$C$E$GT$$GT$$GT$13from_residual17h2530a7321bc1142cE', symObjAddr: 0x564, symBinAddr: 0x20630, symSize: 0x48 }
  - { offset: 0xAA66D, size: 0x8, addend: 0x0, symName: '__ZN153_$LT$core..result..Result$LT$T$C$F$GT$$u20$as$u20$core..ops..try_trait..FromResidual$LT$core..result..Result$LT$core..convert..Infallible$C$E$GT$$GT$$GT$13from_residual17h3f28f446111a90ebE', symObjAddr: 0x5AC, symBinAddr: 0x20678, symSize: 0x58 }
  - { offset: 0xAA6D5, size: 0x8, addend: 0x0, symName: '__ZN153_$LT$core..result..Result$LT$T$C$F$GT$$u20$as$u20$core..ops..try_trait..FromResidual$LT$core..result..Result$LT$core..convert..Infallible$C$E$GT$$GT$$GT$13from_residual17h5fda06e3ddd66a41E', symObjAddr: 0x64C, symBinAddr: 0x206D0, symSize: 0x48 }
  - { offset: 0xAA75A, size: 0x8, addend: 0x0, symName: '__ZN153_$LT$core..result..Result$LT$T$C$F$GT$$u20$as$u20$core..ops..try_trait..FromResidual$LT$core..result..Result$LT$core..convert..Infallible$C$E$GT$$GT$$GT$13from_residual17h6622ec45a33010caE', symObjAddr: 0x694, symBinAddr: 0x20718, symSize: 0x48 }
  - { offset: 0xAA7DF, size: 0x8, addend: 0x0, symName: '__ZN153_$LT$core..result..Result$LT$T$C$F$GT$$u20$as$u20$core..ops..try_trait..FromResidual$LT$core..result..Result$LT$core..convert..Infallible$C$E$GT$$GT$$GT$13from_residual17h9f17e8658facfe44E', symObjAddr: 0x724, symBinAddr: 0x20760, symSize: 0x48 }
  - { offset: 0xAA864, size: 0x8, addend: 0x0, symName: '__ZN153_$LT$core..result..Result$LT$T$C$F$GT$$u20$as$u20$core..ops..try_trait..FromResidual$LT$core..result..Result$LT$core..convert..Infallible$C$E$GT$$GT$$GT$13from_residual17hb2bd33f0d2913b7cE', symObjAddr: 0x76C, symBinAddr: 0x207A8, symSize: 0x48 }
  - { offset: 0xAA8E9, size: 0x8, addend: 0x0, symName: '__ZN153_$LT$core..result..Result$LT$T$C$F$GT$$u20$as$u20$core..ops..try_trait..FromResidual$LT$core..result..Result$LT$core..convert..Infallible$C$E$GT$$GT$$GT$13from_residual17hc39c2bb86f7cb0ceE', symObjAddr: 0x7FC, symBinAddr: 0x207F0, symSize: 0x48 }
  - { offset: 0xAA96E, size: 0x8, addend: 0x0, symName: '__ZN153_$LT$core..result..Result$LT$T$C$F$GT$$u20$as$u20$core..ops..try_trait..FromResidual$LT$core..result..Result$LT$core..convert..Infallible$C$E$GT$$GT$$GT$13from_residual17hd41daab40f334d4bE', symObjAddr: 0x844, symBinAddr: 0x20838, symSize: 0x48 }
  - { offset: 0xAA9F3, size: 0x8, addend: 0x0, symName: '__ZN153_$LT$core..result..Result$LT$T$C$F$GT$$u20$as$u20$core..ops..try_trait..FromResidual$LT$core..result..Result$LT$core..convert..Infallible$C$E$GT$$GT$$GT$13from_residual17hfdb251d5f4715f8bE', symObjAddr: 0x8D4, symBinAddr: 0x20880, symSize: 0x48 }
  - { offset: 0xAB36D, size: 0x8, addend: 0x0, symName: '__ZN79_$LT$core..result..Result$LT$T$C$E$GT$$u20$as$u20$core..ops..try_trait..Try$GT$6branch17h11aed7d5f69417d3E', symObjAddr: 0x4084, symBinAddr: 0x21CEC, symSize: 0x80 }
  - { offset: 0xAB3EB, size: 0x8, addend: 0x0, symName: '__ZN79_$LT$core..result..Result$LT$T$C$E$GT$$u20$as$u20$core..ops..try_trait..Try$GT$6branch17h21e73d3fac16a18eE', symObjAddr: 0x4104, symBinAddr: 0x21D6C, symSize: 0x94 }
  - { offset: 0xAB468, size: 0x8, addend: 0x0, symName: '__ZN79_$LT$core..result..Result$LT$T$C$E$GT$$u20$as$u20$core..ops..try_trait..Try$GT$6branch17h2874b917ba3c1f35E', symObjAddr: 0x4198, symBinAddr: 0x21E00, symSize: 0x8C }
  - { offset: 0xAB4E6, size: 0x8, addend: 0x0, symName: '__ZN79_$LT$core..result..Result$LT$T$C$E$GT$$u20$as$u20$core..ops..try_trait..Try$GT$6branch17h3cf1766c51a62ae4E', symObjAddr: 0x4224, symBinAddr: 0x21E8C, symSize: 0x88 }
  - { offset: 0xAB564, size: 0x8, addend: 0x0, symName: '__ZN79_$LT$core..result..Result$LT$T$C$E$GT$$u20$as$u20$core..ops..try_trait..Try$GT$6branch17h4c7705769bc8e5acE', symObjAddr: 0x432C, symBinAddr: 0x21F14, symSize: 0x80 }
  - { offset: 0xAB5E2, size: 0x8, addend: 0x0, symName: '__ZN79_$LT$core..result..Result$LT$T$C$E$GT$$u20$as$u20$core..ops..try_trait..Try$GT$6branch17h60a351a4a8364108E', symObjAddr: 0x43AC, symBinAddr: 0x21F94, symSize: 0x94 }
  - { offset: 0xAB65F, size: 0x8, addend: 0x0, symName: '__ZN79_$LT$core..result..Result$LT$T$C$E$GT$$u20$as$u20$core..ops..try_trait..Try$GT$6branch17h936c1e71d4b754c9E', symObjAddr: 0x4440, symBinAddr: 0x22028, symSize: 0x80 }
  - { offset: 0xAB6DD, size: 0x8, addend: 0x0, symName: '__ZN79_$LT$core..result..Result$LT$T$C$E$GT$$u20$as$u20$core..ops..try_trait..Try$GT$6branch17h973394ffc69f7483E', symObjAddr: 0x44C0, symBinAddr: 0x220A8, symSize: 0x80 }
  - { offset: 0xAB75B, size: 0x8, addend: 0x0, symName: '__ZN79_$LT$core..result..Result$LT$T$C$E$GT$$u20$as$u20$core..ops..try_trait..Try$GT$6branch17h9af08d8bfe642dddE', symObjAddr: 0x4540, symBinAddr: 0x22128, symSize: 0x28 }
  - { offset: 0xAB7B9, size: 0x8, addend: 0x0, symName: '__ZN79_$LT$core..result..Result$LT$T$C$E$GT$$u20$as$u20$core..ops..try_trait..Try$GT$6branch17hbff574ebd2b35873E', symObjAddr: 0x4568, symBinAddr: 0x22150, symSize: 0x80 }
  - { offset: 0xAB837, size: 0x8, addend: 0x0, symName: '__ZN79_$LT$core..result..Result$LT$T$C$E$GT$$u20$as$u20$core..ops..try_trait..Try$GT$6branch17he18b4dad53e44a7dE', symObjAddr: 0x45E8, symBinAddr: 0x221D0, symSize: 0x80 }
  - { offset: 0xAC1A8, size: 0x8, addend: 0x0, symName: '__ZN4core3fmt3num52_$LT$impl$u20$core..fmt..Debug$u20$for$u20$usize$GT$3fmt17he5a410182c1c5e99E', symObjAddr: 0x1658, symBinAddr: 0x20C1C, symSize: 0x90 }
  - { offset: 0xAC22E, size: 0x8, addend: 0x0, symName: '__ZN4core3cmp5impls54_$LT$impl$u20$core..cmp..PartialEq$u20$for$u20$i32$GT$2eq17h77317f1e7f030a9bE', symObjAddr: 0x14DC, symBinAddr: 0x20BF0, symSize: 0x2C }
  - { offset: 0xAC3B4, size: 0x8, addend: 0x0, symName: __ZN4core4iter6traits8iterator8Iterator3any17h130ef741cb6fa02eE, symObjAddr: 0x1F28, symBinAddr: 0x21104, symSize: 0x44 }
  - { offset: 0xAC403, size: 0x8, addend: 0x0, symName: __ZN4core4iter6traits8iterator8Iterator3any17hef69950ef7000f7bE, symObjAddr: 0x1F6C, symBinAddr: 0x21148, symSize: 0x44 }
  - { offset: 0xAC452, size: 0x8, addend: 0x0, symName: __ZN4core4iter6traits8iterator8Iterator8try_fold17h0db3614ad09051a0E, symObjAddr: 0x1FB0, symBinAddr: 0x2118C, symSize: 0x144 }
  - { offset: 0xAC504, size: 0x8, addend: 0x0, symName: __ZN4core4iter6traits8iterator8Iterator8try_fold17h13fe15491c2df85cE, symObjAddr: 0x20F4, symBinAddr: 0x212D0, symSize: 0x144 }
  - { offset: 0xAC5F6, size: 0x8, addend: 0x0, symName: '__ZN4core5slice29_$LT$impl$u20$$u5b$T$u5d$$GT$4iter17h8cb588d35ff162f6E', symObjAddr: 0x2238, symBinAddr: 0x21414, symSize: 0x28 }
  - { offset: 0xAC6AB, size: 0x8, addend: 0x0, symName: '__ZN4core5tuple64_$LT$impl$u20$core..cmp..PartialEq$u20$for$u20$$LP$U$C$T$RP$$GT$2eq17h04a80da777e76022E', symObjAddr: 0x2260, symBinAddr: 0x2143C, symSize: 0x88 }
  - { offset: 0xAD122, size: 0x8, addend: 0x0, symName: '__ZN79_$LT$pyo3..types..string..PyString$u20$as$u20$pyo3..type_object..PyTypeInfo$GT$16is_type_of_bound17h12687d9aee96849bE', symObjAddr: 0x4668, symBinAddr: 0x22250, symSize: 0x30 }
  - { offset: 0xAD192, size: 0x8, addend: 0x0, symName: __ZN4pyo35impl_7pyclass11PyClassDict10clear_dict17h389483be3b4b6636E, symObjAddr: 0x2A78, symBinAddr: 0x21990, symSize: 0x10 }
  - { offset: 0xAD1E2, size: 0x8, addend: 0x0, symName: __ZN4pyo35impl_7pyclass14PyClassWeakRef14clear_weakrefs17hd620ebcca066580bE, symObjAddr: 0x2A98, symBinAddr: 0x219A0, symSize: 0x14 }
  - { offset: 0xAD343, size: 0x8, addend: 0x0, symName: '__ZN117_$LT$pyo3..pycell..impl_..PyClassObjectBase$LT$U$GT$$u20$as$u20$pyo3..pycell..impl_..PyClassObjectLayout$LT$T$GT$$GT$10tp_dealloc17hce9e6888f8d28450E', symObjAddr: 0x168, symBinAddr: 0x2030C, symSize: 0x270 }
  - { offset: 0xAD453, size: 0x8, addend: 0x0, symName: '__ZN152_$LT$core..result..Result$LT$pyo3..instance..Bound$LT$pyo3..types..any..PyAny$GT$$C$pyo3..err..PyErr$GT$$u20$as$u20$pyo3..py_result_ext..PyResultExt$GT$23downcast_into_unchecked17h25fe078d1af5acb3E', symObjAddr: 0x4A8, symBinAddr: 0x2057C, symSize: 0x14 }
  - { offset: 0xAD4AC, size: 0x8, addend: 0x0, symName: '__ZN4pyo311conversions3std6string125_$LT$impl$u20$pyo3..conversion..IntoPy$LT$pyo3..instance..Py$LT$pyo3..types..string..PyString$GT$$GT$$u20$for$u20$$RF$str$GT$7into_py17h95adb0185a7b71e0E', symObjAddr: 0x2920, symBinAddr: 0x218FC, symSize: 0x34 }
  - { offset: 0xADCEC, size: 0x8, addend: 0x0, symName: __ZN8pyo3_ffi11tupleobject13PyTuple_Check17hee360ed680e4333fE, symObjAddr: 0x4974, symBinAddr: 0x22280, symSize: 0x30 }
  - { offset: 0xAE3ED, size: 0x8, addend: 0x0, symName: '__ZN105_$LT$std..collections..hash..map..Iter$LT$K$C$V$GT$$u20$as$u20$core..iter..traits..iterator..Iterator$GT$4next17h3057ada5c881f843E', symObjAddr: 0x0, symBinAddr: 0x20270, symSize: 0x24 }
  - { offset: 0xAE860, size: 0x8, addend: 0x0, symName: '__ZN96_$LT$std..collections..hash..map..HashMap$LT$K$C$V$C$S$GT$$u20$as$u20$core..default..Default$GT$7default17h2d9f87034706b58fE', symObjAddr: 0x4C08, symBinAddr: 0x22398, symSize: 0x5C }
  - { offset: 0xAE91D, size: 0x8, addend: 0x0, symName: '__ZN59_$LT$rustc_hash..FxHasher$u20$as$u20$core..hash..Hasher$GT$11write_usize17h9e0f7749ddc66e96E', symObjAddr: 0x3518, symBinAddr: 0x21A54, symSize: 0x28 }
  - { offset: 0xAE953, size: 0x8, addend: 0x0, symName: '__ZN59_$LT$rustc_hash..FxHasher$u20$as$u20$core..hash..Hasher$GT$6finish17h98d34a16f777434dE', symObjAddr: 0x3540, symBinAddr: 0x21A7C, symSize: 0x18 }
  - { offset: 0xAE985, size: 0x8, addend: 0x0, symName: '__ZN63_$LT$rustc_hash..FxHasher$u20$as$u20$core..default..Default$GT$7default17heabfb9b4774476a1E', symObjAddr: 0x3CD8, symBinAddr: 0x21BF8, symSize: 0x8 }
  - { offset: 0xAEEA7, size: 0x8, addend: 0x0, symName: '__ZN92_$LT$hashbrown..map..Iter$LT$K$C$V$GT$$u20$as$u20$core..iter..traits..iterator..Iterator$GT$4next17hdac4272c8d57ea68E', symObjAddr: 0x4A40, symBinAddr: 0x222B0, symSize: 0xE8 }
  - { offset: 0xAEFE3, size: 0x8, addend: 0x0, symName: '__ZN9hashbrown3map11make_hasher28_$u7b$$u7b$closure$u7d$$u7d$17h9243bc93ce2485b8E', symObjAddr: 0x510C, symBinAddr: 0x22530, symSize: 0x3C }
  - { offset: 0xAF05F, size: 0x8, addend: 0x0, symName: '__ZN9hashbrown3map11make_hasher28_$u7b$$u7b$closure$u7d$$u7d$17hbbd75200d85cc8ecE', symObjAddr: 0x5148, symBinAddr: 0x2256C, symSize: 0x3C }
  - { offset: 0xAF153, size: 0x8, addend: 0x0, symName: '__ZN9hashbrown3map14equivalent_key28_$u7b$$u7b$closure$u7d$$u7d$17h5e02e0dd546dd7d6E', symObjAddr: 0x5184, symBinAddr: 0x225A8, symSize: 0x30 }
  - { offset: 0xAF1AA, size: 0x8, addend: 0x0, symName: '__ZN9hashbrown3map14equivalent_key28_$u7b$$u7b$closure$u7d$$u7d$17hb9e007fe52259912E', symObjAddr: 0x51B4, symBinAddr: 0x225D8, symSize: 0x30 }
  - { offset: 0xAFAD8, size: 0x8, addend: 0x0, symName: __ZN10rustc_hash8FxHasher11add_to_hash17he04d54d4fafd36f4E, symObjAddr: 0x24, symBinAddr: 0x20294, symSize: 0x78 }
  - { offset: 0xAFBD7, size: 0x8, addend: 0x0, symName: '__ZN3std11collections4hash3map24HashMap$LT$K$C$V$C$S$GT$24with_capacity_and_hasher17he6d5b9a19df4ab81E', symObjAddr: 0x91C, symBinAddr: 0x208C8, symSize: 0x3C }
  - { offset: 0xAFC8F, size: 0x8, addend: 0x0, symName: '__ZN3std11collections4hash3map24HashMap$LT$K$C$V$C$S$GT$3len17hd679ca086190aa4cE', symObjAddr: 0x958, symBinAddr: 0x20904, symSize: 0x18 }
  - { offset: 0xAFD3D, size: 0x8, addend: 0x0, symName: '__ZN3std11collections4hash3map24HashMap$LT$K$C$V$C$S$GT$4iter17he5f3a6edb66516a4E', symObjAddr: 0x970, symBinAddr: 0x2091C, symSize: 0x44 }
  - { offset: 0xAFDC0, size: 0x8, addend: 0x0, symName: '__ZN3std11collections4hash3map24HashMap$LT$K$C$V$C$S$GT$5entry17h0406e406404242caE', symObjAddr: 0x9B4, symBinAddr: 0x20960, symSize: 0xA4 }
  - { offset: 0xAFE6C, size: 0x8, addend: 0x0, symName: '__ZN3std11collections4hash3map24HashMap$LT$K$C$V$C$S$GT$6insert17h4e784c9b52c289cdE', symObjAddr: 0xB9C, symBinAddr: 0x20A04, symSize: 0x28 }
  - { offset: 0xAFEC9, size: 0x8, addend: 0x0, symName: '__ZN3std11collections4hash3map24HashMap$LT$K$C$V$C$S$GT$6remove17h045a9f316bfe7340E', symObjAddr: 0xBC4, symBinAddr: 0x20A2C, symSize: 0x2C }
  - { offset: 0xAFF2C, size: 0x8, addend: 0x0, symName: '__ZN3std11collections4hash3map24HashMap$LT$K$C$V$C$S$GT$6remove17h555f6f76009ce18bE', symObjAddr: 0xBF0, symBinAddr: 0x20A58, symSize: 0x2C }
  - { offset: 0xAFFEA, size: 0x8, addend: 0x0, symName: '__ZN3std11collections4hash3map24HashMap$LT$K$C$V$C$S$GT$7get_mut17h11f6ed5fa72c77d2E', symObjAddr: 0xC1C, symBinAddr: 0x20A84, symSize: 0x70 }
  - { offset: 0xB00F5, size: 0x8, addend: 0x0, symName: '__ZN3std11collections4hash3map24HashMap$LT$K$C$V$C$S$GT$7get_mut17h1c55b70f88ec066cE', symObjAddr: 0xC8C, symBinAddr: 0x20AF4, symSize: 0x70 }
  - { offset: 0xB018B, size: 0x8, addend: 0x0, symName: '__ZN3std11collections4hash3map24VacantEntry$LT$K$C$V$GT$6insert17h0eea99205c6a2071E', symObjAddr: 0xCFC, symBinAddr: 0x20B64, symSize: 0x34 }
  - { offset: 0xB027B, size: 0x8, addend: 0x0, symName: '__ZN3std11collections4hash3map26OccupiedEntry$LT$K$C$V$GT$8into_mut17h1ff4303195422cdaE', symObjAddr: 0xDA8, symBinAddr: 0x20B98, symSize: 0x58 }
  - { offset: 0xB0559, size: 0x8, addend: 0x0, symName: '__ZN4core6result19Result$LT$T$C$E$GT$14unwrap_or_else17hcab4bd1ce944adabE', symObjAddr: 0x2364, symBinAddr: 0x214C4, symSize: 0x74 }
  - { offset: 0xB05C5, size: 0x8, addend: 0x0, symName: '__ZN4core6result19Result$LT$T$C$E$GT$3map17h818b63f5a0a0f092E', symObjAddr: 0x245C, symBinAddr: 0x21538, symSize: 0x80 }
  - { offset: 0xB067D, size: 0x8, addend: 0x0, symName: '__ZN4core6result19Result$LT$T$C$E$GT$3map17h87b54910b9ac09b8E', symObjAddr: 0x24DC, symBinAddr: 0x215B8, symSize: 0x84 }
  - { offset: 0xB0735, size: 0x8, addend: 0x0, symName: '__ZN4core6result19Result$LT$T$C$E$GT$3map17hd2ca5d8a6c4f71e3E', symObjAddr: 0x2660, symBinAddr: 0x2163C, symSize: 0x84 }
  - { offset: 0xB07EF, size: 0x8, addend: 0x0, symName: '__ZN4core6result19Result$LT$T$C$E$GT$6expect17h2c8087399766af6eE', symObjAddr: 0x26E4, symBinAddr: 0x216C0, symSize: 0xA8 }
  - { offset: 0xB08A2, size: 0x8, addend: 0x0, symName: '__ZN4core6result19Result$LT$T$C$E$GT$6expect17h794c5f618a6b13bcE', symObjAddr: 0x278C, symBinAddr: 0x21768, symSize: 0xA8 }
  - { offset: 0xB0905, size: 0x8, addend: 0x0, symName: '__ZN4core6result19Result$LT$T$C$E$GT$9unwrap_or17hd2b6a2089e058e80E', symObjAddr: 0x2834, symBinAddr: 0x21810, symSize: 0x6C }
  - { offset: 0xB094A, size: 0x8, addend: 0x0, symName: '__ZN4core6result23Result$LT$$RF$T$C$E$GT$6copied17haa9d17d0e179303fE', symObjAddr: 0x28A0, symBinAddr: 0x2187C, symSize: 0x80 }
  - { offset: 0xB09BC, size: 0x8, addend: 0x0, symName: __ZN4pyo33gil8GILGuard6python17h1398b041ec8b4ac7E, symObjAddr: 0x29E4, symBinAddr: 0x21930, symSize: 0x20 }
  - { offset: 0xB09DE, size: 0x8, addend: 0x0, symName: __ZN4pyo35impl_5panic9PanicTrap3new17h054829626a49bbbaE, symObjAddr: 0x2A04, symBinAddr: 0x21950, symSize: 0x18 }
  - { offset: 0xB0A00, size: 0x8, addend: 0x0, symName: __ZN4pyo35impl_5panic9PanicTrap6disarm17h95a6d8de521f0cecE, symObjAddr: 0x2A1C, symBinAddr: 0x21968, symSize: 0x28 }
  - { offset: 0xB0A31, size: 0x8, addend: 0x0, symName: '__ZN50_$LT$isize$u20$as$u20$num_traits..sign..Signed$GT$11is_negative17h48c9918b4e7c9352E', symObjAddr: 0x332C, symBinAddr: 0x219B4, symSize: 0x20 }
  - { offset: 0xB0A5D, size: 0x8, addend: 0x0, symName: '__ZN50_$LT$isize$u20$as$u20$num_traits..sign..Signed$GT$3abs17h4185965511e35213E', symObjAddr: 0x334C, symBinAddr: 0x219D4, symSize: 0x80 }
  - { offset: 0xB0BBA, size: 0x8, addend: 0x0, symName: __ZN5alloc6string6String6as_str17h522a0ffc7a72c059E, symObjAddr: 0x37B0, symBinAddr: 0x21B58, symSize: 0x70 }
  - { offset: 0xB0CC3, size: 0x8, addend: 0x0, symName: __ZN5numpy5error19DimensionalityError3new17h5fa76b351ea8894cE, symObjAddr: 0x3884, symBinAddr: 0x21BC8, symSize: 0x14 }
  - { offset: 0xB0CF3, size: 0x8, addend: 0x0, symName: __ZN5numpy5error9TypeError3new17h11c1ed7e2d64f826E, symObjAddr: 0x3898, symBinAddr: 0x21BDC, symSize: 0x1C }
  - { offset: 0xB0EB5, size: 0x8, addend: 0x0, symName: '__ZN9hashbrown11rustc_entry62_$LT$impl$u20$hashbrown..map..HashMap$LT$K$C$V$C$S$C$A$GT$$GT$11rustc_entry17h65fb6ff3c06d693eE', symObjAddr: 0x4E5C, symBinAddr: 0x22414, symSize: 0x11C }
  - { offset: 0xB0FA0, size: 0x8, addend: 0x0, symName: '__ZN9hashbrown3map24HashMap$LT$K$C$V$C$S$GT$24with_capacity_and_hasher17h7a22a94dcd3b97eaE', symObjAddr: 0x51E4, symBinAddr: 0x22608, symSize: 0x58 }
  - { offset: 0xB100B, size: 0x8, addend: 0x0, symName: '__ZN9hashbrown3map28HashMap$LT$K$C$V$C$S$C$A$GT$12remove_entry17h6ada460fe55cc97bE', symObjAddr: 0x523C, symBinAddr: 0x22660, symSize: 0x58 }
  - { offset: 0xB10AE, size: 0x8, addend: 0x0, symName: '__ZN9hashbrown3map28HashMap$LT$K$C$V$C$S$C$A$GT$12remove_entry17h820ceb5b22c89407E', symObjAddr: 0x5294, symBinAddr: 0x226B8, symSize: 0x58 }
  - { offset: 0xB125E, size: 0x8, addend: 0x0, symName: '__ZN9hashbrown3map28HashMap$LT$K$C$V$C$S$C$A$GT$13get_inner_mut17h8c3c6a01755fb2c7E', symObjAddr: 0x52EC, symBinAddr: 0x22710, symSize: 0xE0 }
  - { offset: 0xB14E6, size: 0x8, addend: 0x0, symName: '__ZN9hashbrown3map28HashMap$LT$K$C$V$C$S$C$A$GT$13get_inner_mut17hcc10088c1feac838E', symObjAddr: 0x53CC, symBinAddr: 0x227F0, symSize: 0xE0 }
  - { offset: 0xB1784, size: 0x8, addend: 0x0, symName: '__ZN9hashbrown3map28HashMap$LT$K$C$V$C$S$C$A$GT$4iter17hbef5b34a5555f0baE', symObjAddr: 0x54AC, symBinAddr: 0x228D0, symSize: 0xA8 }
  - { offset: 0xB19C8, size: 0x8, addend: 0x0, symName: '__ZN9hashbrown3map28HashMap$LT$K$C$V$C$S$C$A$GT$6insert17hfc2018cd3647c5a5E', symObjAddr: 0x5554, symBinAddr: 0x22978, symSize: 0x1B8 }
  - { offset: 0xB1B44, size: 0x8, addend: 0x0, symName: '__ZN9hashbrown3map28HashMap$LT$K$C$V$C$S$C$A$GT$6remove17h4c62747c435ff2c7E', symObjAddr: 0x570C, symBinAddr: 0x22B30, symSize: 0x98 }
  - { offset: 0xB1BC1, size: 0x8, addend: 0x0, symName: '__ZN9hashbrown3map28HashMap$LT$K$C$V$C$S$C$A$GT$6remove17h8e912ad576917ccdE', symObjAddr: 0x57A4, symBinAddr: 0x22BC8, symSize: 0x74 }
  - { offset: 0xB1C4B, size: 0x8, addend: 0x0, symName: __ZN9hashbrown7control5group4neon5Group10match_full17h8a56587784ed876cE, symObjAddr: 0x5818, symBinAddr: 0x22C3C, symSize: 0x68 }
  - { offset: 0xB1C83, size: 0x8, addend: 0x0, symName: __ZN9hashbrown7control5group4neon5Group22match_empty_or_deleted17heb294e779ab38420E, symObjAddr: 0x5880, symBinAddr: 0x22CA4, symSize: 0x68 }
  - { offset: 0xB1CBB, size: 0x8, addend: 0x0, symName: __ZN9hashbrown7control5group4neon5Group44convert_special_to_empty_and_full_to_deleted17hb2792f355da87423E, symObjAddr: 0x58E8, symBinAddr: 0x22D0C, symSize: 0x88 }
  - { offset: 0xB1CF3, size: 0x8, addend: 0x0, symName: __ZN9hashbrown7control5group4neon5Group9match_tag17hb29db36b96f026dcE, symObjAddr: 0x5970, symBinAddr: 0x22D94, symSize: 0x7C }
  - { offset: 0xB1E30, size: 0x8, addend: 0x0, symName: '__ZN102_$LT$core..iter..adapters..zip..Zip$LT$A$C$B$GT$$u20$as$u20$core..iter..traits..iterator..Iterator$GT$4next17hd8c74435f1df6d6aE', symObjAddr: 0x0, symBinAddr: 0x22E10, symSize: 0x24 }
  - { offset: 0xB1F35, size: 0x8, addend: 0x0, symName: '__ZN68_$LT$numpy..npyffi..types..NPY_TYPES$u20$as$u20$core..fmt..Debug$GT$3fmt17h7892e98328014747E', symObjAddr: 0x57F8, symBinAddr: 0x25D70, symSize: 0x4B4 }
  - { offset: 0xB1F7E, size: 0x8, addend: 0x0, symName: __ZN5numpy6npyffi11API_VERSION17h9ff639af2bfc296aE, symObjAddr: 0x516E8, symBinAddr: 0xE1018, symSize: 0x0 }
  - { offset: 0xB2063, size: 0x8, addend: 0x0, symName: __ZN5numpy6npyffi10is_numpy_217h56c001d1649a5864E, symObjAddr: 0x5024, symBinAddr: 0x25A0C, symSize: 0x38 }
  - { offset: 0xB20BC, size: 0x8, addend: 0x0, symName: '__ZN5numpy6npyffi10is_numpy_228_$u7b$$u7b$closure$u7d$$u7d$17hd5cead2344b34802E', symObjAddr: 0x505C, symBinAddr: 0x25A44, symSize: 0x28 }
  - { offset: 0xB2107, size: 0x8, addend: 0x0, symName: __ZN5numpy6npyffi13get_numpy_api17h295d520aa0b80cf2E, symObjAddr: 0x5084, symBinAddr: 0x25A6C, symSize: 0x248 }
  - { offset: 0xB23D9, size: 0x8, addend: 0x0, symName: __ZN5numpy5array16get_array_module17h7a7fd10d03f59aeaE, symObjAddr: 0x4E38, symBinAddr: 0x25984, symSize: 0x88 }
  - { offset: 0xB288C, size: 0x8, addend: 0x0, symName: '__ZN73_$LT$pyo3..types..any..PyAny$u20$as$u20$pyo3..type_object..PyTypeInfo$GT$15type_object_raw17h4db51ffb8a9b92bbE', symObjAddr: 0x5F7C, symBinAddr: 0x264D8, symSize: 0x24 }
  - { offset: 0xB28CB, size: 0x8, addend: 0x0, symName: '__ZN73_$LT$pyo3..types..any..PyAny$u20$as$u20$pyo3..type_object..PyTypeInfo$GT$15type_object_raw28_$u7b$$u7b$closure$u7d$$u7d$17hf0e5aaa1b9ee724cE', symObjAddr: 0x5FA0, symBinAddr: 0x264FC, symSize: 0x18 }
  - { offset: 0xB2930, size: 0x8, addend: 0x0, symName: '__ZN4pyo35types7capsule9PyCapsule25new_bound_with_destructor28_$u7b$$u7b$closure$u7d$$u7d$17h31a872bb3becaa46E', symObjAddr: 0x4808, symBinAddr: 0x25408, symSize: 0x28 }
  - { offset: 0xB29B9, size: 0x8, addend: 0x0, symName: __ZN4pyo35types7capsule18capsule_destructor17h6dd55b6aae99c356E, symObjAddr: 0x439C, symBinAddr: 0x24F9C, symSize: 0x214 }
  - { offset: 0xB2ABF, size: 0x8, addend: 0x0, symName: '__ZN81_$LT$pyo3..types..capsule..PyCapsule$u20$as$u20$pyo3..type_object..PyTypeInfo$GT$16is_type_of_bound17h9f7bf1ea4988330eE', symObjAddr: 0x6128, symBinAddr: 0x26514, symSize: 0x30 }
  - { offset: 0xB2C27, size: 0x8, addend: 0x0, symName: '__ZN4pyo35impl_10trampoline21trampoline_unraisable28_$u7b$$u7b$closure$u7d$$u7d$17h4b6d6a26064e0407E', symObjAddr: 0x4140, symBinAddr: 0x24EAC, symSize: 0x50 }
  - { offset: 0xB2C66, size: 0x8, addend: 0x0, symName: '__ZN4pyo35impl_10trampoline21trampoline_unraisable28_$u7b$$u7b$closure$u7d$$u7d$17h6aa14ec42f653af3E', symObjAddr: 0x4190, symBinAddr: 0x24EFC, symSize: 0x2C }
  - { offset: 0xB2CD6, size: 0x8, addend: 0x0, symName: '__ZN4pyo35impl_10trampoline7dealloc28_$u7b$$u7b$closure$u7d$$u7d$17hd5d49fd9d84f53bcE', symObjAddr: 0x41F0, symBinAddr: 0x24F28, symSize: 0x40 }
  - { offset: 0xB2D30, size: 0x8, addend: 0x0, symName: __ZN4pyo35impl_10trampoline21trampoline_unraisable17h219db8ff9bdb9905E, symObjAddr: 0x3F34, symBinAddr: 0x24CA0, symSize: 0x20C }
  - { offset: 0xB2DFA, size: 0x8, addend: 0x0, symName: '__ZN102_$LT$pyo3..internal..get_slot..Slot$LT$74_i32$GT$$u20$as$u20$pyo3..internal..get_slot..GetSlotImpl$GT$8get_slot17h61daa6ab5dadebfeE', symObjAddr: 0x24, symBinAddr: 0x22E34, symSize: 0x74 }
  - { offset: 0xB2E54, size: 0x8, addend: 0x0, symName: '__ZN114_$LT$pyo3..pyclass_init..PyNativeTypeInitializer$LT$T$GT$$u20$as$u20$pyo3..pyclass_init..PyObjectInit$LT$T$GT$$GT$15into_new_object17h7f1d63601bc2e246E', symObjAddr: 0x29C, symBinAddr: 0x230AC, symSize: 0x3C }
  - { offset: 0xB2ED8, size: 0x8, addend: 0x0, symName: '__ZN114_$LT$pyo3..pyclass_init..PyNativeTypeInitializer$LT$T$GT$$u20$as$u20$pyo3..pyclass_init..PyObjectInit$LT$T$GT$$GT$17can_be_subclassed17hcefcb1a8aaddff55E', symObjAddr: 0x2D8, symBinAddr: 0x230E8, symSize: 0x18 }
  - { offset: 0xB2F3C, size: 0x8, addend: 0x0, symName: '__ZN152_$LT$core..result..Result$LT$pyo3..instance..Bound$LT$pyo3..types..any..PyAny$GT$$C$pyo3..err..PyErr$GT$$u20$as$u20$pyo3..py_result_ext..PyResultExt$GT$23downcast_into_unchecked28_$u7b$$u7b$closure$u7d$$u7d$17h8bc1b0e862f3837fE', symObjAddr: 0x2F0, symBinAddr: 0x23100, symSize: 0x24 }
  - { offset: 0xB3088, size: 0x8, addend: 0x0, symName: __ZN4pyo311type_object10PyTypeInfo17type_object_bound17h20048a9fbfa0933dE, symObjAddr: 0x3224, symBinAddr: 0x24BD4, symSize: 0x30 }
  - { offset: 0xB30CE, size: 0x8, addend: 0x0, symName: '__ZN52_$LT$T$u20$as$u20$pyo3..type_object..PyTypeCheck$GT$10type_check17hfe31c4b203f7117cE', symObjAddr: 0x4914, symBinAddr: 0x254A8, symSize: 0x24 }
  - { offset: 0xB49F1, size: 0x8, addend: 0x0, symName: '__ZN4core3ptr8non_null16NonNull$LT$T$GT$13new_unchecked18precondition_check17h6f0868db3d922749E', symObjAddr: 0x1C0C, symBinAddr: 0x23D7C, symSize: 0xA4 }
  - { offset: 0xB5343, size: 0x8, addend: 0x0, symName: '__ZN4core3ptr101drop_in_place$LT$hashbrown..raw..RawTable$LT$$LP$numpy..borrow..shared..BorrowKey$C$isize$RP$$GT$$GT$17ha99a435423084370E', symObjAddr: 0x1004, symBinAddr: 0x23948, symSize: 0x24 }
  - { offset: 0xB5372, size: 0x8, addend: 0x0, symName: '__ZN4core3ptr108drop_in_place$LT$core..result..Result$LT$$LP$$RP$$C$alloc..borrow..Cow$LT$core..ffi..c_str..CStr$GT$$GT$$GT$17hc67eab2cbbafa85aE', symObjAddr: 0x1070, symBinAddr: 0x2396C, symSize: 0x44 }
  - { offset: 0xB53A1, size: 0x8, addend: 0x0, symName: '__ZN4core3ptr124drop_in_place$LT$alloc..boxed..Box$LT$core..mem..maybe_uninit..MaybeUninit$LT$numpy..borrow..shared..BorrowFlags$GT$$GT$$GT$17hfbb739a845aa7a5cE', symObjAddr: 0x11C4, symBinAddr: 0x239B0, symSize: 0x2C }
  - { offset: 0xB53D0, size: 0x8, addend: 0x0, symName: '__ZN4core3ptr153drop_in_place$LT$hashbrown..map..HashMap$LT$numpy..borrow..shared..BorrowKey$C$isize$C$core..hash..BuildHasherDefault$LT$rustc_hash..FxHasher$GT$$GT$$GT$17h8a4b98e44be05b1dE', symObjAddr: 0x12A4, symBinAddr: 0x239DC, symSize: 0x24 }
  - { offset: 0xB53FF, size: 0x8, addend: 0x0, symName: '__ZN4core3ptr163drop_in_place$LT$pyo3..types..capsule..CapsuleContents$LT$numpy..borrow..shared..Shared$C$numpy..borrow..shared..insert_shared..$u7b$$u7b$closure$u7d$$u7d$$GT$$GT$17h324fe42c0f47305dE', symObjAddr: 0x12EC, symBinAddr: 0x23A00, symSize: 0x24 }
  - { offset: 0xB542E, size: 0x8, addend: 0x0, symName: '__ZN4core3ptr166drop_in_place$LT$std..collections..hash..map..HashMap$LT$numpy..borrow..shared..BorrowKey$C$isize$C$core..hash..BuildHasherDefault$LT$rustc_hash..FxHasher$GT$$GT$$GT$17h0d7ddafdfe1f6cbcE', symObjAddr: 0x1310, symBinAddr: 0x23A24, symSize: 0x24 }
  - { offset: 0xB545D, size: 0x8, addend: 0x0, symName: '__ZN4core3ptr194drop_in_place$LT$core..option..Option$LT$std..collections..hash..map..HashMap$LT$numpy..borrow..shared..BorrowKey$C$isize$C$core..hash..BuildHasherDefault$LT$rustc_hash..FxHasher$GT$$GT$$GT$$GT$17h676c2396a88fe546E', symObjAddr: 0x137C, symBinAddr: 0x23A48, symSize: 0x44 }
  - { offset: 0xB548C, size: 0x8, addend: 0x0, symName: '__ZN4core3ptr206drop_in_place$LT$$LP$$BP$mut$u20$core..ffi..c_void$C$std..collections..hash..map..HashMap$LT$numpy..borrow..shared..BorrowKey$C$isize$C$core..hash..BuildHasherDefault$LT$rustc_hash..FxHasher$GT$$GT$$RP$$GT$17h75d1ba8b08f9e378E', symObjAddr: 0x13C0, symBinAddr: 0x23A8C, symSize: 0x24 }
  - { offset: 0xB54BB, size: 0x8, addend: 0x0, symName: '__ZN4core3ptr238drop_in_place$LT$hashbrown..raw..RawTable$LT$$LP$$BP$mut$u20$core..ffi..c_void$C$std..collections..hash..map..HashMap$LT$numpy..borrow..shared..BorrowKey$C$isize$C$core..hash..BuildHasherDefault$LT$rustc_hash..FxHasher$GT$$GT$$RP$$GT$$GT$17h7b84288169021693E', symObjAddr: 0x1470, symBinAddr: 0x23AB0, symSize: 0x24 }
  - { offset: 0xB54EA, size: 0x8, addend: 0x0, symName: '__ZN4core3ptr290drop_in_place$LT$hashbrown..map..HashMap$LT$$BP$mut$u20$core..ffi..c_void$C$std..collections..hash..map..HashMap$LT$numpy..borrow..shared..BorrowKey$C$isize$C$core..hash..BuildHasherDefault$LT$rustc_hash..FxHasher$GT$$GT$$C$core..hash..BuildHasherDefault$LT$rustc_hash..FxHasher$GT$$GT$$GT$17h1b23a0f22d740074E', symObjAddr: 0x15D4, symBinAddr: 0x23AD4, symSize: 0x24 }
  - { offset: 0xB5519, size: 0x8, addend: 0x0, symName: '__ZN4core3ptr303drop_in_place$LT$std..collections..hash..map..HashMap$LT$$BP$mut$u20$core..ffi..c_void$C$std..collections..hash..map..HashMap$LT$numpy..borrow..shared..BorrowKey$C$isize$C$core..hash..BuildHasherDefault$LT$rustc_hash..FxHasher$GT$$GT$$C$core..hash..BuildHasherDefault$LT$rustc_hash..FxHasher$GT$$GT$$GT$17he1c47d57175557f3E', symObjAddr: 0x15F8, symBinAddr: 0x23AF8, symSize: 0x24 }
  - { offset: 0xB5548, size: 0x8, addend: 0x0, symName: '__ZN4core3ptr44drop_in_place$LT$numpy..error..TypeError$GT$17h7763ddbbc13a5e9fE', symObjAddr: 0x1640, symBinAddr: 0x23B1C, symSize: 0x60 }
  - { offset: 0xB5577, size: 0x8, addend: 0x0, symName: '__ZN4core3ptr55drop_in_place$LT$numpy..borrow..shared..BorrowFlags$GT$17ha85894190d373b38E', symObjAddr: 0x1868, symBinAddr: 0x23B7C, symSize: 0x24 }
  - { offset: 0xB55A6, size: 0x8, addend: 0x0, symName: '__ZN4core3ptr69drop_in_place$LT$alloc..borrow..Cow$LT$core..ffi..c_str..CStr$GT$$GT$17h1d905fd429b48476E', symObjAddr: 0x190C, symBinAddr: 0x23BA0, symSize: 0x40 }
  - { offset: 0xB55D5, size: 0x8, addend: 0x0, symName: '__ZN4core3ptr70drop_in_place$LT$core..option..Option$LT$alloc..string..String$GT$$GT$17h7c28cf3fa02e4077E', symObjAddr: 0x194C, symBinAddr: 0x23BE0, symSize: 0x48 }
  - { offset: 0xB5604, size: 0x8, addend: 0x0, symName: '__ZN4core3ptr73drop_in_place$LT$core..result..Result$LT$usize$C$pyo3..err..PyErr$GT$$GT$17h249b735e722b8c89E', symObjAddr: 0x19B8, symBinAddr: 0x23C28, symSize: 0x40 }
  - { offset: 0xB5633, size: 0x8, addend: 0x0, symName: '__ZN4core3ptr76drop_in_place$LT$pyo3..instance..Bound$LT$numpy..dtype..PyArrayDescr$GT$$GT$17hb0efc3a2c194266fE', symObjAddr: 0x1A48, symBinAddr: 0x23C68, symSize: 0x24 }
  - { offset: 0xB5662, size: 0x8, addend: 0x0, symName: '__ZN4core3ptr80drop_in_place$LT$alloc..boxed..Box$LT$numpy..borrow..shared..BorrowFlags$GT$$GT$17h2705569bef513cd3E', symObjAddr: 0x1A6C, symBinAddr: 0x23C8C, symSize: 0x60 }
  - { offset: 0xB5691, size: 0x8, addend: 0x0, symName: '__ZN4core3ptr81drop_in_place$LT$core..result..Result$LT$$LP$$RP$$C$alloc..string..String$GT$$GT$17h737a1e570633f96dE', symObjAddr: 0x1B2C, symBinAddr: 0x23CEC, symSize: 0x48 }
  - { offset: 0xB56C0, size: 0x8, addend: 0x0, symName: '__ZN4core3ptr81drop_in_place$LT$pyo3..instance..Bound$LT$pyo3..types..capsule..PyCapsule$GT$$GT$17h653f4cc0d4bf7909E', symObjAddr: 0x1B74, symBinAddr: 0x23D34, symSize: 0x24 }
  - { offset: 0xB56EF, size: 0x8, addend: 0x0, symName: '__ZN4core3ptr84drop_in_place$LT$$LP$pyo3..instance..Bound$LT$pyo3..types..any..PyAny$GT$$C$$RP$$GT$17h204ef63b1c526458E', symObjAddr: 0x1B98, symBinAddr: 0x23D58, symSize: 0x24 }
  - { offset: 0xB57EA, size: 0x8, addend: 0x0, symName: '__ZN4core3ptr97drop_in_place$LT$core..option..Option$LT$alloc..borrow..Cow$LT$core..ffi..c_str..CStr$GT$$GT$$GT$17h9779ae71f34ce9eeE', symObjAddr: 0x1D98, symBinAddr: 0x23E9C, symSize: 0x44 }
  - { offset: 0xB5E1E, size: 0x8, addend: 0x0, symName: __ZN4core4hash11BuildHasher8hash_one17h0f1b61d625e08b95E, symObjAddr: 0x1FC0, symBinAddr: 0x23EE0, symSize: 0x8C }
  - { offset: 0xB5E83, size: 0x8, addend: 0x0, symName: __ZN4core4hash11BuildHasher8hash_one17h2c7fbb5a3e95f22aE, symObjAddr: 0x204C, symBinAddr: 0x23F6C, symSize: 0x8C }
  - { offset: 0xB5EF3, size: 0x8, addend: 0x0, symName: '__ZN4core4hash5impls52_$LT$impl$u20$core..hash..Hash$u20$for$u20$$RF$T$GT$4hash17hccd675c8ef7b881eE', symObjAddr: 0x21FC, symBinAddr: 0x23FF8, symSize: 0x30 }
  - { offset: 0xB5F44, size: 0x8, addend: 0x0, symName: '__ZN4core4hash5impls52_$LT$impl$u20$core..hash..Hash$u20$for$u20$isize$GT$4hash17h6e0bce17a13930a4E', symObjAddr: 0x222C, symBinAddr: 0x24028, symSize: 0x38 }
  - { offset: 0xB5F8C, size: 0x8, addend: 0x0, symName: '__ZN4core4hash5impls55_$LT$impl$u20$core..hash..Hash$u20$for$u20$$LP$$RP$$GT$4hash17h58675b1ddd9eb3d1E', symObjAddr: 0x229C, symBinAddr: 0x24060, symSize: 0x14 }
  - { offset: 0xB5FD4, size: 0x8, addend: 0x0, symName: '__ZN4core4hash5impls60_$LT$impl$u20$core..hash..Hash$u20$for$u20$$BP$mut$u20$T$GT$4hash17h70fff28c6c20620eE', symObjAddr: 0x22B0, symBinAddr: 0x24074, symSize: 0x50 }
  - { offset: 0xB607F, size: 0x8, addend: 0x0, symName: '__ZN4core4hash5impls60_$LT$impl$u20$core..hash..Hash$u20$for$u20$$BP$mut$u20$T$GT$4hash17hceb040c080344c82E', symObjAddr: 0x2300, symBinAddr: 0x240C4, symSize: 0x50 }
  - { offset: 0xB6130, size: 0x8, addend: 0x0, symName: '__ZN4core4hash5impls60_$LT$impl$u20$core..hash..Hash$u20$for$u20$$LP$T$C$B$RP$$GT$4hash17h261524ad06ae5550E', symObjAddr: 0x2350, symBinAddr: 0x24114, symSize: 0x4C }
  - { offset: 0xB61B9, size: 0x8, addend: 0x0, symName: '__ZN82_$LT$core..hash..BuildHasherDefault$LT$H$GT$$u20$as$u20$core..default..Default$GT$7default17h00d867088c67c8c6E', symObjAddr: 0x6158, symBinAddr: 0x26544, symSize: 0x4 }
  - { offset: 0xB61E3, size: 0x8, addend: 0x0, symName: '__ZN83_$LT$core..hash..BuildHasherDefault$LT$H$GT$$u20$as$u20$core..hash..BuildHasher$GT$12build_hasher17hdae13fe0b5165242E', symObjAddr: 0x615C, symBinAddr: 0x26548, symSize: 0x20 }
  - { offset: 0xB6254, size: 0x8, addend: 0x0, symName: '__ZN102_$LT$core..iter..adapters..zip..Zip$LT$A$C$B$GT$$u20$as$u20$core..iter..traits..iterator..Iterator$GT$4next17hd8c74435f1df6d6aE', symObjAddr: 0x0, symBinAddr: 0x22E10, symSize: 0x24 }
  - { offset: 0xB6298, size: 0x8, addend: 0x0, symName: '__ZN111_$LT$core..iter..adapters..zip..Zip$LT$A$C$B$GT$$u20$as$u20$core..iter..adapters..zip..ZipImpl$LT$A$C$B$GT$$GT$3new17h7631b5ed6ce74e17E', symObjAddr: 0x130, symBinAddr: 0x22F40, symSize: 0xBC }
  - { offset: 0xB632B, size: 0x8, addend: 0x0, symName: '__ZN111_$LT$core..iter..adapters..zip..Zip$LT$A$C$B$GT$$u20$as$u20$core..iter..adapters..zip..ZipImpl$LT$A$C$B$GT$$GT$4next17hc0337e92a331fa1fE', symObjAddr: 0x1EC, symBinAddr: 0x22FFC, symSize: 0xB0 }
  - { offset: 0xB63D8, size: 0x8, addend: 0x0, symName: '__ZN104_$LT$core..iter..adapters..copied..Copied$LT$I$GT$$u20$as$u20$core..iter..traits..iterator..Iterator$GT$4fold17h332a50c0ee7afefcE', symObjAddr: 0x98, symBinAddr: 0x22EA8, symSize: 0x30 }
  - { offset: 0xB6444, size: 0x8, addend: 0x0, symName: '__ZN104_$LT$core..iter..adapters..copied..Copied$LT$I$GT$$u20$as$u20$core..iter..traits..iterator..Iterator$GT$4next17h8986a693319f7c15E', symObjAddr: 0xC8, symBinAddr: 0x22ED8, symSize: 0x68 }
  - { offset: 0xB64BF, size: 0x8, addend: 0x0, symName: '__ZN4core4iter8adapters6copied9copy_fold28_$u7b$$u7b$closure$u7d$$u7d$17h7536e848f5c2461eE', symObjAddr: 0x2540, symBinAddr: 0x24304, symSize: 0x38 }
  - { offset: 0xB6577, size: 0x8, addend: 0x0, symName: '__ZN4core4iter6traits8iterator8Iterator3any5check28_$u7b$$u7b$closure$u7d$$u7d$17h64141c55ced2bfd2E', symObjAddr: 0x239C, symBinAddr: 0x24160, symSize: 0x58 }
  - { offset: 0xB65D3, size: 0x8, addend: 0x0, symName: '__ZN4core4iter6traits8iterator8Iterator3any5check28_$u7b$$u7b$closure$u7d$$u7d$17hbcef54ba98da61c8E', symObjAddr: 0x23F4, symBinAddr: 0x241B8, symSize: 0x58 }
  - { offset: 0xB6631, size: 0x8, addend: 0x0, symName: __ZN4core4iter6traits8iterator8Iterator6reduce17h6453c1a6a73f5e05E, symObjAddr: 0x244C, symBinAddr: 0x24210, symSize: 0xF4 }
  - { offset: 0xB670E, size: 0x8, addend: 0x0, symName: '__ZN63_$LT$I$u20$as$u20$core..iter..traits..collect..IntoIterator$GT$9into_iter17hf3ea17c10ed3a548E', symObjAddr: 0x56B4, symBinAddr: 0x25CB4, symSize: 0x30 }
  - { offset: 0xB70EF, size: 0x8, addend: 0x0, symName: '__ZN42_$LT$$RF$T$u20$as$u20$core..fmt..Debug$GT$3fmt17hcb7158dfb93a5f2eE', symObjAddr: 0x4A8, symBinAddr: 0x232B8, symSize: 0x30 }
  - { offset: 0xB716E, size: 0x8, addend: 0x0, symName: '__ZN48_$LT$$u5b$T$u5d$$u20$as$u20$core..fmt..Debug$GT$3fmt17hde43fb99992a3bb3E', symObjAddr: 0x4D8, symBinAddr: 0x232E8, symSize: 0x88 }
  - { offset: 0xB7695, size: 0x8, addend: 0x0, symName: __ZN4core5slice3raw14from_raw_parts17h641590e75635aa1dE, symObjAddr: 0x2678, symBinAddr: 0x2443C, symSize: 0x58 }
  - { offset: 0xB76D8, size: 0x8, addend: 0x0, symName: __ZN4core5slice3raw14from_raw_parts17h8ccf1cf0a94e37deE, symObjAddr: 0x26D0, symBinAddr: 0x24494, symSize: 0x58 }
  - { offset: 0xB7720, size: 0x8, addend: 0x0, symName: __ZN4core5slice3raw14from_raw_parts18precondition_check17h98303b4784c2d601E, symObjAddr: 0x2728, symBinAddr: 0x244EC, symSize: 0x1D8 }
  - { offset: 0xB78CA, size: 0x8, addend: 0x0, symName: '__ZN48_$LT$usize$u20$as$u20$core..ops..bit..BitXor$GT$6bitxor17hfde2af93936112bcE', symObjAddr: 0x560, symBinAddr: 0x23370, symSize: 0x18 }
  - { offset: 0xB7913, size: 0x8, addend: 0x0, symName: __ZN4core3ops8function5FnMut8call_mut17h1722b72fe66bdbc1E, symObjAddr: 0x73C, symBinAddr: 0x234F4, symSize: 0x60 }
  - { offset: 0xB7982, size: 0x8, addend: 0x0, symName: '__ZN4core3ops8function6FnOnce40call_once$u7b$$u7b$vtable.shim$u7d$$u7d$17h13460ddd3a9199ebE', symObjAddr: 0x7F8, symBinAddr: 0x23554, symSize: 0x38 }
  - { offset: 0xB79C6, size: 0x8, addend: 0x0, symName: '__ZN4core3ops8function6FnOnce40call_once$u7b$$u7b$vtable.shim$u7d$$u7d$17h5e5b4f51f4f84e7bE', symObjAddr: 0x868, symBinAddr: 0x2358C, symSize: 0x38 }
  - { offset: 0xB7A0A, size: 0x8, addend: 0x0, symName: '__ZN4core3ops8function6FnOnce40call_once$u7b$$u7b$vtable.shim$u7d$$u7d$17h83d5224f7a0e5cecE', symObjAddr: 0x8FC, symBinAddr: 0x235C4, symSize: 0x38 }
  - { offset: 0xB7A4E, size: 0x8, addend: 0x0, symName: '__ZN4core3ops8function6FnOnce40call_once$u7b$$u7b$vtable.shim$u7d$$u7d$17h8a79cc7a256038dcE', symObjAddr: 0x934, symBinAddr: 0x235FC, symSize: 0x38 }
  - { offset: 0xB7A92, size: 0x8, addend: 0x0, symName: '__ZN4core3ops8function6FnOnce40call_once$u7b$$u7b$vtable.shim$u7d$$u7d$17hdc126b217375cf41E', symObjAddr: 0x9D4, symBinAddr: 0x23634, symSize: 0x38 }
  - { offset: 0xB7AD6, size: 0x8, addend: 0x0, symName: '__ZN4core3ops8function6FnOnce40call_once$u7b$$u7b$vtable.shim$u7d$$u7d$17hef320c7baa0dc37bE', symObjAddr: 0xA44, symBinAddr: 0x2366C, symSize: 0x38 }
  - { offset: 0xB7B1A, size: 0x8, addend: 0x0, symName: __ZN4core3ops8function6FnOnce9call_once17h1c6b5ce788df70fbE, symObjAddr: 0xB68, symBinAddr: 0x236A4, symSize: 0x44 }
  - { offset: 0xB7B5A, size: 0x8, addend: 0x0, symName: __ZN4core3ops8function6FnOnce9call_once17h31e988fc337a1be9E, symObjAddr: 0xC08, symBinAddr: 0x236E8, symSize: 0x58 }
  - { offset: 0xB7B9E, size: 0x8, addend: 0x0, symName: __ZN4core3ops8function6FnOnce9call_once17h4380bfe6e6734063E, symObjAddr: 0xC60, symBinAddr: 0x23740, symSize: 0x24 }
  - { offset: 0xB7BE2, size: 0x8, addend: 0x0, symName: __ZN4core3ops8function6FnOnce9call_once17h448188c83baff4eeE, symObjAddr: 0xC84, symBinAddr: 0x23764, symSize: 0x5C }
  - { offset: 0xB7C26, size: 0x8, addend: 0x0, symName: __ZN4core3ops8function6FnOnce9call_once17h4d858b7673e23619E, symObjAddr: 0xCE0, symBinAddr: 0x237C0, symSize: 0x58 }
  - { offset: 0xB7C6A, size: 0x8, addend: 0x0, symName: __ZN4core3ops8function6FnOnce9call_once17h570dcfa9813c8abeE, symObjAddr: 0xD38, symBinAddr: 0x23818, symSize: 0x24 }
  - { offset: 0xB7CAE, size: 0x8, addend: 0x0, symName: __ZN4core3ops8function6FnOnce9call_once17h76d64a93fb4939c6E, symObjAddr: 0xD5C, symBinAddr: 0x2383C, symSize: 0x58 }
  - { offset: 0xB7CF2, size: 0x8, addend: 0x0, symName: __ZN4core3ops8function6FnOnce9call_once17hb49bd5247f8c7ca8E, symObjAddr: 0xDD0, symBinAddr: 0x23894, symSize: 0x5C }
  - { offset: 0xB7D36, size: 0x8, addend: 0x0, symName: __ZN4core3ops8function6FnOnce9call_once17hb752f1036e92c778E, symObjAddr: 0xE2C, symBinAddr: 0x238F0, symSize: 0x58 }
  - { offset: 0xB801B, size: 0x8, addend: 0x0, symName: __ZN4core5alloc6layout6Layout25from_size_align_unchecked18precondition_check17h88bd8f681894e3d3E, symObjAddr: 0x2578, symBinAddr: 0x2433C, symSize: 0xBC }
  - { offset: 0xB81ED, size: 0x8, addend: 0x0, symName: '__ZN4core5array69_$LT$impl$u20$core..fmt..Debug$u20$for$u20$$u5b$T$u3b$$u20$N$u5d$$GT$3fmt17hd534c281f92ee3b7E', symObjAddr: 0x2634, symBinAddr: 0x243F8, symSize: 0x44 }
  - { offset: 0xB8352, size: 0x8, addend: 0x0, symName: __ZN4core9core_arch10arm_shared4neon9generated18vreinterpret_s8_u817h7ac55afe0731c34dE, symObjAddr: 0x30F4, symBinAddr: 0x24B68, symSize: 0xC }
  - { offset: 0xB8380, size: 0x8, addend: 0x0, symName: __ZN4core9core_arch10arm_shared4neon9generated19vreinterpret_u64_u817h09faf5c1ddd09871E, symObjAddr: 0x3100, symBinAddr: 0x24B74, symSize: 0xC }
  - { offset: 0xB83AE, size: 0x8, addend: 0x0, symName: __ZN4core9core_arch10arm_shared4neon9generated7vceq_u817hffc0f5d947a1afdbE, symObjAddr: 0x310C, symBinAddr: 0x24B80, symSize: 0x14 }
  - { offset: 0xB83EB, size: 0x8, addend: 0x0, symName: __ZN4core9core_arch10arm_shared4neon9generated7vorr_u817h338fd334fdd7300fE, symObjAddr: 0x3120, symBinAddr: 0x24B94, symSize: 0x14 }
  - { offset: 0xB8428, size: 0x8, addend: 0x0, symName: __ZN4core9core_arch10arm_shared4neon9generated9vdup_n_u817hd488ab4effdc2378E, symObjAddr: 0x3134, symBinAddr: 0x24BA8, symSize: 0x2C }
  - { offset: 0xB8511, size: 0x8, addend: 0x0, symName: '__ZN51_$LT$T$u20$as$u20$core..borrow..Borrow$LT$T$GT$$GT$6borrow17h73e8b80b6a396781E', symObjAddr: 0x4844, symBinAddr: 0x25434, symSize: 0x14 }
  - { offset: 0xB8CE3, size: 0x8, addend: 0x0, symName: __ZN8pyo3_ffi7pystate17PyThreadState_GET17hb88ba2e0f6f2b77fE, symObjAddr: 0x617C, symBinAddr: 0x26568, symSize: 0x14 }
  - { offset: 0xB9228, size: 0x8, addend: 0x0, symName: '__ZN63_$LT$alloc..alloc..Global$u20$as$u20$core..alloc..Allocator$GT$10deallocate17h71ac1cb46c32fd63E', symObjAddr: 0x56E4, symBinAddr: 0x25CE4, symSize: 0x58 }
  - { offset: 0xB92B4, size: 0x8, addend: 0x0, symName: '__ZN63_$LT$alloc..alloc..Global$u20$as$u20$core..alloc..Allocator$GT$8allocate17h947c10f8e16d0a19E', symObjAddr: 0x573C, symBinAddr: 0x25D3C, symSize: 0x34 }
  - { offset: 0xB92EF, size: 0x8, addend: 0x0, symName: __ZN5alloc5alloc15exchange_malloc17hc6ee18e3430e64e9E, symObjAddr: 0x4988, symBinAddr: 0x254D4, symSize: 0xAC }
  - { offset: 0xB96D6, size: 0x8, addend: 0x0, symName: '__ZN5alloc5boxed12Box$LT$T$GT$8from_raw17hd5697dc75835410dE', symObjAddr: 0x4BCC, symBinAddr: 0x25718, symSize: 0x3C }
  - { offset: 0xB976E, size: 0x8, addend: 0x0, symName: '__ZN5alloc5boxed12Box$LT$T$GT$8from_raw17hd670269ea4c1abfdE', symObjAddr: 0x4C08, symBinAddr: 0x25754, symSize: 0x3C }
  - { offset: 0xB9806, size: 0x8, addend: 0x0, symName: '__ZN5alloc5boxed12Box$LT$T$GT$8into_raw17h2fcac0720a3eff92E', symObjAddr: 0x4C44, symBinAddr: 0x25790, symSize: 0x14 }
  - { offset: 0xB983D, size: 0x8, addend: 0x0, symName: '__ZN5alloc5boxed12Box$LT$T$GT$8into_raw17ha0404407aaef1e45E', symObjAddr: 0x4C58, symBinAddr: 0x257A4, symSize: 0x14 }
  - { offset: 0xB987A, size: 0x8, addend: 0x0, symName: '__ZN5alloc5boxed16Box$LT$T$C$A$GT$13new_uninit_in17hd458408bb202bc0bE', symObjAddr: 0x4C6C, symBinAddr: 0x257B8, symSize: 0x98 }
  - { offset: 0xB9972, size: 0x8, addend: 0x0, symName: '__ZN5alloc5boxed16Box$LT$T$C$A$GT$17try_new_uninit_in17h3e4bf64b0f0e9dbdE', symObjAddr: 0x4D04, symBinAddr: 0x25850, symSize: 0x134 }
  - { offset: 0xB9C07, size: 0x8, addend: 0x0, symName: '__ZN69_$LT$alloc..boxed..Box$LT$T$GT$$u20$as$u20$core..default..Default$GT$7default17h06d1bb9e02238e64E', symObjAddr: 0x5CAC, symBinAddr: 0x26224, symSize: 0xA4 }
  - { offset: 0xB9D45, size: 0x8, addend: 0x0, symName: '__ZN72_$LT$alloc..boxed..Box$LT$T$C$A$GT$$u20$as$u20$core..ops..drop..Drop$GT$4drop17h051d47db0107846dE', symObjAddr: 0x5D50, symBinAddr: 0x262C8, symSize: 0xB0 }
  - { offset: 0xB9E7E, size: 0x8, addend: 0x0, symName: '__ZN72_$LT$alloc..boxed..Box$LT$T$C$A$GT$$u20$as$u20$core..ops..drop..Drop$GT$4drop17h6b763e36b09348a5E', symObjAddr: 0x5E00, symBinAddr: 0x26378, symSize: 0xB0 }
  - { offset: 0xB9FB7, size: 0x8, addend: 0x0, symName: '__ZN72_$LT$alloc..boxed..Box$LT$T$C$A$GT$$u20$as$u20$core..ops..drop..Drop$GT$4drop17h7bf759e80430f1ebE', symObjAddr: 0x5EB0, symBinAddr: 0x26428, symSize: 0xB0 }
  - { offset: 0xBA269, size: 0x8, addend: 0x0, symName: __ZN3std9panicking12catch_unwind7do_call17ha586bd78175de89dE, symObjAddr: 0x3CC, symBinAddr: 0x231DC, symSize: 0x6C }
  - { offset: 0xBA34F, size: 0x8, addend: 0x0, symName: __ZN3std9panicking12catch_unwind8do_catch17h14d8dc34002fec28E, symObjAddr: 0x438, symBinAddr: 0x23248, symSize: 0x70 }
  - { offset: 0xBA3EB, size: 0x8, addend: 0x0, symName: __ZN3std5panic12catch_unwind17h602874429eeced72E, symObjAddr: 0x314, symBinAddr: 0x23124, symSize: 0xB8 }
  - { offset: 0xBA774, size: 0x8, addend: 0x0, symName: '__ZN52_$LT$Q$u20$as$u20$hashbrown..Equivalent$LT$K$GT$$GT$10equivalent17h9fec00c9822f64a4E', symObjAddr: 0x4898, symBinAddr: 0x25450, symSize: 0x58 }
  - { offset: 0xBA889, size: 0x8, addend: 0x0, symName: '__ZN9hashbrown11rustc_entry62_$LT$impl$u20$hashbrown..map..HashMap$LT$K$C$V$C$S$C$A$GT$$GT$11rustc_entry28_$u7b$$u7b$closure$u7d$$u7d$17h3ac91331e25bef62E', symObjAddr: 0x6394, symBinAddr: 0x26604, symSize: 0x40 }
  - { offset: 0xBAB80, size: 0x8, addend: 0x0, symName: __ZN4core3ffi5c_str4CStr6as_ptr17h2b5ca9666ecd8ebeE, symObjAddr: 0x578, symBinAddr: 0x23388, symSize: 0x18 }
  - { offset: 0xBAC36, size: 0x8, addend: 0x0, symName: __ZN4core3fmt2rt8Argument11new_display17h1bdf0e11a58fd324E, symObjAddr: 0x590, symBinAddr: 0x233A0, symSize: 0x2C }
  - { offset: 0xBAC7B, size: 0x8, addend: 0x0, symName: __ZN4core3fmt2rt8Argument11new_display17hc2eaf12fde51e0e1E, symObjAddr: 0x5E8, symBinAddr: 0x233CC, symSize: 0x2C }
  - { offset: 0xBACCD, size: 0x8, addend: 0x0, symName: __ZN4core3fmt2rt8Argument9new_debug17hdbb774dd5c839432E, symObjAddr: 0x640, symBinAddr: 0x233F8, symSize: 0x2C }
  - { offset: 0xBAD0C, size: 0x8, addend: 0x0, symName: __ZN4core3fmt8builders9DebugList7entries17h9afdc6d50cd160f0E, symObjAddr: 0x66C, symBinAddr: 0x23424, symSize: 0xD0 }
  - { offset: 0xBAE87, size: 0x8, addend: 0x0, symName: '__ZN4core3ptr8non_null16NonNull$LT$T$GT$20offset_from_unsigned17hb06b3dd577ae5d2eE', symObjAddr: 0x1CB0, symBinAddr: 0x23E20, symSize: 0x7C }
  - { offset: 0xBB008, size: 0x8, addend: 0x0, symName: '__ZN4core6option15Option$LT$T$GT$3map17h132a553e8e3036dcE', symObjAddr: 0x2BF4, symBinAddr: 0x246C4, symSize: 0x5C }
  - { offset: 0xBB073, size: 0x8, addend: 0x0, symName: '__ZN4core6option15Option$LT$T$GT$3map17h9f04396c101374d7E', symObjAddr: 0x2C50, symBinAddr: 0x24720, symSize: 0x5C }
  - { offset: 0xBB116, size: 0x8, addend: 0x0, symName: '__ZN4core6option15Option$LT$T$GT$6as_ref17h18122aa714d238f6E', symObjAddr: 0x2CAC, symBinAddr: 0x2477C, symSize: 0x4C }
  - { offset: 0xBB17A, size: 0x8, addend: 0x0, symName: '__ZN4core6option15Option$LT$T$GT$6as_ref17h2ec16bea920c2e47E', symObjAddr: 0x2CF8, symBinAddr: 0x247C8, symSize: 0x4C }
  - { offset: 0xBB1F8, size: 0x8, addend: 0x0, symName: '__ZN4core6option15Option$LT$T$GT$6as_ref17h799e9f026d1b78e0E', symObjAddr: 0x2D44, symBinAddr: 0x24814, symSize: 0x48 }
  - { offset: 0xBB25C, size: 0x8, addend: 0x0, symName: '__ZN4core6option15Option$LT$T$GT$6as_ref17hc50e8f48d8e2b069E', symObjAddr: 0x2D8C, symBinAddr: 0x2485C, symSize: 0x50 }
  - { offset: 0xBB31D, size: 0x8, addend: 0x0, symName: '__ZN4core6option15Option$LT$T$GT$6as_ref17hd5bfe85aa4e7d1e9E', symObjAddr: 0x2DDC, symBinAddr: 0x248AC, symSize: 0x48 }
  - { offset: 0xBB374, size: 0x8, addend: 0x0, symName: '__ZN4core6option15Option$LT$T$GT$6as_ref17hf20349eccd07b2b7E', symObjAddr: 0x2E24, symBinAddr: 0x248F4, symSize: 0x50 }
  - { offset: 0xBB3BE, size: 0x8, addend: 0x0, symName: '__ZN4core6option15Option$LT$T$GT$6expect17h73e94bb2b8380bc9E', symObjAddr: 0x2E74, symBinAddr: 0x24944, symSize: 0x5C }
  - { offset: 0xBB406, size: 0x8, addend: 0x0, symName: '__ZN4core6option15Option$LT$T$GT$6map_or17h6e757469d737103dE', symObjAddr: 0x2F2C, symBinAddr: 0x249A0, symSize: 0xA8 }
  - { offset: 0xBB478, size: 0x8, addend: 0x0, symName: '__ZN4core6option15Option$LT$T$GT$7is_some17h0beb15a639c58cc3E', symObjAddr: 0x2FD4, symBinAddr: 0x24A48, symSize: 0x20 }
  - { offset: 0xBB4A4, size: 0x8, addend: 0x0, symName: '__ZN4core6option15Option$LT$T$GT$7is_some17h85d7cf0a8cff1e96E', symObjAddr: 0x2FF4, symBinAddr: 0x24A68, symSize: 0x2C }
  - { offset: 0xBB4D0, size: 0x8, addend: 0x0, symName: '__ZN4core6option15Option$LT$T$GT$7is_some17had41175009828931E', symObjAddr: 0x3020, symBinAddr: 0x24A94, symSize: 0x20 }
  - { offset: 0xBB4FC, size: 0x8, addend: 0x0, symName: '__ZN4core6option15Option$LT$T$GT$7is_some17hdaeb1d8ec297e0d8E', symObjAddr: 0x3040, symBinAddr: 0x24AB4, symSize: 0x20 }
  - { offset: 0xBB528, size: 0x8, addend: 0x0, symName: '__ZN4core6option15Option$LT$T$GT$7is_some17he0f559a369141f01E', symObjAddr: 0x3060, symBinAddr: 0x24AD4, symSize: 0x28 }
  - { offset: 0xBB61B, size: 0x8, addend: 0x0, symName: '__ZN4core6option15Option$LT$T$GT$8as_deref17hdb1d75f3e661d373E', symObjAddr: 0x3088, symBinAddr: 0x24AFC, symSize: 0x6C }
  - { offset: 0xBB6FE, size: 0x8, addend: 0x0, symName: __ZN4pyo33err5PyErr22write_unraisable_bound17hfb25685dd987802dE, symObjAddr: 0x36C4, symBinAddr: 0x24C04, symSize: 0x34 }
  - { offset: 0xBB768, size: 0x8, addend: 0x0, symName: __ZN4pyo33err5PyErr7restore17hfd65cd7657833b69E, symObjAddr: 0x3ECC, symBinAddr: 0x24C38, symSize: 0x68 }
  - { offset: 0xBB7C5, size: 0x8, addend: 0x0, symName: __ZN4pyo35types10typeobject6PyType22from_borrowed_type_ptr17hd9b83a5cf65200d7E, symObjAddr: 0x4368, symBinAddr: 0x24F68, symSize: 0x34 }
  - { offset: 0xBB81A, size: 0x8, addend: 0x0, symName: __ZN4pyo35types7capsule9PyCapsule25new_bound_with_destructor17h61e45f41632c6dafE, symObjAddr: 0x45B0, symBinAddr: 0x251B0, symSize: 0x258 }
  - { offset: 0xBB95C, size: 0x8, addend: 0x0, symName: __ZN4pyo36marker6Python19assume_gil_acquired17ha5adf5e08dfad578E, symObjAddr: 0x4830, symBinAddr: 0x25430, symSize: 0x4 }
  - { offset: 0xBB97E, size: 0x8, addend: 0x0, symName: '__ZN51_$LT$i32$u20$as$u20$num_traits..bounds..Bounded$GT$9min_value17h1e0a3d2512738166E', symObjAddr: 0x4860, symBinAddr: 0x25448, symSize: 0x8 }
  - { offset: 0xBB9A7, size: 0x8, addend: 0x0, symName: '__ZN52_$LT$i32$u20$as$u20$num_traits..identities..Zero$GT$4zero17hd5b5bc1157a25b8fE', symObjAddr: 0x4940, symBinAddr: 0x254CC, symSize: 0x8 }
  - { offset: 0xBBB6C, size: 0x8, addend: 0x0, symName: __ZN5alloc5alloc6Global10alloc_impl17h2130707a944be52fE, symObjAddr: 0x4A34, symBinAddr: 0x25580, symSize: 0x198 }
  - { offset: 0xBC414, size: 0x8, addend: 0x0, symName: '__ZN9hashbrown11rustc_entry33RustcVacantEntry$LT$K$C$V$C$A$GT$6insert17h2911f97487eb09e9E', symObjAddr: 0x61AC, symBinAddr: 0x2657C, symSize: 0x88 }
  - { offset: 0xBC93A, size: 0x8, addend: 0x0, symName: '__ZN103_$LT$pyo3..instance..Bound$LT$pyo3..types..any..PyAny$GT$$u20$as$u20$pyo3..types..any..PyAnyMethods$GT$13downcast_into17h193151a76ac76808E', symObjAddr: 0x0, symBinAddr: 0x26698, symSize: 0xE8 }
  - { offset: 0xBCCDB, size: 0x8, addend: 0x0, symName: '__ZN132_$LT$pyo3..instance..Bound$LT$T$GT$$u20$as$u20$pyo3..conversion..IntoPy$LT$pyo3..instance..Py$LT$pyo3..types..any..PyAny$GT$$GT$$GT$7into_py17h171a9a03bc5dd498E', symObjAddr: 0x21A0, symBinAddr: 0x26B54, symSize: 0x28 }
  - { offset: 0xBCDC4, size: 0x8, addend: 0x0, symName: '__ZN4pyo38instance11Py$LT$T$GT$24from_borrowed_ptr_or_opt28_$u7b$$u7b$closure$u7d$$u7d$17h4624fa6e9da69733E', symObjAddr: 0x28B0, symBinAddr: 0x271B0, symSize: 0xFC }
  - { offset: 0xBD021, size: 0x8, addend: 0x0, symName: '__ZN4pyo38instance39Borrowed$LT$pyo3..types..any..PyAny$GT$15from_ptr_or_opt28_$u7b$$u7b$closure$u7d$$u7d$17h19284c9956215f37E', symObjAddr: 0x3038, symBinAddr: 0x275D4, symSize: 0x20 }
  - { offset: 0xBD0F2, size: 0x8, addend: 0x0, symName: '__ZN69_$LT$pyo3..instance..Bound$LT$T$GT$$u20$as$u20$core..clone..Clone$GT$5clone17hd402dd57ce8fe5c8E', symObjAddr: 0x5278, symBinAddr: 0x28FDC, symSize: 0x34 }
  - { offset: 0xBD12F, size: 0x8, addend: 0x0, symName: '__ZN72_$LT$pyo3..instance..Bound$LT$T$GT$$u20$as$u20$core..ops..drop..Drop$GT$4drop17hd8185dc9aa40acb7E', symObjAddr: 0x5350, symBinAddr: 0x29010, symSize: 0x1A8 }
  - { offset: 0xBD19E, size: 0x8, addend: 0x0, symName: '__ZN72_$LT$pyo3..instance..Bound$LT$T$GT$$u20$as$u20$core..ops..drop..Drop$GT$4drop17hf9c49721ea8b0521E', symObjAddr: 0x54F8, symBinAddr: 0x291B8, symSize: 0x1A8 }
  - { offset: 0xBD213, size: 0x8, addend: 0x0, symName: '__ZN79_$LT$pyo3..instance..Bound$LT$T$GT$$u20$as$u20$pyo3..conversion..ToPyObject$GT$9to_object17ha015cf4f4d87688aE', symObjAddr: 0x5760, symBinAddr: 0x29420, symSize: 0x28 }
  - { offset: 0xBD34E, size: 0x8, addend: 0x0, symName: '__ZN103_$LT$pyo3..instance..Bound$LT$pyo3..types..any..PyAny$GT$$u20$as$u20$pyo3..types..any..PyAnyMethods$GT$13downcast_into17h193151a76ac76808E', symObjAddr: 0x0, symBinAddr: 0x26698, symSize: 0xE8 }
  - { offset: 0xBD385, size: 0x8, addend: 0x0, symName: '__ZN103_$LT$pyo3..instance..Bound$LT$pyo3..types..any..PyAny$GT$$u20$as$u20$pyo3..types..any..PyAnyMethods$GT$14is_instance_of17h3fc8aeefe7f13c7fE', symObjAddr: 0x2B8, symBinAddr: 0x26780, symSize: 0x24 }
  - { offset: 0xBD3BC, size: 0x8, addend: 0x0, symName: '__ZN103_$LT$pyo3..instance..Bound$LT$pyo3..types..any..PyAny$GT$$u20$as$u20$pyo3..types..any..PyAnyMethods$GT$23downcast_into_unchecked17h1c7eb380414f888bE', symObjAddr: 0x350, symBinAddr: 0x267A4, symSize: 0x14 }
  - { offset: 0xBD3F3, size: 0x8, addend: 0x0, symName: '__ZN103_$LT$pyo3..instance..Bound$LT$pyo3..types..any..PyAny$GT$$u20$as$u20$pyo3..types..any..PyAnyMethods$GT$23downcast_into_unchecked17h361afdc413238bfdE', symObjAddr: 0x364, symBinAddr: 0x267B8, symSize: 0x14 }
  - { offset: 0xBD42A, size: 0x8, addend: 0x0, symName: '__ZN103_$LT$pyo3..instance..Bound$LT$pyo3..types..any..PyAny$GT$$u20$as$u20$pyo3..types..any..PyAnyMethods$GT$5call117heabee5958dd73dafE', symObjAddr: 0x38C, symBinAddr: 0x267CC, symSize: 0xA8 }
  - { offset: 0xBD470, size: 0x8, addend: 0x0, symName: '__ZN103_$LT$pyo3..instance..Bound$LT$pyo3..types..any..PyAny$GT$$u20$as$u20$pyo3..types..any..PyAnyMethods$GT$7setattr17h9b536576d8c7fd86E', symObjAddr: 0x4C4, symBinAddr: 0x26874, symSize: 0x128 }
  - { offset: 0xBD4F1, size: 0x8, addend: 0x0, symName: '__ZN4pyo35types5tuple129_$LT$impl$u20$pyo3..conversion..IntoPy$LT$pyo3..instance..Py$LT$pyo3..types..tuple..PyTuple$GT$$GT$$u20$for$u20$$LP$T0$C$$RP$$GT$21__py_call_vectorcall117h0ac67891fa5158c8E', symObjAddr: 0x221C, symBinAddr: 0x26BAC, symSize: 0x55C }
  - { offset: 0xBD7BF, size: 0x8, addend: 0x0, symName: '__ZN119_$LT$pyo3..instance..Bound$LT$pyo3..types..typeobject..PyType$GT$$u20$as$u20$pyo3..types..typeobject..PyTypeMethods$GT$11as_type_ptr17hfbe84ce6fa12c813E', symObjAddr: 0x1FDC, symBinAddr: 0x26A60, symSize: 0x24 }
  - { offset: 0xBD80C, size: 0x8, addend: 0x0, symName: __ZN4pyo35types7capsule18AssertNotZeroSized21assert_not_zero_sized17h3dec37dbf617c8e1E, symObjAddr: 0x2778, symBinAddr: 0x27108, symSize: 0x10 }
  - { offset: 0xBD97A, size: 0x8, addend: 0x0, symName: '__ZN54_$LT$$RF$T$u20$as$u20$pyo3..conversion..ToPyObject$GT$9to_object17hc2997b1b06f92e34E', symObjAddr: 0x3158, symBinAddr: 0x2769C, symSize: 0x28 }
  - { offset: 0xBF1D7, size: 0x8, addend: 0x0, symName: '__ZN4core4hash5impls52_$LT$impl$u20$core..hash..Hash$u20$for$u20$$RF$T$GT$4hash17h276a4518c2939f48E', symObjAddr: 0x21EC, symBinAddr: 0x26B7C, symSize: 0x30 }
  - { offset: 0xBF25D, size: 0x8, addend: 0x0, symName: '__ZN51_$LT$T$u20$as$u20$core..borrow..Borrow$LT$T$GT$$GT$6borrow17h981d6efb597f84d9E', symObjAddr: 0x3104, symBinAddr: 0x27648, symSize: 0x14 }
  - { offset: 0xBF323, size: 0x8, addend: 0x0, symName: '__ZN63_$LT$I$u20$as$u20$core..iter..traits..collect..IntoIterator$GT$9into_iter17h2703824d20fc75f0E', symObjAddr: 0x518C, symBinAddr: 0x28F78, symSize: 0x14 }
  - { offset: 0xC054D, size: 0x8, addend: 0x0, symName: __ZN5numpy6borrow6shared6SHARED17hed2315813bead1f7E, symObjAddr: 0x24C60, symBinAddr: 0xE10A8, symSize: 0x0 }
  - { offset: 0xC0607, size: 0x8, addend: 0x0, symName: __ZN5numpy6borrow6shared10borrow_key17h9f6a8da2bd76be73E, symObjAddr: 0x3180, symBinAddr: 0x276C4, symSize: 0xC4 }
  - { offset: 0xC06A2, size: 0x8, addend: 0x0, symName: __ZN5numpy6borrow6shared10data_range17h9e33bb203b07f51eE, symObjAddr: 0x3244, symBinAddr: 0x27788, symSize: 0x538 }
  - { offset: 0xC0892, size: 0x8, addend: 0x0, symName: '__ZN5numpy6borrow6shared10data_range28_$u7b$$u7b$closure$u7d$$u7d$17hfdc0d23598405b7dE', symObjAddr: 0x377C, symBinAddr: 0x27CC0, symSize: 0x24 }
  - { offset: 0xC096A, size: 0x8, addend: 0x0, symName: '__ZN5numpy6borrow6shared11BorrowFlags11acquire_mut28_$u7b$$u7b$closure$u7d$$u7d$17hbb6cf81eb4ed2929E', symObjAddr: 0x39FC, symBinAddr: 0x27F40, symSize: 0x78 }
  - { offset: 0xC09DA, size: 0x8, addend: 0x0, symName: '__ZN5numpy6borrow6shared11BorrowFlags7acquire28_$u7b$$u7b$closure$u7d$$u7d$17h8644d9a0e0bd1ddeE', symObjAddr: 0x3DF4, symBinAddr: 0x28338, symSize: 0x78 }
  - { offset: 0xC0A46, size: 0x8, addend: 0x0, symName: __ZN5numpy6borrow6shared11gcd_strides17h7ce191b41778e1f5E, symObjAddr: 0x4110, symBinAddr: 0x2853C, symSize: 0x124 }
  - { offset: 0xC0AA8, size: 0x8, addend: 0x0, symName: __ZN5numpy6borrow6shared12base_address17h1e3363ef634b4bfaE, symObjAddr: 0x4298, symBinAddr: 0x28660, symSize: 0xC8 }
  - { offset: 0xC0B07, size: 0x8, addend: 0x0, symName: __ZN5numpy6borrow6shared13insert_shared17h6e46cdcc89b22661E, symObjAddr: 0x4360, symBinAddr: 0x8EA54, symSize: 0x5DC }
  - { offset: 0xC0D9C, size: 0x8, addend: 0x0, symName: '__ZN5numpy6borrow6shared13insert_shared28_$u7b$$u7b$closure$u7d$$u7d$17h7f1ab2e92f397fa6E', symObjAddr: 0x493C, symBinAddr: 0x28728, symSize: 0x34 }
  - { offset: 0xC0DE5, size: 0x8, addend: 0x0, symName: __ZN5numpy6borrow6shared14acquire_shared17hede24c52d58753b8E, symObjAddr: 0x4970, symBinAddr: 0x2875C, symSize: 0xF8 }
  - { offset: 0xC0E8C, size: 0x8, addend: 0x0, symName: __ZN5numpy6borrow6shared14release_shared17ha3248df822dab646E, symObjAddr: 0x4A68, symBinAddr: 0x28854, symSize: 0xD0 }
  - { offset: 0xC0F2F, size: 0x8, addend: 0x0, symName: __ZN5numpy6borrow6shared18acquire_mut_shared17h5ea049a9b0ca4c80E, symObjAddr: 0x4B38, symBinAddr: 0x28924, symSize: 0x160 }
  - { offset: 0xC0FD6, size: 0x8, addend: 0x0, symName: __ZN5numpy6borrow6shared18release_mut_shared17h854b353e79389900E, symObjAddr: 0x4C98, symBinAddr: 0x28A84, symSize: 0xD0 }
  - { offset: 0xC1079, size: 0x8, addend: 0x0, symName: __ZN5numpy6borrow6shared20get_or_insert_shared17h83644fa5e140f80dE, symObjAddr: 0x4D68, symBinAddr: 0x28B54, symSize: 0xE4 }
  - { offset: 0xC10E7, size: 0x8, addend: 0x0, symName: '__ZN5numpy6borrow6shared20get_or_insert_shared28_$u7b$$u7b$closure$u7d$$u7d$17h504205537284fd77E', symObjAddr: 0x4E4C, symBinAddr: 0x28C38, symSize: 0x20 }
  - { offset: 0xC1132, size: 0x8, addend: 0x0, symName: __ZN5numpy6borrow6shared7acquire17h80675dff9beae665E, symObjAddr: 0x4E6C, symBinAddr: 0x28C58, symSize: 0xFC }
  - { offset: 0xC120A, size: 0x8, addend: 0x0, symName: __ZN5numpy6borrow6shared7release17h3eed68a2aac45b88E, symObjAddr: 0x4F68, symBinAddr: 0x28D54, symSize: 0x64 }
  - { offset: 0xC126D, size: 0x8, addend: 0x0, symName: '__ZN69_$LT$numpy..borrow..shared..BorrowKey$u20$as$u20$core..hash..Hash$GT$4hash17h3b8cdc8c0f2953f3E', symObjAddr: 0x51F4, symBinAddr: 0x28F8C, symSize: 0x50 }
  - { offset: 0xC12B2, size: 0x8, addend: 0x0, symName: '__ZN73_$LT$numpy..borrow..shared..BorrowKey$u20$as$u20$core..cmp..PartialEq$GT$2eq17h479ecd9de448bbc5E', symObjAddr: 0x56A0, symBinAddr: 0x29360, symSize: 0x88 }
  - { offset: 0xC12F2, size: 0x8, addend: 0x0, symName: '__ZN77_$LT$numpy..borrow..shared..BorrowFlags$u20$as$u20$core..default..Default$GT$7default17h0d887d31722f7892E', symObjAddr: 0x5728, symBinAddr: 0x293E8, symSize: 0x38 }
  - { offset: 0xC1447, size: 0x8, addend: 0x0, symName: '__ZN109_$LT$pyo3..instance..Bound$LT$numpy..dtype..PyArrayDescr$GT$$u20$as$u20$numpy..dtype..PyArrayDescrMethods$GT$11is_equiv_to17h1a4fc91f492fff95E', symObjAddr: 0x8E4, symBinAddr: 0x2699C, symSize: 0xA0 }
  - { offset: 0xC14C0, size: 0x8, addend: 0x0, symName: '__ZN109_$LT$pyo3..instance..Bound$LT$numpy..dtype..PyArrayDescr$GT$$u20$as$u20$numpy..dtype..PyArrayDescrMethods$GT$12as_dtype_ptr17hfe5b351398fa4b6bE', symObjAddr: 0x984, symBinAddr: 0x26A3C, symSize: 0x24 }
  - { offset: 0xC150F, size: 0x8, addend: 0x0, symName: '__ZN129_$LT$pyo3..instance..Bound$LT$numpy..untyped_array..PyUntypedArray$GT$$u20$as$u20$numpy..untyped_array..PyUntypedArrayMethods$GT$12as_array_ptr17h335d2b3e9eaf45e9E', symObjAddr: 0x20AC, symBinAddr: 0x26A84, symSize: 0x2C }
  - { offset: 0xC153D, size: 0x8, addend: 0x0, symName: '__ZN129_$LT$pyo3..instance..Bound$LT$numpy..untyped_array..PyUntypedArray$GT$$u20$as$u20$numpy..untyped_array..PyUntypedArrayMethods$GT$5dtype17h2345b49e4df0c00cE', symObjAddr: 0x20D8, symBinAddr: 0x26AB0, symSize: 0xA4 }
  - { offset: 0xC1671, size: 0x8, addend: 0x0, symName: '__ZN4pyo38instance11Py$LT$T$GT$13from_non_null17h7e691cb04bb0ea05E', symObjAddr: 0x2818, symBinAddr: 0x27118, symSize: 0x14 }
  - { offset: 0xC169D, size: 0x8, addend: 0x0, symName: '__ZN4pyo38instance11Py$LT$T$GT$17from_borrowed_ptr17hd7278b035896fc3eE', symObjAddr: 0x282C, symBinAddr: 0x2712C, symSize: 0x50 }
  - { offset: 0xC16E4, size: 0x8, addend: 0x0, symName: '__ZN4pyo38instance11Py$LT$T$GT$24from_borrowed_ptr_or_opt17h7d7302c327595986E', symObjAddr: 0x287C, symBinAddr: 0x2717C, symSize: 0x34 }
  - { offset: 0xC1752, size: 0x8, addend: 0x0, symName: '__ZN4pyo38instance11Py$LT$T$GT$6as_ptr17h0720f0aaba3fe484E', symObjAddr: 0x2A54, symBinAddr: 0x272AC, symSize: 0x1C }
  - { offset: 0xC177E, size: 0x8, addend: 0x0, symName: '__ZN4pyo38instance11Py$LT$T$GT$6as_ptr17h712a12012d69490cE', symObjAddr: 0x2A70, symBinAddr: 0x272C8, symSize: 0x1C }
  - { offset: 0xC17AA, size: 0x8, addend: 0x0, symName: '__ZN4pyo38instance11Py$LT$T$GT$8into_any17h8d48e4ee4580254fE', symObjAddr: 0x2AC8, symBinAddr: 0x272E4, symSize: 0x3C }
  - { offset: 0xC17E3, size: 0x8, addend: 0x0, symName: '__ZN4pyo38instance11Py$LT$T$GT$9clone_ref17hc4c291047c78ce40E', symObjAddr: 0x2C04, symBinAddr: 0x27320, symSize: 0x100 }
  - { offset: 0xC189F, size: 0x8, addend: 0x0, symName: '__ZN4pyo38instance14Bound$LT$T$GT$2py17h394175282fb9a03bE', symObjAddr: 0x2D04, symBinAddr: 0x27420, symSize: 0x10 }
  - { offset: 0xC18CB, size: 0x8, addend: 0x0, symName: '__ZN4pyo38instance14Bound$LT$T$GT$2py17h7c257312c5d640e1E', symObjAddr: 0x2D14, symBinAddr: 0x27430, symSize: 0x10 }
  - { offset: 0xC1904, size: 0x8, addend: 0x0, symName: '__ZN4pyo38instance14Bound$LT$T$GT$6as_ptr17had70fa9455268a45E', symObjAddr: 0x2DD4, symBinAddr: 0x27440, symSize: 0x2C }
  - { offset: 0xC1930, size: 0x8, addend: 0x0, symName: '__ZN4pyo38instance14Bound$LT$T$GT$6as_ptr17hba8fe79a3ce73ab5E', symObjAddr: 0x2E00, symBinAddr: 0x2746C, symSize: 0x2C }
  - { offset: 0xC195C, size: 0x8, addend: 0x0, symName: '__ZN4pyo38instance14Bound$LT$T$GT$6unbind17hefedfa83535c7c74E', symObjAddr: 0x2EBC, symBinAddr: 0x27498, symSize: 0x48 }
  - { offset: 0xC19A6, size: 0x8, addend: 0x0, symName: '__ZN4pyo38instance14Bound$LT$T$GT$8into_any17h6f6b84e07a0db7a3E', symObjAddr: 0x2F04, symBinAddr: 0x274E0, symSize: 0x30 }
  - { offset: 0xC19D2, size: 0x8, addend: 0x0, symName: '__ZN4pyo38instance36Bound$LT$pyo3..types..any..PyAny$GT$14from_owned_ptr17hf647f5a1a05d3379E', symObjAddr: 0x2F74, symBinAddr: 0x27510, symSize: 0x2C }
  - { offset: 0xC1A0D, size: 0x8, addend: 0x0, symName: '__ZN4pyo38instance36Bound$LT$pyo3..types..any..PyAny$GT$17from_borrowed_ptr17h71f94d278b875152E', symObjAddr: 0x2FA0, symBinAddr: 0x2753C, symSize: 0x2C }
  - { offset: 0xC1A48, size: 0x8, addend: 0x0, symName: '__ZN4pyo38instance36Bound$LT$pyo3..types..any..PyAny$GT$21from_owned_ptr_or_err17ha5a544a1045ead63E', symObjAddr: 0x2FCC, symBinAddr: 0x27568, symSize: 0x40 }
  - { offset: 0xC1A90, size: 0x8, addend: 0x0, symName: '__ZN4pyo38instance39Borrowed$LT$pyo3..types..any..PyAny$GT$15from_ptr_or_opt17hdf573d71c6d12ad7E', symObjAddr: 0x300C, symBinAddr: 0x275A8, symSize: 0x2C }
  - { offset: 0xC1ACE, size: 0x8, addend: 0x0, symName: '__ZN4pyo38instance39Borrowed$LT$pyo3..types..any..PyAny$GT$18from_ptr_unchecked17hfd49b954af39e06fE', symObjAddr: 0x3058, symBinAddr: 0x275F4, symSize: 0x2C }
  - { offset: 0xC1B19, size: 0x8, addend: 0x0, symName: '__ZN4pyo38internal8get_slot78_$LT$impl$u20$pyo3..instance..Bound$LT$pyo3..types..typeobject..PyType$GT$$GT$8get_slot17he08739465f6ed966E', symObjAddr: 0x30B8, symBinAddr: 0x27620, symSize: 0x28 }
  - { offset: 0xC1B96, size: 0x8, addend: 0x0, symName: '__ZN52_$LT$Q$u20$as$u20$hashbrown..Equivalent$LT$K$GT$$GT$10equivalent17h8a7e60795708a36cE', symObjAddr: 0x3118, symBinAddr: 0x2765C, symSize: 0x40 }
  - { offset: 0xC1F29, size: 0x8, addend: 0x0, symName: __ZN5numpy6borrow6shared11BorrowFlags11acquire_mut17hec060e3ac88f95afE, symObjAddr: 0x37A0, symBinAddr: 0x27CE4, symSize: 0x25C }
  - { offset: 0xC20A1, size: 0x8, addend: 0x0, symName: __ZN5numpy6borrow6shared11BorrowFlags11release_mut17h9039473b186dbee1E, symObjAddr: 0x3A74, symBinAddr: 0x27FB8, symSize: 0xDC }
  - { offset: 0xC215B, size: 0x8, addend: 0x0, symName: __ZN5numpy6borrow6shared11BorrowFlags7acquire17h948c6b1b81860fefE, symObjAddr: 0x3B50, symBinAddr: 0x28094, symSize: 0x2A4 }
  - { offset: 0xC2310, size: 0x8, addend: 0x0, symName: __ZN5numpy6borrow6shared11BorrowFlags7release17h8c57356e4596db15E, symObjAddr: 0x3E6C, symBinAddr: 0x283B0, symSize: 0x18C }
  - { offset: 0xC24C4, size: 0x8, addend: 0x0, symName: __ZN5numpy6borrow6shared9BorrowKey9conflicts17h2b1e5b90dd3a6fc7E, symObjAddr: 0x4FCC, symBinAddr: 0x28DB8, symSize: 0x1C0 }
  - { offset: 0xC282F, size: 0x8, addend: 0x0, symName: '__ZN45_$LT$T$u20$as$u20$alloc..string..ToString$GT$9to_string17h378d78d9ffd1acebE', symObjAddr: 0x6158, symBinAddr: 0x2ADB4, symSize: 0x24 }
  - { offset: 0xC286C, size: 0x8, addend: 0x0, symName: '__ZN49_$LT$T$u20$as$u20$alloc..string..SpecToString$GT$14spec_to_string17h8787b1a9232e51baE', symObjAddr: 0x617C, symBinAddr: 0x2ADD8, symSize: 0xF4 }
  - { offset: 0xC2DF9, size: 0x8, addend: 0x0, symName: '__ZN42_$LT$$RF$T$u20$as$u20$core..fmt..Debug$GT$3fmt17hdf7d9f6b44ca8898E', symObjAddr: 0x6038, symBinAddr: 0x2AD24, symSize: 0x30 }
  - { offset: 0xC2E45, size: 0x8, addend: 0x0, symName: '__ZN44_$LT$$RF$T$u20$as$u20$core..fmt..Display$GT$3fmt17h4ee0a7c468d0a539E', symObjAddr: 0x6068, symBinAddr: 0x2AD54, symSize: 0x30 }
  - { offset: 0xC2E8B, size: 0x8, addend: 0x0, symName: '__ZN44_$LT$$RF$T$u20$as$u20$core..fmt..Display$GT$3fmt17hb5285f2ac0fd3ce7E', symObjAddr: 0x6098, symBinAddr: 0x2AD84, symSize: 0x30 }
  - { offset: 0xC3044, size: 0x8, addend: 0x0, symName: '__ZN4core5array4iter94_$LT$impl$u20$core..iter..traits..collect..IntoIterator$u20$for$u20$$u5b$T$u3b$$u20$N$u5d$$GT$9into_iter17h10976961c0c4b8fdE', symObjAddr: 0x62B8, symBinAddr: 0x2AECC, symSize: 0x58 }
  - { offset: 0xC4D14, size: 0x8, addend: 0x0, symName: '__ZN50_$LT$T$u20$as$u20$core..convert..Into$LT$U$GT$$GT$4into17h0de43397a4721b0eE', symObjAddr: 0xC644, symBinAddr: 0x2D4C8, symSize: 0x24 }
  - { offset: 0xC4D54, size: 0x8, addend: 0x0, symName: '__ZN50_$LT$T$u20$as$u20$core..convert..Into$LT$U$GT$$GT$4into17h265d84238bb1a6a8E', symObjAddr: 0xC68C, symBinAddr: 0x2D4EC, symSize: 0x24 }
  - { offset: 0xC4D94, size: 0x8, addend: 0x0, symName: '__ZN50_$LT$T$u20$as$u20$core..convert..Into$LT$U$GT$$GT$4into17h5671d77356f75857E', symObjAddr: 0xC6D4, symBinAddr: 0x2D510, symSize: 0x24 }
  - { offset: 0xC4DD4, size: 0x8, addend: 0x0, symName: '__ZN50_$LT$T$u20$as$u20$core..convert..Into$LT$U$GT$$GT$4into17h5849877a04df4eaeE', symObjAddr: 0xC6F8, symBinAddr: 0x2D534, symSize: 0x24 }
  - { offset: 0xC4E14, size: 0x8, addend: 0x0, symName: '__ZN50_$LT$T$u20$as$u20$core..convert..Into$LT$U$GT$$GT$4into17h5d9ceafb897e84a4E', symObjAddr: 0xC71C, symBinAddr: 0x2D558, symSize: 0x24 }
  - { offset: 0xC4E54, size: 0x8, addend: 0x0, symName: '__ZN50_$LT$T$u20$as$u20$core..convert..Into$LT$U$GT$$GT$4into17h72afb98c4275a6e6E', symObjAddr: 0xC764, symBinAddr: 0x2D57C, symSize: 0x24 }
  - { offset: 0xC56E1, size: 0x8, addend: 0x0, symName: '__ZN103_$LT$pyo3..instance..Bound$LT$pyo3..types..any..PyAny$GT$$u20$as$u20$pyo3..types..any..PyAnyMethods$GT$13downcast_into17h37f4a0f8770c4f34E', symObjAddr: 0x480, symBinAddr: 0x29448, symSize: 0xE8 }
  - { offset: 0xC5718, size: 0x8, addend: 0x0, symName: '__ZN103_$LT$pyo3..instance..Bound$LT$pyo3..types..any..PyAny$GT$$u20$as$u20$pyo3..types..any..PyAnyMethods$GT$13downcast_into17h3a58d9a021044cfdE', symObjAddr: 0x568, symBinAddr: 0x29530, symSize: 0xE8 }
  - { offset: 0xC574F, size: 0x8, addend: 0x0, symName: '__ZN103_$LT$pyo3..instance..Bound$LT$pyo3..types..any..PyAny$GT$$u20$as$u20$pyo3..types..any..PyAnyMethods$GT$13downcast_into17h8b005ce5ef237b55E', symObjAddr: 0x650, symBinAddr: 0x29618, symSize: 0xE8 }
  - { offset: 0xC5786, size: 0x8, addend: 0x0, symName: '__ZN103_$LT$pyo3..instance..Bound$LT$pyo3..types..any..PyAny$GT$$u20$as$u20$pyo3..types..any..PyAnyMethods$GT$14downcast_exact17h5d35dc6986288733E', symObjAddr: 0xAD8, symBinAddr: 0x29700, symSize: 0x84 }
  - { offset: 0xC57BD, size: 0x8, addend: 0x0, symName: '__ZN103_$LT$pyo3..instance..Bound$LT$pyo3..types..any..PyAny$GT$$u20$as$u20$pyo3..types..any..PyAnyMethods$GT$18downcast_unchecked17h191606371d6ef515E', symObjAddr: 0xB5C, symBinAddr: 0x29784, symSize: 0x74 }
  - { offset: 0xC57F4, size: 0x8, addend: 0x0, symName: '__ZN103_$LT$pyo3..instance..Bound$LT$pyo3..types..any..PyAny$GT$$u20$as$u20$pyo3..types..any..PyAnyMethods$GT$18downcast_unchecked17h6813a4ca25cbe875E', symObjAddr: 0xD2C, symBinAddr: 0x297F8, symSize: 0x74 }
  - { offset: 0xC582B, size: 0x8, addend: 0x0, symName: '__ZN103_$LT$pyo3..instance..Bound$LT$pyo3..types..any..PyAny$GT$$u20$as$u20$pyo3..types..any..PyAnyMethods$GT$18downcast_unchecked17hbc4ca8a0f0826d52E', symObjAddr: 0xDA0, symBinAddr: 0x2986C, symSize: 0x74 }
  - { offset: 0xC5862, size: 0x8, addend: 0x0, symName: '__ZN103_$LT$pyo3..instance..Bound$LT$pyo3..types..any..PyAny$GT$$u20$as$u20$pyo3..types..any..PyAnyMethods$GT$20is_exact_instance_of17h19fc31ae0c6379aeE', symObjAddr: 0xF70, symBinAddr: 0x298E0, symSize: 0x24 }
  - { offset: 0xC5899, size: 0x8, addend: 0x0, symName: '__ZN103_$LT$pyo3..instance..Bound$LT$pyo3..types..any..PyAny$GT$$u20$as$u20$pyo3..types..any..PyAnyMethods$GT$23downcast_into_unchecked17h38f86abab2cdaeedE', symObjAddr: 0x100C, symBinAddr: 0x29904, symSize: 0x14 }
  - { offset: 0xC58D0, size: 0x8, addend: 0x0, symName: '__ZN103_$LT$pyo3..instance..Bound$LT$pyo3..types..any..PyAny$GT$$u20$as$u20$pyo3..types..any..PyAnyMethods$GT$23downcast_into_unchecked17h45cd1ea8a7b2219aE', symObjAddr: 0x1034, symBinAddr: 0x29918, symSize: 0x14 }
  - { offset: 0xC5907, size: 0x8, addend: 0x0, symName: '__ZN103_$LT$pyo3..instance..Bound$LT$pyo3..types..any..PyAny$GT$$u20$as$u20$pyo3..types..any..PyAnyMethods$GT$23downcast_into_unchecked17h4e0da65f92d56740E', symObjAddr: 0x1048, symBinAddr: 0x2992C, symSize: 0x14 }
  - { offset: 0xC593E, size: 0x8, addend: 0x0, symName: '__ZN103_$LT$pyo3..instance..Bound$LT$pyo3..types..any..PyAny$GT$$u20$as$u20$pyo3..types..any..PyAnyMethods$GT$23downcast_into_unchecked17h615faaa5b4b1549dE', symObjAddr: 0x1070, symBinAddr: 0x29940, symSize: 0x14 }
  - { offset: 0xC5975, size: 0x8, addend: 0x0, symName: '__ZN103_$LT$pyo3..instance..Bound$LT$pyo3..types..any..PyAny$GT$$u20$as$u20$pyo3..types..any..PyAnyMethods$GT$23downcast_into_unchecked17h692550474010734bE', symObjAddr: 0x1084, symBinAddr: 0x29954, symSize: 0x14 }
  - { offset: 0xC59AC, size: 0x8, addend: 0x0, symName: '__ZN103_$LT$pyo3..instance..Bound$LT$pyo3..types..any..PyAny$GT$$u20$as$u20$pyo3..types..any..PyAnyMethods$GT$23downcast_into_unchecked17h852a7476d58c30e0E', symObjAddr: 0x10C0, symBinAddr: 0x29968, symSize: 0x14 }
  - { offset: 0xC59E3, size: 0x8, addend: 0x0, symName: '__ZN103_$LT$pyo3..instance..Bound$LT$pyo3..types..any..PyAny$GT$$u20$as$u20$pyo3..types..any..PyAnyMethods$GT$23downcast_into_unchecked17ha0f327f6d04167e1E', symObjAddr: 0x10FC, symBinAddr: 0x2997C, symSize: 0x14 }
  - { offset: 0xC5A1A, size: 0x8, addend: 0x0, symName: '__ZN103_$LT$pyo3..instance..Bound$LT$pyo3..types..any..PyAny$GT$$u20$as$u20$pyo3..types..any..PyAnyMethods$GT$23downcast_into_unchecked17he661825c9a9477fdE', symObjAddr: 0x11B0, symBinAddr: 0x29990, symSize: 0x14 }
  - { offset: 0xC5A51, size: 0x8, addend: 0x0, symName: '__ZN103_$LT$pyo3..instance..Bound$LT$pyo3..types..any..PyAny$GT$$u20$as$u20$pyo3..types..any..PyAnyMethods$GT$23downcast_into_unchecked17hfb2d9335925ac114E', symObjAddr: 0x11D8, symBinAddr: 0x299A4, symSize: 0x14 }
  - { offset: 0xC5A88, size: 0x8, addend: 0x0, symName: '__ZN103_$LT$pyo3..instance..Bound$LT$pyo3..types..any..PyAny$GT$$u20$as$u20$pyo3..types..any..PyAnyMethods$GT$2is17h140ebf717c18325cE', symObjAddr: 0x11EC, symBinAddr: 0x299B8, symSize: 0x4C }
  - { offset: 0xC5ACE, size: 0x8, addend: 0x0, symName: '__ZN103_$LT$pyo3..instance..Bound$LT$pyo3..types..any..PyAny$GT$$u20$as$u20$pyo3..types..any..PyAnyMethods$GT$3str17h2c946082385fc6c4E', symObjAddr: 0x166C, symBinAddr: 0x29A04, symSize: 0x5C }
  - { offset: 0xC5AFC, size: 0x8, addend: 0x0, symName: '__ZN103_$LT$pyo3..instance..Bound$LT$pyo3..types..any..PyAny$GT$$u20$as$u20$pyo3..types..any..PyAnyMethods$GT$4iter17h1591ae12985b8c37E', symObjAddr: 0x17F4, symBinAddr: 0x29A60, symSize: 0x24 }
  - { offset: 0xC5B2A, size: 0x8, addend: 0x0, symName: '__ZN103_$LT$pyo3..instance..Bound$LT$pyo3..types..any..PyAny$GT$$u20$as$u20$pyo3..types..any..PyAnyMethods$GT$4repr17hbaeeefea32896bb9E', symObjAddr: 0x1818, symBinAddr: 0x29A84, symSize: 0x5C }
  - { offset: 0xC5B58, size: 0x8, addend: 0x0, symName: '__ZN103_$LT$pyo3..instance..Bound$LT$pyo3..types..any..PyAny$GT$$u20$as$u20$pyo3..types..any..PyAnyMethods$GT$7extract17h198d2de6bbcc21e1E', symObjAddr: 0x1AF8, symBinAddr: 0x29AE0, symSize: 0x30 }
  - { offset: 0xC5B8F, size: 0x8, addend: 0x0, symName: '__ZN103_$LT$pyo3..instance..Bound$LT$pyo3..types..any..PyAny$GT$$u20$as$u20$pyo3..types..any..PyAnyMethods$GT$7extract17hac79de3bbd7fc961E', symObjAddr: 0x1BE8, symBinAddr: 0x29B10, symSize: 0x30 }
  - { offset: 0xC5BC6, size: 0x8, addend: 0x0, symName: '__ZN103_$LT$pyo3..instance..Bound$LT$pyo3..types..any..PyAny$GT$$u20$as$u20$pyo3..types..any..PyAnyMethods$GT$7extract17hc331ab653aecd410E', symObjAddr: 0x1C48, symBinAddr: 0x29B40, symSize: 0x30 }
  - { offset: 0xC5BFD, size: 0x8, addend: 0x0, symName: '__ZN103_$LT$pyo3..instance..Bound$LT$pyo3..types..any..PyAny$GT$$u20$as$u20$pyo3..types..any..PyAnyMethods$GT$7extract17hd0e7c0663380a0d4E', symObjAddr: 0x1D08, symBinAddr: 0x29B70, symSize: 0x30 }
  - { offset: 0xC5C34, size: 0x8, addend: 0x0, symName: '__ZN103_$LT$pyo3..instance..Bound$LT$pyo3..types..any..PyAny$GT$$u20$as$u20$pyo3..types..any..PyAnyMethods$GT$7extract17hd89b4f02a826b437E', symObjAddr: 0x1D38, symBinAddr: 0x29BA0, symSize: 0x30 }
  - { offset: 0xC5C6B, size: 0x8, addend: 0x0, symName: '__ZN103_$LT$pyo3..instance..Bound$LT$pyo3..types..any..PyAny$GT$$u20$as$u20$pyo3..types..any..PyAnyMethods$GT$7getattr17h186b82dfe5e0932bE', symObjAddr: 0x1DF8, symBinAddr: 0x29BD0, symSize: 0xE4 }
  - { offset: 0xC5CC7, size: 0x8, addend: 0x0, symName: '__ZN103_$LT$pyo3..instance..Bound$LT$pyo3..types..any..PyAny$GT$$u20$as$u20$pyo3..types..any..PyAnyMethods$GT$7getattr17h2bf18e512344950bE', symObjAddr: 0x1EDC, symBinAddr: 0x29CB4, symSize: 0xF0 }
  - { offset: 0xC5D23, size: 0x8, addend: 0x0, symName: '__ZN103_$LT$pyo3..instance..Bound$LT$pyo3..types..any..PyAny$GT$$u20$as$u20$pyo3..types..any..PyAnyMethods$GT$7setattr17h23c0b7a29f636d7cE', symObjAddr: 0x2010, symBinAddr: 0x29DA4, symSize: 0x11C }
  - { offset: 0xC5D98, size: 0x8, addend: 0x0, symName: '__ZN103_$LT$pyo3..instance..Bound$LT$pyo3..types..any..PyAny$GT$$u20$as$u20$pyo3..types..any..PyAnyMethods$GT$7setattr17h920e40fbbc2d8306E', symObjAddr: 0x212C, symBinAddr: 0x29EC0, symSize: 0x140 }
  - { offset: 0xC5E0C, size: 0x8, addend: 0x0, symName: '__ZN103_$LT$pyo3..instance..Bound$LT$pyo3..types..any..PyAny$GT$$u20$as$u20$pyo3..types..any..PyAnyMethods$GT$8downcast17h9bbbd97182276872E', symObjAddr: 0x247C, symBinAddr: 0x2A000, symSize: 0x84 }
  - { offset: 0xC5E43, size: 0x8, addend: 0x0, symName: '__ZN103_$LT$pyo3..instance..Bound$LT$pyo3..types..any..PyAny$GT$$u20$as$u20$pyo3..types..any..PyAnyMethods$GT$8get_type17h40ad04e63fca15b7E', symObjAddr: 0x2604, symBinAddr: 0x2A084, symSize: 0x38 }
  - { offset: 0xC5E92, size: 0x8, addend: 0x0, symName: '__ZN107_$LT$pyo3..instance..Bound$LT$pyo3..types..list..PyList$GT$$u20$as$u20$pyo3..types..list..PyListMethods$GT$6append17hf35313fb0d2887a5E', symObjAddr: 0x2D38, symBinAddr: 0x2A128, symSize: 0x80 }
  - { offset: 0xC5F17, size: 0x8, addend: 0x0, symName: '__ZN111_$LT$pyo3..instance..Bound$LT$pyo3..types..bytes..PyBytes$GT$$u20$as$u20$pyo3..types..bytes..PyBytesMethods$GT$8as_bytes17hc00f063d87648eecE', symObjAddr: 0x2F58, symBinAddr: 0x2A1A8, symSize: 0x28 }
  - { offset: 0xC5F64, size: 0x8, addend: 0x0, symName: '__ZN111_$LT$pyo3..instance..Bound$LT$pyo3..types..float..PyFloat$GT$$u20$as$u20$pyo3..types..float..PyFloatMethods$GT$5value17h7cb2fc9521b5aacaE', symObjAddr: 0x2F80, symBinAddr: 0x2A1D0, symSize: 0x28 }
  - { offset: 0xC5FB1, size: 0x8, addend: 0x0, symName: '__ZN111_$LT$pyo3..instance..Bound$LT$pyo3..types..tuple..PyTuple$GT$$u20$as$u20$pyo3..types..tuple..PyTupleMethods$GT$3len17h7c5570a63624b424E', symObjAddr: 0x31C0, symBinAddr: 0x2A1F8, symSize: 0x2C }
  - { offset: 0xC602D, size: 0x8, addend: 0x0, symName: '__ZN115_$LT$pyo3..instance..Bound$LT$pyo3..types..module..PyModule$GT$$u20$as$u20$pyo3..types..module..PyModuleMethods$GT$12add_function17h39e865ae169e1e0eE', symObjAddr: 0x3588, symBinAddr: 0x2A248, symSize: 0x1E0 }
  - { offset: 0xC60DC, size: 0x8, addend: 0x0, symName: '__ZN115_$LT$pyo3..instance..Bound$LT$pyo3..types..module..PyModule$GT$$u20$as$u20$pyo3..types..module..PyModuleMethods$GT$3add17h0f060be0c512a50bE', symObjAddr: 0x3864, symBinAddr: 0x2A428, symSize: 0x13C }
  - { offset: 0xC6150, size: 0x8, addend: 0x0, symName: '__ZN115_$LT$pyo3..instance..Bound$LT$pyo3..types..module..PyModule$GT$$u20$as$u20$pyo3..types..module..PyModuleMethods$GT$4name17h1d488fbe1c97dad6E', symObjAddr: 0x3C68, symBinAddr: 0x2A564, symSize: 0x5C }
  - { offset: 0xC617E, size: 0x8, addend: 0x0, symName: '__ZN115_$LT$pyo3..instance..Bound$LT$pyo3..types..module..PyModule$GT$$u20$as$u20$pyo3..types..module..PyModuleMethods$GT$5index17h3ea5b1e1ee101db7E', symObjAddr: 0x3CC4, symBinAddr: 0x2A5C0, symSize: 0x238 }
  - { offset: 0xC624E, size: 0x8, addend: 0x0, symName: '__ZN115_$LT$pyo3..instance..Bound$LT$pyo3..types..string..PyString$GT$$u20$as$u20$pyo3..types..string..PyStringMethods$GT$15to_string_lossy17h215fd0b6e16a4cb9E', symObjAddr: 0x3FB4, symBinAddr: 0x2A7F8, symSize: 0x30 }
  - { offset: 0xC627C, size: 0x8, addend: 0x0, symName: '__ZN115_$LT$pyo3..instance..Bound$LT$pyo3..types..string..PyString$GT$$u20$as$u20$pyo3..types..string..PyStringMethods$GT$6to_cow17hb182237210865756E', symObjAddr: 0x4014, symBinAddr: 0x2A828, symSize: 0x30 }
  - { offset: 0xC62B0, size: 0x8, addend: 0x0, symName: '__ZN4pyo35types6string176_$LT$impl$u20$pyo3..conversion..IntoPy$LT$pyo3..instance..Py$LT$pyo3..types..string..PyString$GT$$GT$$u20$for$u20$pyo3..instance..Bound$LT$pyo3..types..string..PyString$GT$$GT$7into_py17h58bfd1337f647764E', symObjAddr: 0x6FE0, symBinAddr: 0x2B048, symSize: 0x24 }
  - { offset: 0xC62FF, size: 0x8, addend: 0x0, symName: '__ZN4pyo35types6string180_$LT$impl$u20$pyo3..conversion..IntoPy$LT$pyo3..instance..Py$LT$pyo3..types..string..PyString$GT$$GT$$u20$for$u20$$RF$pyo3..instance..Bound$LT$pyo3..types..string..PyString$GT$$GT$7into_py17h4e4e248c7df8bbdbE', symObjAddr: 0x7028, symBinAddr: 0x2B06C, symSize: 0x28 }
  - { offset: 0xC63E8, size: 0x8, addend: 0x0, symName: '__ZN119_$LT$pyo3..instance..Bound$LT$pyo3..types..capsule..PyCapsule$GT$$u20$as$u20$pyo3..types..capsule..PyCapsuleMethods$GT$7pointer17h4af21f4f950943d6E', symObjAddr: 0x45A0, symBinAddr: 0x2A858, symSize: 0x68 }
  - { offset: 0xC644D, size: 0x8, addend: 0x0, symName: '__ZN119_$LT$pyo3..instance..Bound$LT$pyo3..types..typeobject..PyType$GT$$u20$as$u20$pyo3..types..typeobject..PyTypeMethods$GT$11as_type_ptr17h9874cb753d47b300E', symObjAddr: 0x47AC, symBinAddr: 0x2A8C0, symSize: 0x24 }
  - { offset: 0xC6479, size: 0x8, addend: 0x0, symName: '__ZN119_$LT$pyo3..instance..Bound$LT$pyo3..types..typeobject..PyType$GT$$u20$as$u20$pyo3..types..typeobject..PyTypeMethods$GT$4name17h039a04f38f019538E', symObjAddr: 0x4A04, symBinAddr: 0x2A8E4, symSize: 0xB8 }
  - { offset: 0xC64DF, size: 0x8, addend: 0x0, symName: '__ZN119_$LT$pyo3..instance..Bound$LT$pyo3..types..typeobject..PyType$GT$$u20$as$u20$pyo3..types..typeobject..PyTypeMethods$GT$8qualname17h137bc669717b1030E', symObjAddr: 0x4C74, symBinAddr: 0x2A99C, symSize: 0xB8 }
  - { offset: 0xC6624, size: 0x8, addend: 0x0, symName: '__ZN105_$LT$pyo3..instance..Py$LT$T$GT$$u20$as$u20$core..convert..From$LT$pyo3..instance..Bound$LT$T$GT$$GT$$GT$4from17h44044abb65c32f34E', symObjAddr: 0x287C, symBinAddr: 0x2A0BC, symSize: 0x24 }
  - { offset: 0xC665B, size: 0x8, addend: 0x0, symName: '__ZN105_$LT$pyo3..instance..Py$LT$T$GT$$u20$as$u20$core..convert..From$LT$pyo3..instance..Bound$LT$T$GT$$GT$$GT$4from17h73f8b8f50d8a668fE', symObjAddr: 0x28A0, symBinAddr: 0x2A0E0, symSize: 0x24 }
  - { offset: 0xC6692, size: 0x8, addend: 0x0, symName: '__ZN105_$LT$pyo3..instance..Py$LT$T$GT$$u20$as$u20$core..convert..From$LT$pyo3..instance..Bound$LT$T$GT$$GT$$GT$4from17hcfdda3f13fb9bb2cE', symObjAddr: 0x28C4, symBinAddr: 0x2A104, symSize: 0x24 }
  - { offset: 0xC66CF, size: 0x8, addend: 0x0, symName: '__ZN115_$LT$pyo3..instance..Borrowed$LT$T$GT$$u20$as$u20$core..convert..From$LT$$RF$pyo3..instance..Bound$LT$T$GT$$GT$$GT$4from17h8f548f7184f1569eE', symObjAddr: 0x3564, symBinAddr: 0x2A224, symSize: 0x24 }
  - { offset: 0xC670C, size: 0x8, addend: 0x0, symName: '__ZN124_$LT$pyo3..instance..Py$LT$pyo3..types..any..PyAny$GT$$u20$as$u20$core..convert..From$LT$pyo3..instance..Py$LT$T$GT$$GT$$GT$4from17hcce2b6312c04075eE', symObjAddr: 0x4EA0, symBinAddr: 0x2AA54, symSize: 0x24 }
  - { offset: 0xC6749, size: 0x8, addend: 0x0, symName: '__ZN127_$LT$pyo3..instance..Py$LT$pyo3..types..any..PyAny$GT$$u20$as$u20$core..convert..From$LT$pyo3..instance..Bound$LT$T$GT$$GT$$GT$4from17h2cfe80fbe29f925cE', symObjAddr: 0x569C, symBinAddr: 0x2AA78, symSize: 0x84 }
  - { offset: 0xC679E, size: 0x8, addend: 0x0, symName: '__ZN127_$LT$pyo3..instance..Py$LT$pyo3..types..any..PyAny$GT$$u20$as$u20$core..convert..From$LT$pyo3..instance..Bound$LT$T$GT$$GT$$GT$4from17haba7c372d3399676E', symObjAddr: 0x5930, symBinAddr: 0x2AAFC, symSize: 0x84 }
  - { offset: 0xC67F9, size: 0x8, addend: 0x0, symName: '__ZN129_$LT$pyo3..instance..Py$LT$T$GT$$u20$as$u20$pyo3..conversion..IntoPy$LT$pyo3..instance..Py$LT$pyo3..types..any..PyAny$GT$$GT$$GT$7into_py17hd98603bb04e28055E', symObjAddr: 0x5A38, symBinAddr: 0x2AB80, symSize: 0x24 }
  - { offset: 0xC6851, size: 0x8, addend: 0x0, symName: '__ZN132_$LT$pyo3..instance..Bound$LT$T$GT$$u20$as$u20$pyo3..conversion..IntoPy$LT$pyo3..instance..Py$LT$pyo3..types..any..PyAny$GT$$GT$$GT$7into_py17h02ec98ec78f51130E', symObjAddr: 0x5A5C, symBinAddr: 0x2ABA4, symSize: 0x28 }
  - { offset: 0xC68A3, size: 0x8, addend: 0x0, symName: '__ZN132_$LT$pyo3..instance..Bound$LT$T$GT$$u20$as$u20$pyo3..conversion..IntoPy$LT$pyo3..instance..Py$LT$pyo3..types..any..PyAny$GT$$GT$$GT$7into_py17h85ed59958c618d1dE', symObjAddr: 0x5AFC, symBinAddr: 0x2ABCC, symSize: 0x28 }
  - { offset: 0xC68F5, size: 0x8, addend: 0x0, symName: '__ZN132_$LT$pyo3..instance..Bound$LT$T$GT$$u20$as$u20$pyo3..conversion..IntoPy$LT$pyo3..instance..Py$LT$pyo3..types..any..PyAny$GT$$GT$$GT$7into_py17had94134f8d831493E', symObjAddr: 0x5B4C, symBinAddr: 0x2ABF4, symSize: 0x28 }
  - { offset: 0xC6947, size: 0x8, addend: 0x0, symName: '__ZN132_$LT$pyo3..instance..Bound$LT$T$GT$$u20$as$u20$pyo3..conversion..IntoPy$LT$pyo3..instance..Py$LT$pyo3..types..any..PyAny$GT$$GT$$GT$7into_py17hb256670043a247fcE', symObjAddr: 0x5B74, symBinAddr: 0x2AC1C, symSize: 0x28 }
  - { offset: 0xC6999, size: 0x8, addend: 0x0, symName: '__ZN132_$LT$pyo3..instance..Bound$LT$T$GT$$u20$as$u20$pyo3..conversion..IntoPy$LT$pyo3..instance..Py$LT$pyo3..types..any..PyAny$GT$$GT$$GT$7into_py17hc47efcdb4d9c4814E', symObjAddr: 0x5B9C, symBinAddr: 0x2AC44, symSize: 0x28 }
  - { offset: 0xC69EB, size: 0x8, addend: 0x0, symName: '__ZN132_$LT$pyo3..instance..Bound$LT$T$GT$$u20$as$u20$pyo3..conversion..IntoPy$LT$pyo3..instance..Py$LT$pyo3..types..any..PyAny$GT$$GT$$GT$7into_py17hf9413b1b34ff20cdE', symObjAddr: 0x5C3C, symBinAddr: 0x2AC6C, symSize: 0x28 }
  - { offset: 0xC6A43, size: 0x8, addend: 0x0, symName: '__ZN135_$LT$pyo3..instance..Borrowed$LT$T$GT$$u20$as$u20$pyo3..conversion..IntoPy$LT$pyo3..instance..Py$LT$pyo3..types..any..PyAny$GT$$GT$$GT$7into_py17hae5c90f527e7616cE', symObjAddr: 0x5CD8, symBinAddr: 0x2AC94, symSize: 0x28 }
  - { offset: 0xC6A9B, size: 0x8, addend: 0x0, symName: '__ZN136_$LT$$RF$pyo3..instance..Bound$LT$T$GT$$u20$as$u20$pyo3..conversion..IntoPy$LT$pyo3..instance..Py$LT$pyo3..types..any..PyAny$GT$$GT$$GT$7into_py17hce0c072dcda8c5deE', symObjAddr: 0x5EB0, symBinAddr: 0x2ACBC, symSize: 0x24 }
  - { offset: 0xC7DA8, size: 0x8, addend: 0x0, symName: '__ZN4pyo38instance11Py$LT$T$GT$21from_owned_ptr_or_opt28_$u7b$$u7b$closure$u7d$$u7d$17h0b190b3428ce6c53E', symObjAddr: 0x8AFC, symBinAddr: 0x2B718, symSize: 0x14 }
  - { offset: 0xC7DEA, size: 0x8, addend: 0x0, symName: '__ZN4pyo38instance11Py$LT$T$GT$21from_owned_ptr_or_opt28_$u7b$$u7b$closure$u7d$$u7d$17h1ee2b85a37d2a70eE', symObjAddr: 0x8B10, symBinAddr: 0x2B72C, symSize: 0x14 }
  - { offset: 0xC819D, size: 0x8, addend: 0x0, symName: __ZN4pyo38instance13python_format17h0516fe768a4952f4E, symObjAddr: 0xA580, symBinAddr: 0x2C3D4, symSize: 0x2E0 }
  - { offset: 0xC88B1, size: 0x8, addend: 0x0, symName: '__ZN4pyo38instance36Bound$LT$pyo3..types..any..PyAny$GT$21from_owned_ptr_or_err28_$u7b$$u7b$closure$u7d$$u7d$17h130fd56fa6b6c76aE', symObjAddr: 0xC208, symBinAddr: 0x2D314, symSize: 0x28 }
  - { offset: 0xC890F, size: 0x8, addend: 0x0, symName: '__ZN4pyo38instance36Bound$LT$pyo3..types..any..PyAny$GT$21from_owned_ptr_or_opt28_$u7b$$u7b$closure$u7d$$u7d$17hb51dbf88e7babca4E', symObjAddr: 0xC25C, symBinAddr: 0x2D368, symSize: 0x28 }
  - { offset: 0xC8973, size: 0x8, addend: 0x0, symName: '__ZN4pyo38instance39Borrowed$LT$pyo3..types..any..PyAny$GT$8from_ptr28_$u7b$$u7b$closure$u7d$$u7d$17h26e34efde993b1c5E', symObjAddr: 0xC584, symBinAddr: 0x2D42C, symSize: 0x1C }
  - { offset: 0xC89C7, size: 0x8, addend: 0x0, symName: '__ZN67_$LT$pyo3..instance..Bound$LT$T$GT$$u20$as$u20$core..fmt..Debug$GT$3fmt17h3dc53d67919a695aE', symObjAddr: 0xC8B4, symBinAddr: 0x2D614, symSize: 0x54 }
  - { offset: 0xC8A2B, size: 0x8, addend: 0x0, symName: '__ZN67_$LT$pyo3..instance..Bound$LT$T$GT$$u20$as$u20$core..fmt..Debug$GT$3fmt17h41f5bd42dd41ec92E', symObjAddr: 0xC908, symBinAddr: 0x2D668, symSize: 0x54 }
  - { offset: 0xC8A8F, size: 0x8, addend: 0x0, symName: '__ZN67_$LT$pyo3..instance..Bound$LT$T$GT$$u20$as$u20$core..fmt..Debug$GT$3fmt17h43c60fb06bc12ef7E', symObjAddr: 0xC95C, symBinAddr: 0x2D6BC, symSize: 0x54 }
  - { offset: 0xC8AF9, size: 0x8, addend: 0x0, symName: '__ZN69_$LT$pyo3..instance..Bound$LT$T$GT$$u20$as$u20$core..clone..Clone$GT$5clone17h3a83583f069a533dE', symObjAddr: 0xC9E4, symBinAddr: 0x2D710, symSize: 0x34 }
  - { offset: 0xC8B30, size: 0x8, addend: 0x0, symName: '__ZN69_$LT$pyo3..instance..Bound$LT$T$GT$$u20$as$u20$core..clone..Clone$GT$5clone17h40ae48f967eba3c8E', symObjAddr: 0xCA18, symBinAddr: 0x2D744, symSize: 0x34 }
  - { offset: 0xC8B67, size: 0x8, addend: 0x0, symName: '__ZN69_$LT$pyo3..instance..Bound$LT$T$GT$$u20$as$u20$core..clone..Clone$GT$5clone17h4b2aad7ab4d58589E', symObjAddr: 0xCA4C, symBinAddr: 0x2D778, symSize: 0x34 }
  - { offset: 0xC8B9E, size: 0x8, addend: 0x0, symName: '__ZN69_$LT$pyo3..instance..Bound$LT$T$GT$$u20$as$u20$core..clone..Clone$GT$5clone17hb3e4a5684518f3e6E', symObjAddr: 0xCBB8, symBinAddr: 0x2D7AC, symSize: 0x34 }
  - { offset: 0xC8BD5, size: 0x8, addend: 0x0, symName: '__ZN69_$LT$pyo3..instance..Bound$LT$T$GT$$u20$as$u20$core..clone..Clone$GT$5clone17hebfc73a383031464E', symObjAddr: 0xCC20, symBinAddr: 0x2D7E0, symSize: 0x34 }
  - { offset: 0xC8C12, size: 0x8, addend: 0x0, symName: '__ZN69_$LT$pyo3..instance..Bound$LT$T$GT$$u20$as$u20$core..fmt..Display$GT$3fmt17h3a0dc8e1b54fd333E', symObjAddr: 0xCCBC, symBinAddr: 0x2D814, symSize: 0x54 }
  - { offset: 0xC8C76, size: 0x8, addend: 0x0, symName: '__ZN69_$LT$pyo3..instance..Bound$LT$T$GT$$u20$as$u20$core..fmt..Display$GT$3fmt17h9872ff081704378eE', symObjAddr: 0xCD10, symBinAddr: 0x2D868, symSize: 0x54 }
  - { offset: 0xC8CDA, size: 0x8, addend: 0x0, symName: '__ZN69_$LT$pyo3..instance..Bound$LT$T$GT$$u20$as$u20$core..fmt..Display$GT$3fmt17hfdf4921d7d317193E', symObjAddr: 0xCDB8, symBinAddr: 0x2D8BC, symSize: 0x54 }
  - { offset: 0xC8D44, size: 0x8, addend: 0x0, symName: '__ZN69_$LT$pyo3..instance..Py$LT$T$GT$$u20$as$u20$core..ops..drop..Drop$GT$4drop17h364e7d679a2550f6E', symObjAddr: 0xCE0C, symBinAddr: 0x2D910, symSize: 0x28 }
  - { offset: 0xC8D77, size: 0x8, addend: 0x0, symName: '__ZN69_$LT$pyo3..instance..Py$LT$T$GT$$u20$as$u20$core..ops..drop..Drop$GT$4drop17h9a14eff1288e8eb6E', symObjAddr: 0xCE5C, symBinAddr: 0x2D938, symSize: 0x28 }
  - { offset: 0xC8DAA, size: 0x8, addend: 0x0, symName: '__ZN69_$LT$pyo3..instance..Py$LT$T$GT$$u20$as$u20$core..ops..drop..Drop$GT$4drop17ha6d0189897310e9fE', symObjAddr: 0xCE84, symBinAddr: 0x2D960, symSize: 0x28 }
  - { offset: 0xC8DDD, size: 0x8, addend: 0x0, symName: '__ZN69_$LT$pyo3..instance..Py$LT$T$GT$$u20$as$u20$core..ops..drop..Drop$GT$4drop17he745eefb635f1a7eE', symObjAddr: 0xCEAC, symBinAddr: 0x2D988, symSize: 0x28 }
  - { offset: 0xC8E10, size: 0x8, addend: 0x0, symName: '__ZN69_$LT$pyo3..instance..Py$LT$T$GT$$u20$as$u20$core..ops..drop..Drop$GT$4drop17he7709c584aed5290E', symObjAddr: 0xCED4, symBinAddr: 0x2D9B0, symSize: 0x28 }
  - { offset: 0xC8E43, size: 0x8, addend: 0x0, symName: '__ZN69_$LT$pyo3..instance..Py$LT$T$GT$$u20$as$u20$core..ops..drop..Drop$GT$4drop17heca67c3d6c64cf01E', symObjAddr: 0xCEFC, symBinAddr: 0x2D9D8, symSize: 0x28 }
  - { offset: 0xC8E7C, size: 0x8, addend: 0x0, symName: '__ZN72_$LT$pyo3..instance..Bound$LT$T$GT$$u20$as$u20$core..ops..drop..Drop$GT$4drop17h0afdf1ef1119e29aE', symObjAddr: 0xD0CC, symBinAddr: 0x2DA00, symSize: 0x1A8 }
  - { offset: 0xC8EEB, size: 0x8, addend: 0x0, symName: '__ZN72_$LT$pyo3..instance..Bound$LT$T$GT$$u20$as$u20$core..ops..drop..Drop$GT$4drop17h0cbc5fa911ec9239E', symObjAddr: 0xD274, symBinAddr: 0x2DBA8, symSize: 0x1A8 }
  - { offset: 0xC8F5A, size: 0x8, addend: 0x0, symName: '__ZN72_$LT$pyo3..instance..Bound$LT$T$GT$$u20$as$u20$core..ops..drop..Drop$GT$4drop17h324c673f2f557111E', symObjAddr: 0xD5C4, symBinAddr: 0x2DD50, symSize: 0x1A8 }
  - { offset: 0xC8FC9, size: 0x8, addend: 0x0, symName: '__ZN72_$LT$pyo3..instance..Bound$LT$T$GT$$u20$as$u20$core..ops..drop..Drop$GT$4drop17h33099fc7823943a2E', symObjAddr: 0xD76C, symBinAddr: 0x2DEF8, symSize: 0x1A8 }
  - { offset: 0xC9038, size: 0x8, addend: 0x0, symName: '__ZN72_$LT$pyo3..instance..Bound$LT$T$GT$$u20$as$u20$core..ops..drop..Drop$GT$4drop17h736abb33cf3d57b5E', symObjAddr: 0xDFB4, symBinAddr: 0x2E0A0, symSize: 0x1A8 }
  - { offset: 0xC90A7, size: 0x8, addend: 0x0, symName: '__ZN72_$LT$pyo3..instance..Bound$LT$T$GT$$u20$as$u20$core..ops..drop..Drop$GT$4drop17h7ad918e977f176eeE', symObjAddr: 0xE15C, symBinAddr: 0x2E248, symSize: 0x1A8 }
  - { offset: 0xC9116, size: 0x8, addend: 0x0, symName: '__ZN72_$LT$pyo3..instance..Bound$LT$T$GT$$u20$as$u20$core..ops..drop..Drop$GT$4drop17ha83697bd45be9f72E', symObjAddr: 0xE304, symBinAddr: 0x2E3F0, symSize: 0x1A8 }
  - { offset: 0xC9185, size: 0x8, addend: 0x0, symName: '__ZN72_$LT$pyo3..instance..Bound$LT$T$GT$$u20$as$u20$core..ops..drop..Drop$GT$4drop17hc48abdbaac7fb1baE', symObjAddr: 0xE9A4, symBinAddr: 0x2E598, symSize: 0x1A8 }
  - { offset: 0xC91F4, size: 0x8, addend: 0x0, symName: '__ZN72_$LT$pyo3..instance..Bound$LT$T$GT$$u20$as$u20$core..ops..drop..Drop$GT$4drop17he735226e5137a87dE', symObjAddr: 0xECF4, symBinAddr: 0x2E740, symSize: 0x1A8 }
  - { offset: 0xC9263, size: 0x8, addend: 0x0, symName: '__ZN72_$LT$pyo3..instance..Bound$LT$T$GT$$u20$as$u20$core..ops..drop..Drop$GT$4drop17hf4fe7aa25ad7d03dE', symObjAddr: 0xF044, symBinAddr: 0x2E8E8, symSize: 0x1A8 }
  - { offset: 0xC92D8, size: 0x8, addend: 0x0, symName: '__ZN74_$LT$pyo3..instance..Bound$LT$T$GT$$u20$as$u20$core..ops..deref..Deref$GT$5deref17h6f98a066193b4113E', symObjAddr: 0xF27C, symBinAddr: 0x2EA90, symSize: 0x24 }
  - { offset: 0xC930F, size: 0x8, addend: 0x0, symName: '__ZN74_$LT$pyo3..instance..Bound$LT$T$GT$$u20$as$u20$core..ops..deref..Deref$GT$5deref17h852998af8afd795bE', symObjAddr: 0xF2C4, symBinAddr: 0x2EAB4, symSize: 0x24 }
  - { offset: 0xC9346, size: 0x8, addend: 0x0, symName: '__ZN74_$LT$pyo3..instance..Bound$LT$T$GT$$u20$as$u20$core..ops..deref..Deref$GT$5deref17hac3a30f1a4fc51c1E', symObjAddr: 0xF2E8, symBinAddr: 0x2EAD8, symSize: 0x24 }
  - { offset: 0xC937D, size: 0x8, addend: 0x0, symName: '__ZN74_$LT$pyo3..instance..Bound$LT$T$GT$$u20$as$u20$core..ops..deref..Deref$GT$5deref17hb74af42237cf13c6E', symObjAddr: 0xF30C, symBinAddr: 0x2EAFC, symSize: 0x24 }
  - { offset: 0xC93B4, size: 0x8, addend: 0x0, symName: '__ZN74_$LT$pyo3..instance..Bound$LT$T$GT$$u20$as$u20$core..ops..deref..Deref$GT$5deref17hdf233aa0bb8d340eE', symObjAddr: 0xF330, symBinAddr: 0x2EB20, symSize: 0x24 }
  - { offset: 0xC93F1, size: 0x8, addend: 0x0, symName: '__ZN76_$LT$pyo3..instance..Py$LT$T$GT$$u20$as$u20$pyo3..conversion..ToPyObject$GT$9to_object17h4fd9b4eabe73a629E', symObjAddr: 0xF354, symBinAddr: 0x2EB44, symSize: 0x28 }
  - { offset: 0xC9449, size: 0x8, addend: 0x0, symName: '__ZN77_$LT$pyo3..instance..Borrowed$LT$T$GT$$u20$as$u20$core..ops..deref..Deref$GT$5deref17h5275fc17c5f43a1bE', symObjAddr: 0xF48C, symBinAddr: 0x2EB6C, symSize: 0x74 }
  - { offset: 0xC9480, size: 0x8, addend: 0x0, symName: '__ZN77_$LT$pyo3..instance..Borrowed$LT$T$GT$$u20$as$u20$core..ops..deref..Deref$GT$5deref17h5b4a27f2281daedbE', symObjAddr: 0xF574, symBinAddr: 0x2EBE0, symSize: 0x74 }
  - { offset: 0xC94B7, size: 0x8, addend: 0x0, symName: '__ZN77_$LT$pyo3..instance..Borrowed$LT$T$GT$$u20$as$u20$core..ops..deref..Deref$GT$5deref17h5f245acfc4744335E', symObjAddr: 0xF5E8, symBinAddr: 0x2EC54, symSize: 0x74 }
  - { offset: 0xC94EE, size: 0x8, addend: 0x0, symName: '__ZN77_$LT$pyo3..instance..Borrowed$LT$T$GT$$u20$as$u20$core..ops..deref..Deref$GT$5deref17h6215835cac1df9edE', symObjAddr: 0xF65C, symBinAddr: 0x2ECC8, symSize: 0x74 }
  - { offset: 0xC9525, size: 0x8, addend: 0x0, symName: '__ZN77_$LT$pyo3..instance..Borrowed$LT$T$GT$$u20$as$u20$core..ops..deref..Deref$GT$5deref17hbe25cbf382961d0aE', symObjAddr: 0xF744, symBinAddr: 0x2ED3C, symSize: 0x74 }
  - { offset: 0xC955C, size: 0x8, addend: 0x0, symName: '__ZN77_$LT$pyo3..instance..Borrowed$LT$T$GT$$u20$as$u20$core..ops..deref..Deref$GT$5deref17hcb35e17548d45923E', symObjAddr: 0xF7B8, symBinAddr: 0x2EDB0, symSize: 0x74 }
  - { offset: 0xC9593, size: 0x8, addend: 0x0, symName: '__ZN77_$LT$pyo3..instance..Borrowed$LT$T$GT$$u20$as$u20$core..ops..deref..Deref$GT$5deref17hfdcf503c7a8df9cfE', symObjAddr: 0xF82C, symBinAddr: 0x2EE24, symSize: 0x74 }
  - { offset: 0xC95D0, size: 0x8, addend: 0x0, symName: '__ZN79_$LT$pyo3..instance..Bound$LT$T$GT$$u20$as$u20$pyo3..conversion..ToPyObject$GT$9to_object17h31bae45e404a315cE', symObjAddr: 0xF8C8, symBinAddr: 0x2EE98, symSize: 0x28 }
  - { offset: 0xC9622, size: 0x8, addend: 0x0, symName: '__ZN79_$LT$pyo3..instance..Bound$LT$T$GT$$u20$as$u20$pyo3..conversion..ToPyObject$GT$9to_object17h6ff8107a625924a6E', symObjAddr: 0xF918, symBinAddr: 0x2EEC0, symSize: 0x28 }
  - { offset: 0xC9674, size: 0x8, addend: 0x0, symName: '__ZN79_$LT$pyo3..instance..Bound$LT$T$GT$$u20$as$u20$pyo3..conversion..ToPyObject$GT$9to_object17hbd56cd9f1d16ad7aE', symObjAddr: 0xF968, symBinAddr: 0x2EEE8, symSize: 0x28 }
  - { offset: 0xC96CC, size: 0x8, addend: 0x0, symName: '__ZN80_$LT$pyo3..instance..Bound$LT$T$GT$$u20$as$u20$pyo3..conversion..AsPyPointer$GT$6as_ptr17h4d8aea505481cb63E', symObjAddr: 0xF9B8, symBinAddr: 0x2EF10, symSize: 0x2C }
  - { offset: 0xC9714, size: 0x8, addend: 0x0, symName: '__ZN196_$LT$$RF$pyo3..instance..Bound$LT$pyo3..types..module..PyModule$GT$$u20$as$u20$pyo3..impl_..pyfunction..WrapPyFunctionArg$LT$pyo3..instance..Bound$LT$pyo3..types..function..PyCFunction$GT$$GT$$GT$15wrap_pyfunction17h7474265fc30126f3E', symObjAddr: 0x5FA4, symBinAddr: 0x2ACE0, symSize: 0x44 }
  - { offset: 0xC992D, size: 0x8, addend: 0x0, symName: '__ZN58_$LT$T$u20$as$u20$pyo3..err..err_state..PyErrArguments$GT$9arguments17h5e6ac468debb83ceE', symObjAddr: 0xC890, symBinAddr: 0x2D5F0, symSize: 0x24 }
  - { offset: 0xC9A09, size: 0x8, addend: 0x0, symName: '__ZN54_$LT$$RF$T$u20$as$u20$pyo3..conversion..ToPyObject$GT$9to_object17h90d89e58ec20dd94E', symObjAddr: 0xC840, symBinAddr: 0x2D5A0, symSize: 0x28 }
  - { offset: 0xC9A5B, size: 0x8, addend: 0x0, symName: '__ZN54_$LT$$RF$T$u20$as$u20$pyo3..conversion..ToPyObject$GT$9to_object17hed1c8445d1a5b7e1E', symObjAddr: 0xC868, symBinAddr: 0x2D5C8, symSize: 0x28 }
  - { offset: 0xCA023, size: 0x8, addend: 0x0, symName: '__ZN4pyo35types5bytes77_$LT$impl$u20$pyo3..instance..Borrowed$LT$pyo3..types..bytes..PyBytes$GT$$GT$8as_bytes17hd7c7d9404a826750E', symObjAddr: 0x6458, symBinAddr: 0x2AF24, symSize: 0x9C }
  - { offset: 0xCA07C, size: 0x8, addend: 0x0, symName: '__ZN4pyo35types5tuple77_$LT$impl$u20$pyo3..instance..Borrowed$LT$pyo3..types..tuple..PyTuple$GT$$GT$13iter_borrowed17hbbd2fc0ca169e1f5E', symObjAddr: 0x6E34, symBinAddr: 0x2AFC0, symSize: 0x24 }
  - { offset: 0xCA0F4, size: 0x8, addend: 0x0, symName: '__ZN4pyo35types5tuple77_$LT$impl$u20$pyo3..instance..Borrowed$LT$pyo3..types..tuple..PyTuple$GT$$GT$27get_borrowed_item_unchecked17hda2fbf5608bb8378E', symObjAddr: 0x6EBC, symBinAddr: 0x2AFE4, symSize: 0x64 }
  - { offset: 0xCA151, size: 0x8, addend: 0x0, symName: '__ZN4pyo35types6string79_$LT$impl$u20$pyo3..instance..Borrowed$LT$pyo3..types..string..PyString$GT$$GT$15to_string_lossy17h3036129df7b879feE', symObjAddr: 0x70E0, symBinAddr: 0x2B094, symSize: 0x178 }
  - { offset: 0xCA21B, size: 0x8, addend: 0x0, symName: '__ZN4pyo35types6string79_$LT$impl$u20$pyo3..instance..Borrowed$LT$pyo3..types..string..PyString$GT$$GT$6to_cow17h48876c1b7d88fb53E', symObjAddr: 0x73CC, symBinAddr: 0x2B20C, symSize: 0x3C }
  - { offset: 0xCA23E, size: 0x8, addend: 0x0, symName: '__ZN4pyo35types6string79_$LT$impl$u20$pyo3..instance..Borrowed$LT$pyo3..types..string..PyString$GT$$GT$6to_str17hb98ed0adf9a48b0fE', symObjAddr: 0x7408, symBinAddr: 0x2B248, symSize: 0xCC }
  - { offset: 0xCA2AA, size: 0x8, addend: 0x0, symName: '__ZN4pyo35types8iterator83_$LT$impl$u20$pyo3..instance..Borrowed$LT$pyo3..types..iterator..PyIterator$GT$$GT$4next17h03f83c9c6afaa5c0E', symObjAddr: 0x8328, symBinAddr: 0x2B314, symSize: 0xA4 }
  - { offset: 0xCA34B, size: 0x8, addend: 0x0, symName: '__ZN4pyo38instance11Py$LT$T$GT$10into_bound17hddd19ed705f7a3bdE', symObjAddr: 0x8530, symBinAddr: 0x2B3B8, symSize: 0x1C }
  - { offset: 0xCA392, size: 0x8, addend: 0x0, symName: '__ZN4pyo38instance11Py$LT$T$GT$10into_bound17heae59654e95cc7d2E', symObjAddr: 0x854C, symBinAddr: 0x2B3D4, symSize: 0x1C }
  - { offset: 0xCA3F9, size: 0x8, addend: 0x0, symName: '__ZN4pyo38instance11Py$LT$T$GT$13from_non_null17h0db5852c04173afaE', symObjAddr: 0x866C, symBinAddr: 0x2B3F0, symSize: 0x14 }
  - { offset: 0xCA425, size: 0x8, addend: 0x0, symName: '__ZN4pyo38instance11Py$LT$T$GT$13from_non_null17h137af1d325b6b100E', symObjAddr: 0x86A8, symBinAddr: 0x2B404, symSize: 0x14 }
  - { offset: 0xCA451, size: 0x8, addend: 0x0, symName: '__ZN4pyo38instance11Py$LT$T$GT$13from_non_null17h573c39e87cb990ecE', symObjAddr: 0x8720, symBinAddr: 0x2B418, symSize: 0x14 }
  - { offset: 0xCA47D, size: 0x8, addend: 0x0, symName: '__ZN4pyo38instance11Py$LT$T$GT$13from_non_null17h61490dfaa0f3c63bE', symObjAddr: 0x8734, symBinAddr: 0x2B42C, symSize: 0x14 }
  - { offset: 0xCA4A9, size: 0x8, addend: 0x0, symName: '__ZN4pyo38instance11Py$LT$T$GT$13from_non_null17h75e065a4578ce646E', symObjAddr: 0x8748, symBinAddr: 0x2B440, symSize: 0x14 }
  - { offset: 0xCA4D5, size: 0x8, addend: 0x0, symName: '__ZN4pyo38instance11Py$LT$T$GT$13from_non_null17he0f067397e8e776bE', symObjAddr: 0x87E8, symBinAddr: 0x2B454, symSize: 0x14 }
  - { offset: 0xCA501, size: 0x8, addend: 0x0, symName: '__ZN4pyo38instance11Py$LT$T$GT$13from_non_null17hef8a06606449acdaE', symObjAddr: 0x87FC, symBinAddr: 0x2B468, symSize: 0x14 }
  - { offset: 0xCA52D, size: 0x8, addend: 0x0, symName: '__ZN4pyo38instance11Py$LT$T$GT$13from_non_null17hf76ceffc1040131aE', symObjAddr: 0x8810, symBinAddr: 0x2B47C, symSize: 0x14 }
  - { offset: 0xCA584, size: 0x8, addend: 0x0, symName: '__ZN4pyo38instance11Py$LT$T$GT$14from_owned_ptr17h30923efc9e9dac76E', symObjAddr: 0x8874, symBinAddr: 0x2B490, symSize: 0x50 }
  - { offset: 0xCA5CB, size: 0x8, addend: 0x0, symName: '__ZN4pyo38instance11Py$LT$T$GT$14from_owned_ptr17he1c59bd128a37c0bE', symObjAddr: 0x88C4, symBinAddr: 0x2B4E0, symSize: 0x50 }
  - { offset: 0xCA612, size: 0x8, addend: 0x0, symName: '__ZN4pyo38instance11Py$LT$T$GT$21from_owned_ptr_or_err17h306b2b55a25a1898E', symObjAddr: 0x8914, symBinAddr: 0x2B530, symSize: 0x88 }
  - { offset: 0xCA677, size: 0x8, addend: 0x0, symName: '__ZN4pyo38instance11Py$LT$T$GT$21from_owned_ptr_or_err17hcb51cdec9c036c70E', symObjAddr: 0x899C, symBinAddr: 0x2B5B8, symSize: 0x88 }
  - { offset: 0xCA6DC, size: 0x8, addend: 0x0, symName: '__ZN4pyo38instance11Py$LT$T$GT$21from_owned_ptr_or_err17he134588cc860b383E', symObjAddr: 0x8A24, symBinAddr: 0x2B640, symSize: 0x88 }
  - { offset: 0xCA741, size: 0x8, addend: 0x0, symName: '__ZN4pyo38instance11Py$LT$T$GT$21from_owned_ptr_or_opt17h4a2fbae7c402a2f4E', symObjAddr: 0x8AAC, symBinAddr: 0x2B6C8, symSize: 0x28 }
  - { offset: 0xCA788, size: 0x8, addend: 0x0, symName: '__ZN4pyo38instance11Py$LT$T$GT$21from_owned_ptr_or_opt17hbe58abccbca90dc8E', symObjAddr: 0x8AD4, symBinAddr: 0x2B6F0, symSize: 0x28 }
  - { offset: 0xCA7E9, size: 0x8, addend: 0x0, symName: '__ZN4pyo38instance11Py$LT$T$GT$4bind17h43c3d129471eabc9E', symObjAddr: 0x8B24, symBinAddr: 0x2B740, symSize: 0x74 }
  - { offset: 0xCA830, size: 0x8, addend: 0x0, symName: '__ZN4pyo38instance11Py$LT$T$GT$4bind17h4c03869db8d678baE', symObjAddr: 0x8B98, symBinAddr: 0x2B7B4, symSize: 0x74 }
  - { offset: 0xCA89E, size: 0x8, addend: 0x0, symName: '__ZN4pyo38instance11Py$LT$T$GT$4bind17h6c8dae44d4a40b75E', symObjAddr: 0x8C80, symBinAddr: 0x2B828, symSize: 0x74 }
  - { offset: 0xCA8FF, size: 0x8, addend: 0x0, symName: '__ZN4pyo38instance11Py$LT$T$GT$4bind17he94c69083038af2bE', symObjAddr: 0x8CF4, symBinAddr: 0x2B89C, symSize: 0x74 }
  - { offset: 0xCA946, size: 0x8, addend: 0x0, symName: '__ZN4pyo38instance11Py$LT$T$GT$6as_ptr17h13902a3ad49503ceE', symObjAddr: 0x8E10, symBinAddr: 0x2B910, symSize: 0x1C }
  - { offset: 0xCA972, size: 0x8, addend: 0x0, symName: '__ZN4pyo38instance11Py$LT$T$GT$6as_ptr17h1607e8451714030fE', symObjAddr: 0x8E2C, symBinAddr: 0x2B92C, symSize: 0x1C }
  - { offset: 0xCA99E, size: 0x8, addend: 0x0, symName: '__ZN4pyo38instance11Py$LT$T$GT$6as_ptr17h1b4ebc6d3c729be2E', symObjAddr: 0x8E48, symBinAddr: 0x2B948, symSize: 0x1C }
  - { offset: 0xCA9D7, size: 0x8, addend: 0x0, symName: '__ZN4pyo38instance11Py$LT$T$GT$6as_ptr17h2026fd2f46798690E', symObjAddr: 0x8E64, symBinAddr: 0x2B964, symSize: 0x1C }
  - { offset: 0xCAA10, size: 0x8, addend: 0x0, symName: '__ZN4pyo38instance11Py$LT$T$GT$6as_ptr17h2c5aec493c08892dE', symObjAddr: 0x8EB8, symBinAddr: 0x2B980, symSize: 0x1C }
  - { offset: 0xCAA49, size: 0x8, addend: 0x0, symName: '__ZN4pyo38instance11Py$LT$T$GT$6as_ptr17h5e400d31c3802438E', symObjAddr: 0x8F0C, symBinAddr: 0x2B99C, symSize: 0x1C }
  - { offset: 0xCAA75, size: 0x8, addend: 0x0, symName: '__ZN4pyo38instance11Py$LT$T$GT$6as_ptr17h664444ce36395752E', symObjAddr: 0x8F28, symBinAddr: 0x2B9B8, symSize: 0x1C }
  - { offset: 0xCAAAE, size: 0x8, addend: 0x0, symName: '__ZN4pyo38instance11Py$LT$T$GT$6as_ptr17h7a04765c3299d1f5E', symObjAddr: 0x8F7C, symBinAddr: 0x2B9D4, symSize: 0x1C }
  - { offset: 0xCAADA, size: 0x8, addend: 0x0, symName: '__ZN4pyo38instance11Py$LT$T$GT$6as_ptr17h8070ba44efc10d9dE', symObjAddr: 0x8F98, symBinAddr: 0x2B9F0, symSize: 0x1C }
  - { offset: 0xCAB13, size: 0x8, addend: 0x0, symName: '__ZN4pyo38instance11Py$LT$T$GT$6as_ptr17h883a7df42e71eeffE', symObjAddr: 0x8FB4, symBinAddr: 0x2BA0C, symSize: 0x1C }
  - { offset: 0xCAB4C, size: 0x8, addend: 0x0, symName: '__ZN4pyo38instance11Py$LT$T$GT$6as_ptr17h90cf58044d00c217E', symObjAddr: 0x8FEC, symBinAddr: 0x2BA28, symSize: 0x1C }
  - { offset: 0xCAB85, size: 0x8, addend: 0x0, symName: '__ZN4pyo38instance11Py$LT$T$GT$6as_ptr17hb2772e5832d06aafE', symObjAddr: 0x9008, symBinAddr: 0x2BA44, symSize: 0x1C }
  - { offset: 0xCABBE, size: 0x8, addend: 0x0, symName: '__ZN4pyo38instance11Py$LT$T$GT$6as_ptr17hc0d7fa964a03dc97E', symObjAddr: 0x9078, symBinAddr: 0x2BA60, symSize: 0x1C }
  - { offset: 0xCABEA, size: 0x8, addend: 0x0, symName: '__ZN4pyo38instance11Py$LT$T$GT$6as_ptr17hd62518c333dfc66fE', symObjAddr: 0x9094, symBinAddr: 0x2BA7C, symSize: 0x1C }
  - { offset: 0xCAC16, size: 0x8, addend: 0x0, symName: '__ZN4pyo38instance11Py$LT$T$GT$6as_ptr17hdc5362fd9a8c923cE', symObjAddr: 0x90B0, symBinAddr: 0x2BA98, symSize: 0x1C }
  - { offset: 0xCAC42, size: 0x8, addend: 0x0, symName: '__ZN4pyo38instance11Py$LT$T$GT$6as_ptr17hfa3c8e038bcbe8e7E', symObjAddr: 0x90CC, symBinAddr: 0x2BAB4, symSize: 0x1C }
  - { offset: 0xCAC6E, size: 0x8, addend: 0x0, symName: '__ZN4pyo38instance11Py$LT$T$GT$8into_any17h03e8c848d9df271cE', symObjAddr: 0x90E8, symBinAddr: 0x2BAD0, symSize: 0x3C }
  - { offset: 0xCAC9A, size: 0x8, addend: 0x0, symName: '__ZN4pyo38instance11Py$LT$T$GT$8into_any17h74ee34a8ccf1ea7bE', symObjAddr: 0x9214, symBinAddr: 0x2BB0C, symSize: 0x3C }
  - { offset: 0xCACC6, size: 0x8, addend: 0x0, symName: '__ZN4pyo38instance11Py$LT$T$GT$8into_any17h77c50b3df5c26967E', symObjAddr: 0x9250, symBinAddr: 0x2BB48, symSize: 0x3C }
  - { offset: 0xCACF2, size: 0x8, addend: 0x0, symName: '__ZN4pyo38instance11Py$LT$T$GT$8into_any17h9ce44080be4e7f98E', symObjAddr: 0x9304, symBinAddr: 0x2BB84, symSize: 0x3C }
  - { offset: 0xCAD1E, size: 0x8, addend: 0x0, symName: '__ZN4pyo38instance11Py$LT$T$GT$8into_any17hdb0df17de166e213E', symObjAddr: 0x946C, symBinAddr: 0x2BBC0, symSize: 0x3C }
  - { offset: 0xCAD4A, size: 0x8, addend: 0x0, symName: '__ZN4pyo38instance11Py$LT$T$GT$8into_any17hdb7a0e5e492af01aE', symObjAddr: 0x94A8, symBinAddr: 0x2BBFC, symSize: 0x3C }
  - { offset: 0xCAD76, size: 0x8, addend: 0x0, symName: '__ZN4pyo38instance11Py$LT$T$GT$8into_any17hecce5899f641513dE', symObjAddr: 0x94E4, symBinAddr: 0x2BC38, symSize: 0x3C }
  - { offset: 0xCADA2, size: 0x8, addend: 0x0, symName: '__ZN4pyo38instance11Py$LT$T$GT$8into_ptr17h4d83f177fd838385E', symObjAddr: 0x9520, symBinAddr: 0x2BC74, symSize: 0x30 }
  - { offset: 0xCADCE, size: 0x8, addend: 0x0, symName: '__ZN4pyo38instance11Py$LT$T$GT$8into_ptr17h97a2c6df6427622bE', symObjAddr: 0x9550, symBinAddr: 0x2BCA4, symSize: 0x30 }
  - { offset: 0xCADFA, size: 0x8, addend: 0x0, symName: '__ZN4pyo38instance11Py$LT$T$GT$9clone_ref17h0c5435448c12e6c8E', symObjAddr: 0x9680, symBinAddr: 0x2BCD4, symSize: 0x100 }
  - { offset: 0xCAEA9, size: 0x8, addend: 0x0, symName: '__ZN4pyo38instance11Py$LT$T$GT$9clone_ref17h3190d55212a969a8E', symObjAddr: 0x9880, symBinAddr: 0x2BDD4, symSize: 0x100 }
  - { offset: 0xCAF58, size: 0x8, addend: 0x0, symName: '__ZN4pyo38instance11Py$LT$T$GT$9clone_ref17h328e0be0f61d784fE', symObjAddr: 0x9980, symBinAddr: 0x2BED4, symSize: 0x100 }
  - { offset: 0xCB007, size: 0x8, addend: 0x0, symName: '__ZN4pyo38instance11Py$LT$T$GT$9clone_ref17h53b3f0370d233b4aE', symObjAddr: 0x9C80, symBinAddr: 0x2BFD4, symSize: 0x100 }
  - { offset: 0xCB0B6, size: 0x8, addend: 0x0, symName: '__ZN4pyo38instance11Py$LT$T$GT$9clone_ref17h8781afcd2f2a13d6E', symObjAddr: 0x9D80, symBinAddr: 0x2C0D4, symSize: 0x100 }
  - { offset: 0xCB165, size: 0x8, addend: 0x0, symName: '__ZN4pyo38instance11Py$LT$T$GT$9clone_ref17hb8050b654ac10230E', symObjAddr: 0xA180, symBinAddr: 0x2C1D4, symSize: 0x100 }
  - { offset: 0xCB214, size: 0x8, addend: 0x0, symName: '__ZN4pyo38instance11Py$LT$T$GT$9clone_ref17hea35dbc072d8ca1dE', symObjAddr: 0xA380, symBinAddr: 0x2C2D4, symSize: 0x100 }
  - { offset: 0xCB2D0, size: 0x8, addend: 0x0, symName: '__ZN4pyo38instance14Bound$LT$T$GT$11as_borrowed17h20341addbab43190E', symObjAddr: 0xA860, symBinAddr: 0x2C6B4, symSize: 0x48 }
  - { offset: 0xCB2FC, size: 0x8, addend: 0x0, symName: '__ZN4pyo38instance14Bound$LT$T$GT$11as_borrowed17h2b7602ad794ba9c7E', symObjAddr: 0xA8A8, symBinAddr: 0x2C6FC, symSize: 0x48 }
  - { offset: 0xCB342, size: 0x8, addend: 0x0, symName: '__ZN4pyo38instance14Bound$LT$T$GT$11as_borrowed17hb990c988f09c4dabE', symObjAddr: 0xA9C8, symBinAddr: 0x2C744, symSize: 0x48 }
  - { offset: 0xCB36E, size: 0x8, addend: 0x0, symName: '__ZN4pyo38instance14Bound$LT$T$GT$11as_borrowed17hbcfc8fd80d672fa2E', symObjAddr: 0xAA10, symBinAddr: 0x2C78C, symSize: 0x48 }
  - { offset: 0xCB3A7, size: 0x8, addend: 0x0, symName: '__ZN4pyo38instance14Bound$LT$T$GT$2py17h27a77fe99a269a96E', symObjAddr: 0xAA98, symBinAddr: 0x2C7D4, symSize: 0x10 }
  - { offset: 0xCB3D3, size: 0x8, addend: 0x0, symName: '__ZN4pyo38instance14Bound$LT$T$GT$2py17h43a3b3c95cd56972E', symObjAddr: 0xAAC8, symBinAddr: 0x2C7E4, symSize: 0x10 }
  - { offset: 0xCB40C, size: 0x8, addend: 0x0, symName: '__ZN4pyo38instance14Bound$LT$T$GT$2py17h4c67455c5ba7a660E', symObjAddr: 0xAAD8, symBinAddr: 0x2C7F4, symSize: 0x10 }
  - { offset: 0xCB452, size: 0x8, addend: 0x0, symName: '__ZN4pyo38instance14Bound$LT$T$GT$2py17h6bcdc225eb179eefE', symObjAddr: 0xAAF8, symBinAddr: 0x2C804, symSize: 0x10 }
  - { offset: 0xCB47E, size: 0x8, addend: 0x0, symName: '__ZN4pyo38instance14Bound$LT$T$GT$2py17h7db41698fbd20d4eE', symObjAddr: 0xAB28, symBinAddr: 0x2C814, symSize: 0x10 }
  - { offset: 0xCB4AA, size: 0x8, addend: 0x0, symName: '__ZN4pyo38instance14Bound$LT$T$GT$2py17hb765f66674ccd391E', symObjAddr: 0xAB58, symBinAddr: 0x2C824, symSize: 0x10 }
  - { offset: 0xCB4E3, size: 0x8, addend: 0x0, symName: '__ZN4pyo38instance14Bound$LT$T$GT$2py17hbda51ca1a5a68deaE', symObjAddr: 0xAB78, symBinAddr: 0x2C834, symSize: 0x10 }
  - { offset: 0xCB50F, size: 0x8, addend: 0x0, symName: '__ZN4pyo38instance14Bound$LT$T$GT$2py17hc7c1e60bf137a687E', symObjAddr: 0xABA8, symBinAddr: 0x2C844, symSize: 0x10 }
  - { offset: 0xCB53B, size: 0x8, addend: 0x0, symName: '__ZN4pyo38instance14Bound$LT$T$GT$2py17hf4c45d3a638b7b84E', symObjAddr: 0xABC8, symBinAddr: 0x2C854, symSize: 0x10 }
  - { offset: 0xCB567, size: 0x8, addend: 0x0, symName: '__ZN4pyo38instance14Bound$LT$T$GT$6as_any17h1faee22fdf0779b6E', symObjAddr: 0xABD8, symBinAddr: 0x2C864, symSize: 0x74 }
  - { offset: 0xCB593, size: 0x8, addend: 0x0, symName: '__ZN4pyo38instance14Bound$LT$T$GT$6as_any17h358560622b2f572eE', symObjAddr: 0xACC0, symBinAddr: 0x2C8D8, symSize: 0x74 }
  - { offset: 0xCB5BF, size: 0x8, addend: 0x0, symName: '__ZN4pyo38instance14Bound$LT$T$GT$6as_any17h39ec547ce13a8482E', symObjAddr: 0xAD34, symBinAddr: 0x2C94C, symSize: 0x74 }
  - { offset: 0xCB5EB, size: 0x8, addend: 0x0, symName: '__ZN4pyo38instance14Bound$LT$T$GT$6as_any17h65edc6fcbfcdb739E', symObjAddr: 0xAE90, symBinAddr: 0x2C9C0, symSize: 0x74 }
  - { offset: 0xCB617, size: 0x8, addend: 0x0, symName: '__ZN4pyo38instance14Bound$LT$T$GT$6as_any17ha50af4610ecf44deE', symObjAddr: 0xAFEC, symBinAddr: 0x2CA34, symSize: 0x74 }
  - { offset: 0xCB643, size: 0x8, addend: 0x0, symName: '__ZN4pyo38instance14Bound$LT$T$GT$6as_any17hafab4423af116652E', symObjAddr: 0xB060, symBinAddr: 0x2CAA8, symSize: 0x74 }
  - { offset: 0xCB67C, size: 0x8, addend: 0x0, symName: '__ZN4pyo38instance14Bound$LT$T$GT$6as_any17hc47b3964620d46d1E', symObjAddr: 0xB0D4, symBinAddr: 0x2CB1C, symSize: 0x74 }
  - { offset: 0xCB6A8, size: 0x8, addend: 0x0, symName: '__ZN4pyo38instance14Bound$LT$T$GT$6as_any17he480971c03f46fcbE', symObjAddr: 0xB1BC, symBinAddr: 0x2CB90, symSize: 0x74 }
  - { offset: 0xCB6D4, size: 0x8, addend: 0x0, symName: '__ZN4pyo38instance14Bound$LT$T$GT$6as_ptr17h0c22179580af04eaE', symObjAddr: 0xB230, symBinAddr: 0x2CC04, symSize: 0x2C }
  - { offset: 0xCB700, size: 0x8, addend: 0x0, symName: '__ZN4pyo38instance14Bound$LT$T$GT$6as_ptr17h15861602721973bdE', symObjAddr: 0xB25C, symBinAddr: 0x2CC30, symSize: 0x2C }
  - { offset: 0xCB72C, size: 0x8, addend: 0x0, symName: '__ZN4pyo38instance14Bound$LT$T$GT$6as_ptr17h38d22916df94a17aE', symObjAddr: 0xB338, symBinAddr: 0x2CC5C, symSize: 0x2C }
  - { offset: 0xCB758, size: 0x8, addend: 0x0, symName: '__ZN4pyo38instance14Bound$LT$T$GT$6as_ptr17h45a7f4389058eb1dE', symObjAddr: 0xB364, symBinAddr: 0x2CC88, symSize: 0x2C }
  - { offset: 0xCB784, size: 0x8, addend: 0x0, symName: '__ZN4pyo38instance14Bound$LT$T$GT$6as_ptr17h597b828a70d4fe75E', symObjAddr: 0xB3E8, symBinAddr: 0x2CCB4, symSize: 0x2C }
  - { offset: 0xCB7B0, size: 0x8, addend: 0x0, symName: '__ZN4pyo38instance14Bound$LT$T$GT$6as_ptr17h5ea866d4f41a4a3bE', symObjAddr: 0xB414, symBinAddr: 0x2CCE0, symSize: 0x2C }
  - { offset: 0xCB7DC, size: 0x8, addend: 0x0, symName: '__ZN4pyo38instance14Bound$LT$T$GT$6as_ptr17h7339353b86b1d6f0E', symObjAddr: 0xB440, symBinAddr: 0x2CD0C, symSize: 0x2C }
  - { offset: 0xCB808, size: 0x8, addend: 0x0, symName: '__ZN4pyo38instance14Bound$LT$T$GT$6as_ptr17h86f1c6677e49e871E', symObjAddr: 0xB498, symBinAddr: 0x2CD38, symSize: 0x2C }
  - { offset: 0xCB834, size: 0x8, addend: 0x0, symName: '__ZN4pyo38instance14Bound$LT$T$GT$6as_ptr17h8ed63070b111c7aeE', symObjAddr: 0xB4F0, symBinAddr: 0x2CD64, symSize: 0x2C }
  - { offset: 0xCB860, size: 0x8, addend: 0x0, symName: '__ZN4pyo38instance14Bound$LT$T$GT$6as_ptr17h9e2749820c5a9642E', symObjAddr: 0xB548, symBinAddr: 0x2CD90, symSize: 0x2C }
  - { offset: 0xCB899, size: 0x8, addend: 0x0, symName: '__ZN4pyo38instance14Bound$LT$T$GT$6as_ptr17hae20614d5b35fe62E', symObjAddr: 0xB5CC, symBinAddr: 0x2CDBC, symSize: 0x2C }
  - { offset: 0xCB8C5, size: 0x8, addend: 0x0, symName: '__ZN4pyo38instance14Bound$LT$T$GT$6as_ptr17hb2c6c210402f5fceE', symObjAddr: 0xB5F8, symBinAddr: 0x2CDE8, symSize: 0x2C }
  - { offset: 0xCB8F1, size: 0x8, addend: 0x0, symName: '__ZN4pyo38instance14Bound$LT$T$GT$6as_ptr17hb33ca088cb36718bE', symObjAddr: 0xB624, symBinAddr: 0x2CE14, symSize: 0x2C }
  - { offset: 0xCB91D, size: 0x8, addend: 0x0, symName: '__ZN4pyo38instance14Bound$LT$T$GT$6as_ptr17hf22568e72fed0d02E', symObjAddr: 0xB700, symBinAddr: 0x2CE40, symSize: 0x2C }
  - { offset: 0xCB949, size: 0x8, addend: 0x0, symName: '__ZN4pyo38instance14Bound$LT$T$GT$6as_ptr17hfd9a59563abfea2bE', symObjAddr: 0xB758, symBinAddr: 0x2CE6C, symSize: 0x2C }
  - { offset: 0xCB975, size: 0x8, addend: 0x0, symName: '__ZN4pyo38instance14Bound$LT$T$GT$6unbind17h126b57032dfdbdcbE', symObjAddr: 0xB7CC, symBinAddr: 0x2CE98, symSize: 0x48 }
  - { offset: 0xCB9BF, size: 0x8, addend: 0x0, symName: '__ZN4pyo38instance14Bound$LT$T$GT$6unbind17h1929fa6f0b3c828aE', symObjAddr: 0xB814, symBinAddr: 0x2CEE0, symSize: 0x48 }
  - { offset: 0xCBA09, size: 0x8, addend: 0x0, symName: '__ZN4pyo38instance14Bound$LT$T$GT$6unbind17h57271dc6343b2a48E', symObjAddr: 0xB934, symBinAddr: 0x2CF28, symSize: 0x48 }
  - { offset: 0xCBA53, size: 0x8, addend: 0x0, symName: '__ZN4pyo38instance14Bound$LT$T$GT$6unbind17h743b48961be97746E', symObjAddr: 0xBA0C, symBinAddr: 0x2CF70, symSize: 0x48 }
  - { offset: 0xCBA9D, size: 0x8, addend: 0x0, symName: '__ZN4pyo38instance14Bound$LT$T$GT$6unbind17h98e36ffa62c80ad8E', symObjAddr: 0xBA9C, symBinAddr: 0x2CFB8, symSize: 0x48 }
  - { offset: 0xCBAE7, size: 0x8, addend: 0x0, symName: '__ZN4pyo38instance14Bound$LT$T$GT$6unbind17hdefa9a05b3528e66E', symObjAddr: 0xBC04, symBinAddr: 0x2D000, symSize: 0x48 }
  - { offset: 0xCBB31, size: 0x8, addend: 0x0, symName: '__ZN4pyo38instance14Bound$LT$T$GT$6unbind17hef3c16f2a7fd8538E', symObjAddr: 0xBC4C, symBinAddr: 0x2D048, symSize: 0x48 }
  - { offset: 0xCBB7B, size: 0x8, addend: 0x0, symName: '__ZN4pyo38instance14Bound$LT$T$GT$8into_any17h7f6eb7643604bd2aE', symObjAddr: 0xBDB4, symBinAddr: 0x2D090, symSize: 0x30 }
  - { offset: 0xCBBA7, size: 0x8, addend: 0x0, symName: '__ZN4pyo38instance14Bound$LT$T$GT$8into_any17ha54ac93fdffbc903E', symObjAddr: 0xBE44, symBinAddr: 0x2D0C0, symSize: 0x30 }
  - { offset: 0xCBBD3, size: 0x8, addend: 0x0, symName: '__ZN4pyo38instance14Bound$LT$T$GT$8into_any17ha935b04f82c667a3E', symObjAddr: 0xBE74, symBinAddr: 0x2D0F0, symSize: 0x30 }
  - { offset: 0xCBBFF, size: 0x8, addend: 0x0, symName: '__ZN4pyo38instance14Bound$LT$T$GT$8into_any17hd7c81caec501cd58E', symObjAddr: 0xBED4, symBinAddr: 0x2D120, symSize: 0x30 }
  - { offset: 0xCBC2B, size: 0x8, addend: 0x0, symName: '__ZN4pyo38instance14Bound$LT$T$GT$8into_any17hdf8030d73cbccd80E', symObjAddr: 0xBF04, symBinAddr: 0x2D150, symSize: 0x30 }
  - { offset: 0xCBC57, size: 0x8, addend: 0x0, symName: '__ZN4pyo38instance14Bound$LT$T$GT$8into_any17hf1444dc225bffb79E', symObjAddr: 0xBF34, symBinAddr: 0x2D180, symSize: 0x30 }
  - { offset: 0xCBC83, size: 0x8, addend: 0x0, symName: '__ZN4pyo38instance17Borrowed$LT$T$GT$8to_owned17h448b619a1a6ce094E', symObjAddr: 0xC004, symBinAddr: 0x2D1B0, symSize: 0x2C }
  - { offset: 0xCBCAF, size: 0x8, addend: 0x0, symName: '__ZN4pyo38instance17Borrowed$LT$T$GT$8to_owned17h6f25663c236e1286E', symObjAddr: 0xC05C, symBinAddr: 0x2D1DC, symSize: 0x2C }
  - { offset: 0xCBCDB, size: 0x8, addend: 0x0, symName: '__ZN4pyo38instance17Borrowed$LT$T$GT$8to_owned17h9f06602c9eb51f1dE', symObjAddr: 0xC088, symBinAddr: 0x2D208, symSize: 0x2C }
  - { offset: 0xCBD14, size: 0x8, addend: 0x0, symName: '__ZN4pyo38instance36Bound$LT$pyo3..types..any..PyAny$GT$12ref_from_ptr17h977fc60d692b7609E', symObjAddr: 0xC0B4, symBinAddr: 0x2D234, symSize: 0x74 }
  - { offset: 0xCBD4F, size: 0x8, addend: 0x0, symName: '__ZN4pyo38instance36Bound$LT$pyo3..types..any..PyAny$GT$14from_owned_ptr17hdf68656ee05995d4E', symObjAddr: 0xC128, symBinAddr: 0x2D2A8, symSize: 0x2C }
  - { offset: 0xCBD97, size: 0x8, addend: 0x0, symName: '__ZN4pyo38instance36Bound$LT$pyo3..types..any..PyAny$GT$21from_owned_ptr_or_err17h0202302602a56480E', symObjAddr: 0xC1C8, symBinAddr: 0x2D2D4, symSize: 0x40 }
  - { offset: 0xCBDD2, size: 0x8, addend: 0x0, symName: '__ZN4pyo38instance36Bound$LT$pyo3..types..any..PyAny$GT$21from_owned_ptr_or_opt17hce3a8c2073b6a9c5E', symObjAddr: 0xC230, symBinAddr: 0x2D33C, symSize: 0x2C }
  - { offset: 0xCBE0D, size: 0x8, addend: 0x0, symName: '__ZN4pyo38instance39Borrowed$LT$pyo3..types..any..PyAny$GT$18downcast_unchecked17h3e5075c563dd1840E', symObjAddr: 0xC328, symBinAddr: 0x2D390, symSize: 0x14 }
  - { offset: 0xCBE39, size: 0x8, addend: 0x0, symName: '__ZN4pyo38instance39Borrowed$LT$pyo3..types..any..PyAny$GT$18downcast_unchecked17h4ea7e1dae24e1748E', symObjAddr: 0xC33C, symBinAddr: 0x2D3A4, symSize: 0x14 }
  - { offset: 0xCBE65, size: 0x8, addend: 0x0, symName: '__ZN4pyo38instance39Borrowed$LT$pyo3..types..any..PyAny$GT$18downcast_unchecked17h9e917251e461fe26E', symObjAddr: 0xC364, symBinAddr: 0x2D3B8, symSize: 0x14 }
  - { offset: 0xCBE91, size: 0x8, addend: 0x0, symName: '__ZN4pyo38instance39Borrowed$LT$pyo3..types..any..PyAny$GT$18from_ptr_unchecked17h51efa4dc594f8d99E', symObjAddr: 0xC38C, symBinAddr: 0x2D3CC, symSize: 0x2C }
  - { offset: 0xCBECF, size: 0x8, addend: 0x0, symName: '__ZN4pyo38instance39Borrowed$LT$pyo3..types..any..PyAny$GT$8from_ptr17hd292e8b9141d6b5aE', symObjAddr: 0xC550, symBinAddr: 0x2D3F8, symSize: 0x34 }
  - { offset: 0xCBF0D, size: 0x8, addend: 0x0, symName: '__ZN4pyo38internal8get_slot78_$LT$impl$u20$pyo3..instance..Bound$LT$pyo3..types..typeobject..PyType$GT$$GT$8get_slot17h0c2146bd15a025a8E', symObjAddr: 0xC5A0, symBinAddr: 0x2D448, symSize: 0x28 }
  - { offset: 0xCBF48, size: 0x8, addend: 0x0, symName: '__ZN4pyo38internal8get_slot78_$LT$impl$u20$pyo3..instance..Bound$LT$pyo3..types..typeobject..PyType$GT$$GT$8get_slot17hb17a16f900d71881E', symObjAddr: 0xC5C8, symBinAddr: 0x2D470, symSize: 0x28 }
  - { offset: 0xCBF83, size: 0x8, addend: 0x0, symName: '__ZN4pyo38internal8get_slot81_$LT$impl$u20$pyo3..instance..Borrowed$LT$pyo3..types..typeobject..PyType$GT$$GT$8get_slot17he48d63d992347012E', symObjAddr: 0xC5F0, symBinAddr: 0x2D498, symSize: 0x30 }
  - { offset: 0xCCF45, size: 0x8, addend: 0x0, symName: '__ZN153_$LT$core..result..Result$LT$T$C$F$GT$$u20$as$u20$core..ops..try_trait..FromResidual$LT$core..result..Result$LT$core..convert..Infallible$C$E$GT$$GT$$GT$13from_residual17h2744302fa7834007E', symObjAddr: 0x46C, symBinAddr: 0x2EF8C, symSize: 0x58 }
  - { offset: 0xCCFAD, size: 0x8, addend: 0x0, symName: '__ZN153_$LT$core..result..Result$LT$T$C$F$GT$$u20$as$u20$core..ops..try_trait..FromResidual$LT$core..result..Result$LT$core..convert..Infallible$C$E$GT$$GT$$GT$13from_residual17h2ac3212533e76911E', symObjAddr: 0x50C, symBinAddr: 0x2EFE4, symSize: 0x48 }
  - { offset: 0xCD032, size: 0x8, addend: 0x0, symName: '__ZN153_$LT$core..result..Result$LT$T$C$F$GT$$u20$as$u20$core..ops..try_trait..FromResidual$LT$core..result..Result$LT$core..convert..Infallible$C$E$GT$$GT$$GT$13from_residual17h39ddf42164730228E', symObjAddr: 0x5E4, symBinAddr: 0x2F02C, symSize: 0x48 }
  - { offset: 0xCD0B7, size: 0x8, addend: 0x0, symName: '__ZN153_$LT$core..result..Result$LT$T$C$F$GT$$u20$as$u20$core..ops..try_trait..FromResidual$LT$core..result..Result$LT$core..convert..Infallible$C$E$GT$$GT$$GT$13from_residual17h3b814ee16108b428E', symObjAddr: 0x62C, symBinAddr: 0x2F074, symSize: 0x48 }
  - { offset: 0xCD13C, size: 0x8, addend: 0x0, symName: '__ZN153_$LT$core..result..Result$LT$T$C$F$GT$$u20$as$u20$core..ops..try_trait..FromResidual$LT$core..result..Result$LT$core..convert..Infallible$C$E$GT$$GT$$GT$13from_residual17h40f68cd057ddb675E', symObjAddr: 0x76C, symBinAddr: 0x2F0BC, symSize: 0x48 }
  - { offset: 0xCD1C1, size: 0x8, addend: 0x0, symName: '__ZN153_$LT$core..result..Result$LT$T$C$F$GT$$u20$as$u20$core..ops..try_trait..FromResidual$LT$core..result..Result$LT$core..convert..Infallible$C$E$GT$$GT$$GT$13from_residual17h599a7589b0486f97E', symObjAddr: 0x844, symBinAddr: 0x2F104, symSize: 0x58 }
  - { offset: 0xCD229, size: 0x8, addend: 0x0, symName: '__ZN153_$LT$core..result..Result$LT$T$C$F$GT$$u20$as$u20$core..ops..try_trait..FromResidual$LT$core..result..Result$LT$core..convert..Infallible$C$E$GT$$GT$$GT$13from_residual17h5dd6a366b7744b8eE', symObjAddr: 0x89C, symBinAddr: 0x2F15C, symSize: 0x48 }
  - { offset: 0xCD2AE, size: 0x8, addend: 0x0, symName: '__ZN153_$LT$core..result..Result$LT$T$C$F$GT$$u20$as$u20$core..ops..try_trait..FromResidual$LT$core..result..Result$LT$core..convert..Infallible$C$E$GT$$GT$$GT$13from_residual17h637acc3421925bbbE', symObjAddr: 0xA5C, symBinAddr: 0x2F1A4, symSize: 0x48 }
  - { offset: 0xCD333, size: 0x8, addend: 0x0, symName: '__ZN153_$LT$core..result..Result$LT$T$C$F$GT$$u20$as$u20$core..ops..try_trait..FromResidual$LT$core..result..Result$LT$core..convert..Infallible$C$E$GT$$GT$$GT$13from_residual17h6a050d5ea87781f7E', symObjAddr: 0xB84, symBinAddr: 0x2F1EC, symSize: 0x48 }
  - { offset: 0xCD3B8, size: 0x8, addend: 0x0, symName: '__ZN153_$LT$core..result..Result$LT$T$C$F$GT$$u20$as$u20$core..ops..try_trait..FromResidual$LT$core..result..Result$LT$core..convert..Infallible$C$E$GT$$GT$$GT$13from_residual17h6cd3ce54742653d5E', symObjAddr: 0xBD4, symBinAddr: 0x2F234, symSize: 0x48 }
  - { offset: 0xCD43D, size: 0x8, addend: 0x0, symName: '__ZN153_$LT$core..result..Result$LT$T$C$F$GT$$u20$as$u20$core..ops..try_trait..FromResidual$LT$core..result..Result$LT$core..convert..Infallible$C$E$GT$$GT$$GT$13from_residual17h83856de90ff8499bE', symObjAddr: 0xCAC, symBinAddr: 0x2F27C, symSize: 0x48 }
  - { offset: 0xCD4C2, size: 0x8, addend: 0x0, symName: '__ZN153_$LT$core..result..Result$LT$T$C$F$GT$$u20$as$u20$core..ops..try_trait..FromResidual$LT$core..result..Result$LT$core..convert..Infallible$C$E$GT$$GT$$GT$13from_residual17h8f6b096da3eafe5fE', symObjAddr: 0xDA0, symBinAddr: 0x2F2C4, symSize: 0x48 }
  - { offset: 0xCD547, size: 0x8, addend: 0x0, symName: '__ZN153_$LT$core..result..Result$LT$T$C$F$GT$$u20$as$u20$core..ops..try_trait..FromResidual$LT$core..result..Result$LT$core..convert..Infallible$C$E$GT$$GT$$GT$13from_residual17h927d2a6dbb61cc4fE', symObjAddr: 0xE40, symBinAddr: 0x2F30C, symSize: 0x48 }
  - { offset: 0xCD5CC, size: 0x8, addend: 0x0, symName: '__ZN153_$LT$core..result..Result$LT$T$C$F$GT$$u20$as$u20$core..ops..try_trait..FromResidual$LT$core..result..Result$LT$core..convert..Infallible$C$E$GT$$GT$$GT$13from_residual17hb018c77154f7d837E', symObjAddr: 0x1130, symBinAddr: 0x2F354, symSize: 0x48 }
  - { offset: 0xCD651, size: 0x8, addend: 0x0, symName: '__ZN153_$LT$core..result..Result$LT$T$C$F$GT$$u20$as$u20$core..ops..try_trait..FromResidual$LT$core..result..Result$LT$core..convert..Infallible$C$E$GT$$GT$$GT$13from_residual17hbcc3d7d78ab2fe99E', symObjAddr: 0x1208, symBinAddr: 0x2F39C, symSize: 0x48 }
  - { offset: 0xCD6D6, size: 0x8, addend: 0x0, symName: '__ZN153_$LT$core..result..Result$LT$T$C$F$GT$$u20$as$u20$core..ops..try_trait..FromResidual$LT$core..result..Result$LT$core..convert..Infallible$C$E$GT$$GT$$GT$13from_residual17hc84a5e9f2fad7463E', symObjAddr: 0x1420, symBinAddr: 0x2F3E4, symSize: 0x48 }
  - { offset: 0xCD75B, size: 0x8, addend: 0x0, symName: '__ZN153_$LT$core..result..Result$LT$T$C$F$GT$$u20$as$u20$core..ops..try_trait..FromResidual$LT$core..result..Result$LT$core..convert..Infallible$C$E$GT$$GT$$GT$13from_residual17hc8619e2167779ce9E', symObjAddr: 0x1468, symBinAddr: 0x2F42C, symSize: 0x48 }
  - { offset: 0xCD7E0, size: 0x8, addend: 0x0, symName: '__ZN153_$LT$core..result..Result$LT$T$C$F$GT$$u20$as$u20$core..ops..try_trait..FromResidual$LT$core..result..Result$LT$core..convert..Infallible$C$E$GT$$GT$$GT$13from_residual17hea499fdbc6415e85E', symObjAddr: 0x1670, symBinAddr: 0x2F474, symSize: 0x48 }
  - { offset: 0xCD865, size: 0x8, addend: 0x0, symName: '__ZN153_$LT$core..result..Result$LT$T$C$F$GT$$u20$as$u20$core..ops..try_trait..FromResidual$LT$core..result..Result$LT$core..convert..Infallible$C$E$GT$$GT$$GT$13from_residual17hf0e797e79308c339E', symObjAddr: 0x1748, symBinAddr: 0x2F4BC, symSize: 0x48 }
  - { offset: 0xD013D, size: 0x8, addend: 0x0, symName: __ZN4core6result6Result3Err17hef8d2daf9c970378E, symObjAddr: 0x4C14, symBinAddr: 0x302AC, symSize: 0x20 }
  - { offset: 0xD0180, size: 0x8, addend: 0x0, symName: '__ZN79_$LT$core..result..Result$LT$T$C$E$GT$$u20$as$u20$core..ops..try_trait..Try$GT$6branch17h025e753b121e6f2bE', symObjAddr: 0x4C34, symBinAddr: 0x302CC, symSize: 0x28 }
  - { offset: 0xD01DE, size: 0x8, addend: 0x0, symName: '__ZN79_$LT$core..result..Result$LT$T$C$E$GT$$u20$as$u20$core..ops..try_trait..Try$GT$6branch17h057b7f621b6a3a76E', symObjAddr: 0x4CDC, symBinAddr: 0x302F4, symSize: 0x88 }
  - { offset: 0xD025C, size: 0x8, addend: 0x0, symName: '__ZN79_$LT$core..result..Result$LT$T$C$E$GT$$u20$as$u20$core..ops..try_trait..Try$GT$6branch17h084da317baba5190E', symObjAddr: 0x4D64, symBinAddr: 0x3037C, symSize: 0x80 }
  - { offset: 0xD02DA, size: 0x8, addend: 0x0, symName: '__ZN79_$LT$core..result..Result$LT$T$C$E$GT$$u20$as$u20$core..ops..try_trait..Try$GT$6branch17h0fb99a65797116ebE', symObjAddr: 0x4DE4, symBinAddr: 0x303FC, symSize: 0x14 }
  - { offset: 0xD0316, size: 0x8, addend: 0x0, symName: '__ZN79_$LT$core..result..Result$LT$T$C$E$GT$$u20$as$u20$core..ops..try_trait..Try$GT$6branch17h304e5b5e9f158532E', symObjAddr: 0x4E78, symBinAddr: 0x30410, symSize: 0x8C }
  - { offset: 0xD0394, size: 0x8, addend: 0x0, symName: '__ZN79_$LT$core..result..Result$LT$T$C$E$GT$$u20$as$u20$core..ops..try_trait..Try$GT$6branch17h3346cef7d057b216E', symObjAddr: 0x4F6C, symBinAddr: 0x3049C, symSize: 0x80 }
  - { offset: 0xD0412, size: 0x8, addend: 0x0, symName: '__ZN79_$LT$core..result..Result$LT$T$C$E$GT$$u20$as$u20$core..ops..try_trait..Try$GT$6branch17h33b290304e5f021eE', symObjAddr: 0x4FEC, symBinAddr: 0x3051C, symSize: 0x88 }
  - { offset: 0xD0490, size: 0x8, addend: 0x0, symName: '__ZN79_$LT$core..result..Result$LT$T$C$E$GT$$u20$as$u20$core..ops..try_trait..Try$GT$6branch17h3718dc894b233349E', symObjAddr: 0x50E8, symBinAddr: 0x305A4, symSize: 0x80 }
  - { offset: 0xD050E, size: 0x8, addend: 0x0, symName: '__ZN79_$LT$core..result..Result$LT$T$C$E$GT$$u20$as$u20$core..ops..try_trait..Try$GT$6branch17h3855bd24486c6a6bE', symObjAddr: 0x5168, symBinAddr: 0x30624, symSize: 0x94 }
  - { offset: 0xD058C, size: 0x8, addend: 0x0, symName: '__ZN79_$LT$core..result..Result$LT$T$C$E$GT$$u20$as$u20$core..ops..try_trait..Try$GT$6branch17h3f9e27d5b968474fE', symObjAddr: 0x51FC, symBinAddr: 0x306B8, symSize: 0x80 }
  - { offset: 0xD060A, size: 0x8, addend: 0x0, symName: '__ZN79_$LT$core..result..Result$LT$T$C$E$GT$$u20$as$u20$core..ops..try_trait..Try$GT$6branch17h4212a413b4110d5aE', symObjAddr: 0x527C, symBinAddr: 0x30738, symSize: 0x80 }
  - { offset: 0xD0688, size: 0x8, addend: 0x0, symName: '__ZN79_$LT$core..result..Result$LT$T$C$E$GT$$u20$as$u20$core..ops..try_trait..Try$GT$6branch17h4ab2bef99dc63750E', symObjAddr: 0x537C, symBinAddr: 0x307B8, symSize: 0x80 }
  - { offset: 0xD0706, size: 0x8, addend: 0x0, symName: '__ZN79_$LT$core..result..Result$LT$T$C$E$GT$$u20$as$u20$core..ops..try_trait..Try$GT$6branch17h5e59b2c7cc29c2d4E', symObjAddr: 0x5490, symBinAddr: 0x30838, symSize: 0xA0 }
  - { offset: 0xD0783, size: 0x8, addend: 0x0, symName: '__ZN79_$LT$core..result..Result$LT$T$C$E$GT$$u20$as$u20$core..ops..try_trait..Try$GT$6branch17h61521e7362f2741bE', symObjAddr: 0x5530, symBinAddr: 0x308D8, symSize: 0x80 }
  - { offset: 0xD0801, size: 0x8, addend: 0x0, symName: '__ZN79_$LT$core..result..Result$LT$T$C$E$GT$$u20$as$u20$core..ops..try_trait..Try$GT$6branch17h70bddf8e46eedeb1E', symObjAddr: 0x56B8, symBinAddr: 0x30958, symSize: 0x70 }
  - { offset: 0xD087F, size: 0x8, addend: 0x0, symName: '__ZN79_$LT$core..result..Result$LT$T$C$E$GT$$u20$as$u20$core..ops..try_trait..Try$GT$6branch17h86ce9c18b4de351bE', symObjAddr: 0x58B0, symBinAddr: 0x309C8, symSize: 0x28 }
  - { offset: 0xD08DD, size: 0x8, addend: 0x0, symName: '__ZN79_$LT$core..result..Result$LT$T$C$E$GT$$u20$as$u20$core..ops..try_trait..Try$GT$6branch17hb0a03446350192caE', symObjAddr: 0x5BC8, symBinAddr: 0x309F0, symSize: 0x8C }
  - { offset: 0xD095B, size: 0x8, addend: 0x0, symName: '__ZN79_$LT$core..result..Result$LT$T$C$E$GT$$u20$as$u20$core..ops..try_trait..Try$GT$6branch17hb72102f82ba11ad8E', symObjAddr: 0x5C54, symBinAddr: 0x30A7C, symSize: 0x80 }
  - { offset: 0xD09D9, size: 0x8, addend: 0x0, symName: '__ZN79_$LT$core..result..Result$LT$T$C$E$GT$$u20$as$u20$core..ops..try_trait..Try$GT$6branch17hbd314b20b9786fb3E', symObjAddr: 0x5CD4, symBinAddr: 0x30AFC, symSize: 0x80 }
  - { offset: 0xD0A57, size: 0x8, addend: 0x0, symName: '__ZN79_$LT$core..result..Result$LT$T$C$E$GT$$u20$as$u20$core..ops..try_trait..Try$GT$6branch17hbf70791f6f601782E', symObjAddr: 0x5D54, symBinAddr: 0x30B7C, symSize: 0x80 }
  - { offset: 0xD0AD5, size: 0x8, addend: 0x0, symName: '__ZN79_$LT$core..result..Result$LT$T$C$E$GT$$u20$as$u20$core..ops..try_trait..Try$GT$6branch17hc7cad4d514e146a6E', symObjAddr: 0x5EDC, symBinAddr: 0x30BFC, symSize: 0x80 }
  - { offset: 0xD0B53, size: 0x8, addend: 0x0, symName: '__ZN79_$LT$core..result..Result$LT$T$C$E$GT$$u20$as$u20$core..ops..try_trait..Try$GT$6branch17hca39ede4a5795639E', symObjAddr: 0x5F5C, symBinAddr: 0x30C7C, symSize: 0x80 }
  - { offset: 0xD0BD1, size: 0x8, addend: 0x0, symName: '__ZN79_$LT$core..result..Result$LT$T$C$E$GT$$u20$as$u20$core..ops..try_trait..Try$GT$6branch17he57e5774de37852fE', symObjAddr: 0x6128, symBinAddr: 0x30CFC, symSize: 0x80 }
  - { offset: 0xD2DE6, size: 0x8, addend: 0x0, symName: '__ZN152_$LT$core..result..Result$LT$pyo3..instance..Bound$LT$pyo3..types..any..PyAny$GT$$C$pyo3..err..PyErr$GT$$u20$as$u20$pyo3..py_result_ext..PyResultExt$GT$23downcast_into_unchecked17ha15b05e6278e60c1E', symObjAddr: 0x12C, symBinAddr: 0x2EF3C, symSize: 0x14 }
  - { offset: 0xD2E1C, size: 0x8, addend: 0x0, symName: '__ZN152_$LT$core..result..Result$LT$pyo3..instance..Bound$LT$pyo3..types..any..PyAny$GT$$C$pyo3..err..PyErr$GT$$u20$as$u20$pyo3..py_result_ext..PyResultExt$GT$23downcast_into_unchecked17hb780ad972e864ca6E', symObjAddr: 0x140, symBinAddr: 0x2EF50, symSize: 0x14 }
  - { offset: 0xD2E52, size: 0x8, addend: 0x0, symName: '__ZN152_$LT$core..result..Result$LT$pyo3..instance..Bound$LT$pyo3..types..any..PyAny$GT$$C$pyo3..err..PyErr$GT$$u20$as$u20$pyo3..py_result_ext..PyResultExt$GT$23downcast_into_unchecked17heb2e5f0ab567ce6eE', symObjAddr: 0x190, symBinAddr: 0x2EF64, symSize: 0x14 }
  - { offset: 0xD2E88, size: 0x8, addend: 0x0, symName: '__ZN152_$LT$core..result..Result$LT$pyo3..instance..Bound$LT$pyo3..types..any..PyAny$GT$$C$pyo3..err..PyErr$GT$$u20$as$u20$pyo3..py_result_ext..PyResultExt$GT$23downcast_into_unchecked17hf92b475a3e5f3ddcE', symObjAddr: 0x1A4, symBinAddr: 0x2EF78, symSize: 0x14 }
  - { offset: 0xD3F49, size: 0x8, addend: 0x0, symName: '__ZN4core6result19Result$LT$T$C$E$GT$11map_or_else17hc1f2f7533dc672cdE', symObjAddr: 0x1908, symBinAddr: 0x2F504, symSize: 0xD8 }
  - { offset: 0xD4060, size: 0x8, addend: 0x0, symName: '__ZN4core6result19Result$LT$T$C$E$GT$14unwrap_or_else17hcb3a3b690aff8d60E', symObjAddr: 0x1A5C, symBinAddr: 0x2F5DC, symSize: 0x7C }
  - { offset: 0xD40CC, size: 0x8, addend: 0x0, symName: '__ZN4core6result19Result$LT$T$C$E$GT$3map17h014a9fc30407b2b4E', symObjAddr: 0x1B58, symBinAddr: 0x2F658, symSize: 0x80 }
  - { offset: 0xD4179, size: 0x8, addend: 0x0, symName: '__ZN4core6result19Result$LT$T$C$E$GT$3map17h06fd4c2d21f895ccE', symObjAddr: 0x1C54, symBinAddr: 0x2F6D8, symSize: 0x8C }
  - { offset: 0xD420C, size: 0x8, addend: 0x0, symName: '__ZN4core6result19Result$LT$T$C$E$GT$3map17h265cc04843c7345bE', symObjAddr: 0x1CE0, symBinAddr: 0x2F764, symSize: 0x80 }
  - { offset: 0xD42B7, size: 0x8, addend: 0x0, symName: '__ZN4core6result19Result$LT$T$C$E$GT$3map17h4a5c43b1acb7fe7aE', symObjAddr: 0x1FE0, symBinAddr: 0x2F7E4, symSize: 0x80 }
  - { offset: 0xD434A, size: 0x8, addend: 0x0, symName: '__ZN4core6result19Result$LT$T$C$E$GT$3map17h79533ea3474f7e28E', symObjAddr: 0x226C, symBinAddr: 0x2F864, symSize: 0x8C }
  - { offset: 0xD43DD, size: 0x8, addend: 0x0, symName: '__ZN4core6result19Result$LT$T$C$E$GT$3map17h7be774820ec48701E', symObjAddr: 0x22F8, symBinAddr: 0x2F8F0, symSize: 0x80 }
  - { offset: 0xD4470, size: 0x8, addend: 0x0, symName: '__ZN4core6result19Result$LT$T$C$E$GT$3map17ha04d9c914acb3847E', symObjAddr: 0x23F8, symBinAddr: 0x2F970, symSize: 0x90 }
  - { offset: 0xD4533, size: 0x8, addend: 0x0, symName: '__ZN4core6result19Result$LT$T$C$E$GT$3map17he162a08fe572f5d3E', symObjAddr: 0x28B4, symBinAddr: 0x2FA00, symSize: 0x98 }
  - { offset: 0xD45EB, size: 0x8, addend: 0x0, symName: '__ZN4core6result19Result$LT$T$C$E$GT$6expect17h0b2770723d55cf2fE', symObjAddr: 0x2A64, symBinAddr: 0x2FA98, symSize: 0xBC }
  - { offset: 0xD464E, size: 0x8, addend: 0x0, symName: '__ZN4core6result19Result$LT$T$C$E$GT$6expect17h3278f1868386ae10E', symObjAddr: 0x2C70, symBinAddr: 0x2FB54, symSize: 0xA8 }
  - { offset: 0xD46B1, size: 0x8, addend: 0x0, symName: '__ZN4core6result19Result$LT$T$C$E$GT$6expect17h3a26e6593b18bf3eE', symObjAddr: 0x2D18, symBinAddr: 0x2FBFC, symSize: 0x9C }
  - { offset: 0xD4714, size: 0x8, addend: 0x0, symName: '__ZN4core6result19Result$LT$T$C$E$GT$6expect17h3b9cd16a49501bdbE', symObjAddr: 0x2DB4, symBinAddr: 0x2FC98, symSize: 0x84 }
  - { offset: 0xD477D, size: 0x8, addend: 0x0, symName: '__ZN4core6result19Result$LT$T$C$E$GT$6expect17hb7997fc243e45fa7E', symObjAddr: 0x2EE0, symBinAddr: 0x2FD1C, symSize: 0x78 }
  - { offset: 0xD47F7, size: 0x8, addend: 0x0, symName: '__ZN4core6result19Result$LT$T$C$E$GT$7map_err17h005ed001313f0d6aE', symObjAddr: 0x34D0, symBinAddr: 0x2FD94, symSize: 0x88 }
  - { offset: 0xD489E, size: 0x8, addend: 0x0, symName: '__ZN4core6result19Result$LT$T$C$E$GT$7map_err17h13093cebdfa0e3c1E', symObjAddr: 0x37A8, symBinAddr: 0x2FE1C, symSize: 0x70 }
  - { offset: 0xD495C, size: 0x8, addend: 0x0, symName: '__ZN4core6result19Result$LT$T$C$E$GT$7map_err17h249115ef4c6d7c21E', symObjAddr: 0x38EC, symBinAddr: 0x2FE8C, symSize: 0xB0 }
  - { offset: 0xD4A04, size: 0x8, addend: 0x0, symName: '__ZN4core6result19Result$LT$T$C$E$GT$7map_err17h70ce5bb408bc5bf6E', symObjAddr: 0x3FD4, symBinAddr: 0x2FF3C, symSize: 0xA4 }
  - { offset: 0xD4A97, size: 0x8, addend: 0x0, symName: '__ZN4core6result19Result$LT$T$C$E$GT$7map_err17hc70bbadf479b5be8E', symObjAddr: 0x43F4, symBinAddr: 0x2FFE0, symSize: 0x70 }
  - { offset: 0xD4B29, size: 0x8, addend: 0x0, symName: '__ZN4core6result19Result$LT$T$C$E$GT$7map_err17hc809f19ae3d072d6E', symObjAddr: 0x4464, symBinAddr: 0x30050, symSize: 0xB0 }
  - { offset: 0xD4BBC, size: 0x8, addend: 0x0, symName: '__ZN4core6result19Result$LT$T$C$E$GT$7map_err17hfc0b44f5ce3a5d43E', symObjAddr: 0x4720, symBinAddr: 0x30100, symSize: 0x78 }
  - { offset: 0xD4C68, size: 0x8, addend: 0x0, symName: '__ZN4core6result19Result$LT$T$C$E$GT$9unwrap_or17h00aefc19826d6c0eE', symObjAddr: 0x4AE0, symBinAddr: 0x30178, symSize: 0x70 }
  - { offset: 0xD4CAC, size: 0x8, addend: 0x0, symName: '__ZN4core6result19Result$LT$T$C$E$GT$9unwrap_or17hc5fa680673c22f2bE', symObjAddr: 0x4B50, symBinAddr: 0x301E8, symSize: 0xC4 }
  - { offset: 0xD4DEC, size: 0x8, addend: 0x0, symName: '__ZN3std4sync4once4Once15call_once_force28_$u7b$$u7b$closure$u7d$$u7d$17hafac80a0d302666cE', symObjAddr: 0x500, symBinAddr: 0x30FF4, symSize: 0x68 }
  - { offset: 0xD4E7E, size: 0x8, addend: 0x0, symName: '__ZN3std4sync4once4Once15call_once_force28_$u7b$$u7b$closure$u7d$$u7d$17hffa9032a7ac31d99E', symObjAddr: 0x568, symBinAddr: 0x3105C, symSize: 0x68 }
  - { offset: 0xD6998, size: 0x8, addend: 0x0, symName: '__ZN4core3ops8function5impls79_$LT$impl$u20$core..ops..function..FnMut$LT$A$GT$$u20$for$u20$$RF$mut$u20$F$GT$8call_mut17h9e5e4f5d7219b1ffE', symObjAddr: 0x948, symBinAddr: 0x311DC, symSize: 0x38 }
  - { offset: 0xD69E7, size: 0x8, addend: 0x0, symName: '__ZN4core3ops8function5impls79_$LT$impl$u20$core..ops..function..FnMut$LT$A$GT$$u20$for$u20$$RF$mut$u20$F$GT$8call_mut17hb73b8b240c80e23eE', symObjAddr: 0x980, symBinAddr: 0x31214, symSize: 0x38 }
  - { offset: 0xD6A97, size: 0x8, addend: 0x0, symName: '__ZN82_$LT$core..array..iter..IntoIter$LT$T$C$_$GT$$u20$as$u20$core..ops..drop..Drop$GT$4drop17h6459fe546d9fb718E', symObjAddr: 0x6888, symBinAddr: 0x353DC, symSize: 0x30 }
  - { offset: 0xD6AEE, size: 0x8, addend: 0x0, symName: '__ZN99_$LT$core..array..iter..IntoIter$LT$T$C$_$GT$$u20$as$u20$core..iter..traits..iterator..Iterator$GT$4next17h779911f202cb99c0E', symObjAddr: 0x6A08, symBinAddr: 0x35490, symSize: 0x2C }
  - { offset: 0xD7332, size: 0x8, addend: 0x0, symName: __ZN4core4iter6traits8iterator8Iterator9enumerate17h52dde3630ddd8701E, symObjAddr: 0x9F8, symBinAddr: 0x3124C, symSize: 0x18 }
  - { offset: 0xD7363, size: 0x8, addend: 0x0, symName: __ZN4core4iter6traits8iterator8Iterator9enumerate17h52dde3630ddd8701E, symObjAddr: 0x9F8, symBinAddr: 0x3124C, symSize: 0x18 }
  - { offset: 0xD7CB3, size: 0x8, addend: 0x0, symName: __ZN4core5alloc6layout6Layout25from_size_align_unchecked18precondition_check17hc57b68a5e7193fecE, symObjAddr: 0xB6C, symBinAddr: 0x31264, symSize: 0xBC }
  - { offset: 0xD7D29, size: 0x8, addend: 0x0, symName: '__ZN4core5slice29_$LT$impl$u20$$u5b$T$u5d$$GT$4iter17h8aa5a32c0d5058cfE', symObjAddr: 0xD7C, symBinAddr: 0x31320, symSize: 0x28 }
  - { offset: 0xD7D66, size: 0x8, addend: 0x0, symName: __ZN4core5slice3raw14from_raw_parts17heec0606c245066caE, symObjAddr: 0xEAC, symBinAddr: 0x31348, symSize: 0x58 }
  - { offset: 0xD7DAE, size: 0x8, addend: 0x0, symName: __ZN4core5slice3raw14from_raw_parts18precondition_check17h22164885065fe358E, symObjAddr: 0xF04, symBinAddr: 0x313A0, symSize: 0x1D8 }
  - { offset: 0xD7F4C, size: 0x8, addend: 0x0, symName: __ZN4core5slice3raw18from_raw_parts_mut18precondition_check17h1f34e8b628a0a8d9E, symObjAddr: 0x1134, symBinAddr: 0x31578, symSize: 0x1D8 }
  - { offset: 0xD837D, size: 0x8, addend: 0x0, symName: __ZN4core9ub_checks23maybe_is_nonoverlapping7runtime17h42bbcec066af09c5E, symObjAddr: 0x1850, symBinAddr: 0x318FC, symSize: 0xD8 }
  - { offset: 0xD8539, size: 0x8, addend: 0x0, symName: '__ZN4core7convert3num66_$LT$impl$u20$core..convert..TryFrom$LT$i64$GT$$u20$for$u20$u8$GT$8try_from17h1ade13282279c9d5E', symObjAddr: 0x138C, symBinAddr: 0x31750, symSize: 0x78 }
  - { offset: 0xD85A9, size: 0x8, addend: 0x0, symName: '__ZN4core7convert3num67_$LT$impl$u20$core..convert..TryFrom$LT$i64$GT$$u20$for$u20$i32$GT$8try_from17h4d5ed7c25485a0a8E', symObjAddr: 0x152C, symBinAddr: 0x317C8, symSize: 0x7C }
  - { offset: 0xD8619, size: 0x8, addend: 0x0, symName: '__ZN4core7convert3num67_$LT$impl$u20$core..convert..TryFrom$LT$u64$GT$$u20$for$u20$u32$GT$8try_from17hc326e1f6fc82ea6dE', symObjAddr: 0x1744, symBinAddr: 0x31844, symSize: 0x5C }
  - { offset: 0xD864D, size: 0x8, addend: 0x0, symName: '__ZN4core7convert3num71_$LT$impl$u20$core..convert..TryFrom$LT$usize$GT$$u20$for$u20$isize$GT$8try_from17h4f967839203b1373E', symObjAddr: 0x17F4, symBinAddr: 0x318A0, symSize: 0x5C }
  - { offset: 0xD8754, size: 0x8, addend: 0x0, symName: '__ZN135_$LT$pyo3..impl_..pyclass..lazy_type_object..LazyTypeObjectInner..ensure_init..InitializationGuard$u20$as$u20$core..ops..drop..Drop$GT$4drop17hab2a58e968bab2edE', symObjAddr: 0x48, symBinAddr: 0x30D7C, symSize: 0x98 }
  - { offset: 0xD8796, size: 0x8, addend: 0x0, symName: '__ZN135_$LT$pyo3..impl_..pyclass..lazy_type_object..LazyTypeObjectInner..ensure_init..InitializationGuard$u20$as$u20$core..ops..drop..Drop$GT$4drop28_$u7b$$u7b$closure$u7d$$u7d$17he054cdb7d69c0533E', symObjAddr: 0xE0, symBinAddr: 0x30E14, symSize: 0x38 }
  - { offset: 0xD87D5, size: 0x8, addend: 0x0, symName: '__ZN4pyo35impl_7pyclass16lazy_type_object19LazyTypeObjectInner11ensure_init28_$u7b$$u7b$closure$u7d$$u7d$17h380c3ed5693b0163E', symObjAddr: 0x3954, symBinAddr: 0x3270C, symSize: 0x154 }
  - { offset: 0xD888A, size: 0x8, addend: 0x0, symName: '__ZN4pyo35impl_7pyclass16lazy_type_object19LazyTypeObjectInner15get_or_try_init28_$u7b$$u7b$closure$u7d$$u7d$17h458c9b94068bfa22E', symObjAddr: 0x3B40, symBinAddr: 0x328F8, symSize: 0xFC }
  - { offset: 0xD8929, size: 0x8, addend: 0x0, symName: '__ZN4pyo35impl_7pyclass16lazy_type_object19LazyTypeObjectInner15get_or_try_init28_$u7b$$u7b$closure$u7d$$u7d$17h480ca215252f153aE', symObjAddr: 0x3C3C, symBinAddr: 0x329F4, symSize: 0x130 }
  - { offset: 0xD89F3, size: 0x8, addend: 0x0, symName: '__ZN4pyo35impl_7pyclass16lazy_type_object19LazyTypeObjectInner15get_or_try_init28_$u7b$$u7b$closure$u7d$$u7d$28_$u7b$$u7b$closure$u7d$$u7d$17hde022477af0fe443E', symObjAddr: 0x3D6C, symBinAddr: 0x32B24, symSize: 0x2C }
  - { offset: 0xD8A33, size: 0x8, addend: 0x0, symName: __ZN4pyo35impl_7pyclass16lazy_type_object18initialize_tp_dict17h01442492e1b5ec86E, symObjAddr: 0x2FB0, symBinAddr: 0x31D68, symSize: 0x1BC }
  - { offset: 0xD8B5B, size: 0x8, addend: 0x0, symName: __ZN4pyo35impl_7pyclass16lazy_type_object21wrap_in_runtime_error17h6a4017b501b81063E, symObjAddr: 0x3D98, symBinAddr: 0x8FDB8, symSize: 0xE0 }
  - { offset: 0xD8DE3, size: 0x8, addend: 0x0, symName: '__ZN4pyo35impl_16extract_argument19FunctionDescription34missing_required_keyword_arguments28_$u7b$$u7b$closure$u7d$$u7d$17h00653978fef27807E', symObjAddr: 0x286C, symBinAddr: 0x319D4, symSize: 0x84 }
  - { offset: 0xD8E53, size: 0x8, addend: 0x0, symName: '__ZN4pyo35impl_16extract_argument19FunctionDescription37missing_required_positional_arguments28_$u7b$$u7b$closure$u7d$$u7d$17h16d8aa7649d58249E', symObjAddr: 0x2A38, symBinAddr: 0x31A58, symSize: 0x78 }
  - { offset: 0xD8EBF, size: 0x8, addend: 0x0, symName: __ZN4pyo35impl_16extract_argument19push_parameter_list17hf569723708323e89E, symObjAddr: 0x2BDC, symBinAddr: 0x31BFC, symSize: 0x16C }
  - { offset: 0xD8F4B, size: 0x8, addend: 0x0, symName: __ZN4pyo35impl_16extract_argument25argument_extraction_error17h95a8ad20803d79e4E, symObjAddr: 0x2D48, symBinAddr: 0x8FB50, symSize: 0x268 }
  - { offset: 0xD96ED, size: 0x8, addend: 0x0, symName: __ZN4pyo37pyclass18create_type_object13GetSetDefType21create_py_get_set_def13getset_getter17hcbb8ea5b557e082eE, symObjAddr: 0x3ED4, symBinAddr: 0x32BAC, symSize: 0x94 }
  - { offset: 0xD976B, size: 0x8, addend: 0x0, symName: '__ZN4pyo37pyclass18create_type_object13GetSetDefType21create_py_get_set_def13getset_getter28_$u7b$$u7b$closure$u7d$$u7d$17h44f32f091fdda20aE', symObjAddr: 0x3F68, symBinAddr: 0x32C40, symSize: 0x34 }
  - { offset: 0xD97CA, size: 0x8, addend: 0x0, symName: __ZN4pyo37pyclass18create_type_object13GetSetDefType21create_py_get_set_def13getset_setter17h91355293b5745199E, symObjAddr: 0x3F9C, symBinAddr: 0x32C74, symSize: 0xAC }
  - { offset: 0xD9857, size: 0x8, addend: 0x0, symName: '__ZN4pyo37pyclass18create_type_object13GetSetDefType21create_py_get_set_def13getset_setter28_$u7b$$u7b$closure$u7d$$u7d$17h988fc18aa27093c1E', symObjAddr: 0x4048, symBinAddr: 0x32D20, symSize: 0x38 }
  - { offset: 0xD98C5, size: 0x8, addend: 0x0, symName: __ZN4pyo37pyclass18create_type_object13GetSetDefType21create_py_get_set_def6getter17hdf42248947c52813E, symObjAddr: 0x4224, symBinAddr: 0x32EFC, symSize: 0x48 }
  - { offset: 0xD9925, size: 0x8, addend: 0x0, symName: '__ZN4pyo37pyclass18create_type_object13GetSetDefType21create_py_get_set_def6getter28_$u7b$$u7b$closure$u7d$$u7d$17hb082c3c42977c91eE', symObjAddr: 0x426C, symBinAddr: 0x32F44, symSize: 0x34 }
  - { offset: 0xD9984, size: 0x8, addend: 0x0, symName: __ZN4pyo37pyclass18create_type_object13GetSetDefType21create_py_get_set_def6setter17h7659d51b791679ffE, symObjAddr: 0x42A0, symBinAddr: 0x32F78, symSize: 0x5C }
  - { offset: 0xD99F3, size: 0x8, addend: 0x0, symName: '__ZN4pyo37pyclass18create_type_object13GetSetDefType21create_py_get_set_def6setter28_$u7b$$u7b$closure$u7d$$u7d$17hf3739c4a7d76b169E', symObjAddr: 0x42FC, symBinAddr: 0x32FD4, symSize: 0x38 }
  - { offset: 0xD9D62, size: 0x8, addend: 0x0, symName: '__ZN4pyo37pyclass18create_type_object13PyTypeBuilder31finalize_methods_and_properties28_$u7b$$u7b$closure$u7d$$u7d$17h293eb7fa747a57eeE', symObjAddr: 0x4F24, symBinAddr: 0x33BFC, symSize: 0xE8 }
  - { offset: 0xD9E1E, size: 0x8, addend: 0x0, symName: __ZN4pyo37pyclass18create_type_object16call_super_clear17hfe4693063351f7dfE, symObjAddr: 0x6008, symBinAddr: 0x34CE0, symSize: 0x44 }
  - { offset: 0xD9E51, size: 0x8, addend: 0x0, symName: '__ZN4pyo37pyclass18create_type_object16call_super_clear28_$u7b$$u7b$closure$u7d$$u7d$17hc1e5d14a40397ec9E', symObjAddr: 0x604C, symBinAddr: 0x34D24, symSize: 0x18 }
  - { offset: 0xD9E9E, size: 0x8, addend: 0x0, symName: __ZN4pyo37pyclass18create_type_object18create_type_object5inner17h386f3dd583db6d4eE, symObjAddr: 0x6064, symBinAddr: 0x34D3C, symSize: 0x2D4 }
  - { offset: 0xD9F98, size: 0x8, addend: 0x0, symName: __ZN4pyo37pyclass18create_type_object22no_constructor_defined17h86c47b54f35cd230E, symObjAddr: 0x6338, symBinAddr: 0x35010, symSize: 0x40 }
  - { offset: 0xD9FE9, size: 0x8, addend: 0x0, symName: '__ZN4pyo37pyclass18create_type_object22no_constructor_defined28_$u7b$$u7b$closure$u7d$$u7d$17h6178989c56999121E', symObjAddr: 0x6378, symBinAddr: 0x35050, symSize: 0x13C }
  - { offset: 0xDA0B9, size: 0x8, addend: 0x0, symName: '__ZN4pyo37pyclass18create_type_object22no_constructor_defined28_$u7b$$u7b$closure$u7d$$u7d$28_$u7b$$u7b$closure$u7d$$u7d$17h55dd10a7897f2ca8E', symObjAddr: 0x64B4, symBinAddr: 0x3518C, symSize: 0x6C }
  - { offset: 0xDA0EF, size: 0x8, addend: 0x0, symName: '__ZN4pyo37pyclass18create_type_object22no_constructor_defined28_$u7b$$u7b$closure$u7d$$u7d$28_$u7b$$u7b$closure$u7d$$u7d$17hab0a812b8e6f15cdE', symObjAddr: 0x6520, symBinAddr: 0x351F8, symSize: 0x5C }
  - { offset: 0xDA138, size: 0x8, addend: 0x0, symName: __ZN4pyo37pyclass18create_type_object23py_class_qualified_name17he3ecbab3fa853295E, symObjAddr: 0x657C, symBinAddr: 0x35254, symSize: 0x14C }
  - { offset: 0xDA1F5, size: 0x8, addend: 0x0, symName: '__ZN94_$LT$pyo3..pyclass..create_type_object..GetSetDefBuilder$u20$as$u20$core..default..Default$GT$7default17hde636c14247ad22fE', symObjAddr: 0x6988, symBinAddr: 0x3543C, symSize: 0x54 }
  - { offset: 0xDA220, size: 0x8, addend: 0x0, symName: '__ZN66_$LT$pyo3..pycell..PyBorrowError$u20$as$u20$core..fmt..Display$GT$3fmt17h88b4dd07f7b9bd57E', symObjAddr: 0x676C, symBinAddr: 0x353A0, symSize: 0x3C }
  - { offset: 0xDA2B6, size: 0x8, addend: 0x0, symName: '__ZN45_$LT$T$u20$as$u20$alloc..string..ToString$GT$9to_string17hfdf6925307e09de9E', symObjAddr: 0x648, symBinAddr: 0x310C4, symSize: 0x24 }
  - { offset: 0xDA2F3, size: 0x8, addend: 0x0, symName: '__ZN49_$LT$T$u20$as$u20$alloc..string..SpecToString$GT$14spec_to_string17h6621f12ec5869f9fE', symObjAddr: 0x66C, symBinAddr: 0x310E8, symSize: 0xF4 }
  - { offset: 0xDB17A, size: 0x8, addend: 0x0, symName: __ZN8pyo3_ffi10listobject12PyList_Check17ha25e1cc043b0f290E, symObjAddr: 0x6958, symBinAddr: 0x3540C, symSize: 0x30 }
  - { offset: 0xDB24E, size: 0x8, addend: 0x0, symName: __ZN3std4sync4once4Once15call_once_force17h25829e95a087c8a8E, symObjAddr: 0x358, symBinAddr: 0x30E4C, symSize: 0xD4 }
  - { offset: 0xDB313, size: 0x8, addend: 0x0, symName: __ZN3std4sync4once4Once15call_once_force17h48cacde3b87ec1acE, symObjAddr: 0x42C, symBinAddr: 0x30F20, symSize: 0xD4 }
  - { offset: 0xDBB9D, size: 0x8, addend: 0x0, symName: __ZN4pyo35impl_16extract_argument19FunctionDescription26missing_required_arguments17hf4c6b9f9a05b79ecE, symObjAddr: 0x1E94, symBinAddr: 0x8F030, symSize: 0x1F0 }
  - { offset: 0xDBC6E, size: 0x8, addend: 0x0, symName: __ZN4pyo35impl_16extract_argument19FunctionDescription27unexpected_keyword_argument17hc9033e23fb35afedE, symObjAddr: 0x2084, symBinAddr: 0x8F220, symSize: 0x128 }
  - { offset: 0xDBCFC, size: 0x8, addend: 0x0, symName: __ZN4pyo35impl_16extract_argument19FunctionDescription28multiple_values_for_argument17h65b7cd66bc9015d5E, symObjAddr: 0x21AC, symBinAddr: 0x8F348, symSize: 0x108 }
  - { offset: 0xDBD82, size: 0x8, addend: 0x0, symName: __ZN4pyo35impl_16extract_argument19FunctionDescription29too_many_positional_arguments17he05fbfb8fee28ceeE, symObjAddr: 0x22B4, symBinAddr: 0x8F450, symSize: 0x2F4 }
  - { offset: 0xDBE93, size: 0x8, addend: 0x0, symName: __ZN4pyo35impl_16extract_argument19FunctionDescription33positional_only_keyword_arguments17hf8b0dc482dfd7d07E, symObjAddr: 0x25A8, symBinAddr: 0x8F744, symSize: 0x140 }
  - { offset: 0xDBF56, size: 0x8, addend: 0x0, symName: __ZN4pyo35impl_16extract_argument19FunctionDescription34missing_required_keyword_arguments17hd5d575b411af44e5E, symObjAddr: 0x26E8, symBinAddr: 0x8F884, symSize: 0x184 }
  - { offset: 0xDBFED, size: 0x8, addend: 0x0, symName: __ZN4pyo35impl_16extract_argument19FunctionDescription37missing_required_positional_arguments17he0b50948cd5ec1ccE, symObjAddr: 0x28F0, symBinAddr: 0x8FA08, symSize: 0x148 }
  - { offset: 0xDC036, size: 0x8, addend: 0x0, symName: __ZN4pyo35impl_16extract_argument19FunctionDescription9full_name17he4614ee7c80da060E, symObjAddr: 0x2AB0, symBinAddr: 0x31AD0, symSize: 0x12C }
  - { offset: 0xDC281, size: 0x8, addend: 0x0, symName: __ZN4pyo35impl_7pyclass16lazy_type_object19LazyTypeObjectInner11ensure_init17h286f045efbc1394fE, symObjAddr: 0x316C, symBinAddr: 0x31F24, symSize: 0x7E8 }
  - { offset: 0xDC571, size: 0x8, addend: 0x0, symName: __ZN4pyo35impl_7pyclass16lazy_type_object19LazyTypeObjectInner15get_or_try_init17ha6920bd647e41c74E, symObjAddr: 0x3AA8, symBinAddr: 0x32860, symSize: 0x98 }
  - { offset: 0xDC5E4, size: 0x8, addend: 0x0, symName: __ZN4pyo35types8iterator10PyIterator17from_bound_object17he0ef6d4dca633eb3E, symObjAddr: 0x3E78, symBinAddr: 0x32B50, symSize: 0x5C }
  - { offset: 0xDC620, size: 0x8, addend: 0x0, symName: __ZN4pyo37pyclass18create_type_object13GetSetDefType21create_py_get_set_def17h974f65b30a763d1eE, symObjAddr: 0x4080, symBinAddr: 0x32D58, symSize: 0x1A4 }
  - { offset: 0xDC80E, size: 0x8, addend: 0x0, symName: __ZN4pyo37pyclass18create_type_object13PyTypeBuilder11class_items17h6c59b73ee34d6da7E, symObjAddr: 0x4334, symBinAddr: 0x3300C, symSize: 0x298 }
  - { offset: 0xDC96D, size: 0x8, addend: 0x0, symName: __ZN4pyo37pyclass18create_type_object13PyTypeBuilder12pymethod_def17h878a149a46788ec9E, symObjAddr: 0x45CC, symBinAddr: 0x332A4, symSize: 0x1B4 }
  - { offset: 0xDCA12, size: 0x8, addend: 0x0, symName: __ZN4pyo37pyclass18create_type_object13PyTypeBuilder15set_is_basetype17h7b6df9dd906f9066E, symObjAddr: 0x4780, symBinAddr: 0x33458, symSize: 0x54 }
  - { offset: 0xDCAC3, size: 0x8, addend: 0x0, symName: __ZN4pyo37pyclass18create_type_object13PyTypeBuilder17push_raw_vec_slot17h350c510d86d16e94E, symObjAddr: 0x47D4, symBinAddr: 0x334AC, symSize: 0x194 }
  - { offset: 0xDCCAC, size: 0x8, addend: 0x0, symName: __ZN4pyo37pyclass18create_type_object13PyTypeBuilder17push_raw_vec_slot17h9cd652fc261c1148E, symObjAddr: 0x4968, symBinAddr: 0x33640, symSize: 0x1A8 }
  - { offset: 0xDCE9E, size: 0x8, addend: 0x0, symName: __ZN4pyo37pyclass18create_type_object13PyTypeBuilder17push_raw_vec_slot17hb9ab7d7a504da8caE, symObjAddr: 0x4B10, symBinAddr: 0x337E8, symSize: 0x1A8 }
  - { offset: 0xDD012, size: 0x8, addend: 0x0, symName: __ZN4pyo37pyclass18create_type_object13PyTypeBuilder31finalize_methods_and_properties17h08170faa1e66083dE, symObjAddr: 0x4CB8, symBinAddr: 0x33990, symSize: 0x26C }
  - { offset: 0xDD0F4, size: 0x8, addend: 0x0, symName: __ZN4pyo37pyclass18create_type_object13PyTypeBuilder5build17hf662a4cccc1d8fa7E, symObjAddr: 0x500C, symBinAddr: 0x33CE4, symSize: 0x758 }
  - { offset: 0xDD367, size: 0x8, addend: 0x0, symName: __ZN4pyo37pyclass18create_type_object13PyTypeBuilder7offsets17h1cdfc8aa1bcbdc2dE, symObjAddr: 0x5764, symBinAddr: 0x3443C, symSize: 0x1E4 }
  - { offset: 0xDD426, size: 0x8, addend: 0x0, symName: __ZN4pyo37pyclass18create_type_object13PyTypeBuilder8type_doc17h971691212c4a2770E, symObjAddr: 0x5948, symBinAddr: 0x34620, symSize: 0xE0 }
  - { offset: 0xDD46F, size: 0x8, addend: 0x0, symName: __ZN4pyo37pyclass18create_type_object13PyTypeBuilder9push_slot17h3b51b7174245a1f5E, symObjAddr: 0x5A28, symBinAddr: 0x34700, symSize: 0x10C }
  - { offset: 0xDD4B6, size: 0x8, addend: 0x0, symName: __ZN4pyo37pyclass18create_type_object13PyTypeBuilder9push_slot17h5dc070cec095fc3aE, symObjAddr: 0x5B34, symBinAddr: 0x3480C, symSize: 0x10C }
  - { offset: 0xDD4FD, size: 0x8, addend: 0x0, symName: __ZN4pyo37pyclass18create_type_object13PyTypeBuilder9push_slot17hd687dac900468606E, symObjAddr: 0x5C40, symBinAddr: 0x34918, symSize: 0x10C }
  - { offset: 0xDD55E, size: 0x8, addend: 0x0, symName: __ZN4pyo37pyclass18create_type_object16GetSetDefBuilder10add_getter17h5404161887b25b2fE, symObjAddr: 0x5D4C, symBinAddr: 0x34A24, symSize: 0x64 }
  - { offset: 0xDD59D, size: 0x8, addend: 0x0, symName: __ZN4pyo37pyclass18create_type_object16GetSetDefBuilder10add_setter17hb40cd0af276b5d8dE, symObjAddr: 0x5DB0, symBinAddr: 0x34A88, symSize: 0x64 }
  - { offset: 0xDD5FA, size: 0x8, addend: 0x0, symName: __ZN4pyo37pyclass18create_type_object16GetSetDefBuilder14as_get_set_def17hfd2024c4a99f0c2eE, symObjAddr: 0x5E14, symBinAddr: 0x34AEC, symSize: 0x1F4 }
  - { offset: 0xDDBFF, size: 0x8, addend: 0x0, symName: '__ZN4pyo35types5tuple125_$LT$impl$u20$pyo3..conversion..IntoPy$LT$pyo3..instance..Py$LT$pyo3..types..any..PyAny$GT$$GT$$u20$for$u20$$LP$T0$C$$RP$$GT$7into_py17h71986328dbea590cE', symObjAddr: 0x29DC, symBinAddr: 0x36214, symSize: 0x54 }
  - { offset: 0xDDD43, size: 0x8, addend: 0x0, symName: '__ZN58_$LT$T$u20$as$u20$pyo3..err..err_state..PyErrArguments$GT$9arguments17h39570f6eb894a5f0E', symObjAddr: 0x2F1C, symBinAddr: 0x362D8, symSize: 0x1C }
  - { offset: 0xDDD92, size: 0x8, addend: 0x0, symName: '__ZN58_$LT$T$u20$as$u20$pyo3..err..err_state..PyErrArguments$GT$9arguments17h78f05b9f3849ba7bE', symObjAddr: 0x2F38, symBinAddr: 0x362F4, symSize: 0x1C }
  - { offset: 0xDDFAB, size: 0x8, addend: 0x0, symName: '__ZN102_$LT$pyo3..internal..get_slot..Slot$LT$47_i32$GT$$u20$as$u20$pyo3..internal..get_slot..GetSlotImpl$GT$8get_slot17h6f6b9469a1c141d8E', symObjAddr: 0x2D0, symBinAddr: 0x35594, symSize: 0x74 }
  - { offset: 0xDDFF6, size: 0x8, addend: 0x0, symName: '__ZN102_$LT$pyo3..internal..get_slot..Slot$LT$48_i32$GT$$u20$as$u20$pyo3..internal..get_slot..GetSlotImpl$GT$8get_slot17h75d4b770c4c5ae09E', symObjAddr: 0x344, symBinAddr: 0x35608, symSize: 0x74 }
  - { offset: 0xDE041, size: 0x8, addend: 0x0, symName: '__ZN102_$LT$pyo3..internal..get_slot..Slot$LT$51_i32$GT$$u20$as$u20$pyo3..internal..get_slot..GetSlotImpl$GT$8get_slot17h4edb296c60b973e7E', symObjAddr: 0x3B8, symBinAddr: 0x3567C, symSize: 0x74 }
  - { offset: 0xDE0B5, size: 0x8, addend: 0x0, symName: '__ZN4pyo311conversions3std6string133_$LT$impl$u20$pyo3..conversion..IntoPy$LT$pyo3..instance..Py$LT$pyo3..types..any..PyAny$GT$$GT$$u20$for$u20$alloc..string..String$GT$7into_py17h668147670caf56c8E', symObjAddr: 0x27E0, symBinAddr: 0x36154, symSize: 0x8C }
  - { offset: 0xDE101, size: 0x8, addend: 0x0, symName: '__ZN4pyo311conversions3std6string80_$LT$impl$u20$pyo3..conversion..ToPyObject$u20$for$u20$alloc..string..String$GT$9to_object17h2c8d3421ddad37e6E', symObjAddr: 0x286C, symBinAddr: 0x361E0, symSize: 0x34 }
  - { offset: 0xDFB36, size: 0x8, addend: 0x0, symName: '__ZN102_$LT$core..iter..adapters..map..Map$LT$I$C$F$GT$$u20$as$u20$core..iter..traits..iterator..Iterator$GT$4next17he4e1cb6db4484fb6E', symObjAddr: 0x70, symBinAddr: 0x354BC, symSize: 0xB4 }
  - { offset: 0xDFBD2, size: 0x8, addend: 0x0, symName: '__ZN102_$LT$core..iter..adapters..map..Map$LT$I$C$F$GT$$u20$as$u20$core..iter..traits..iterator..Iterator$GT$9size_hint17h2425e2a7e8ad6e9eE', symObjAddr: 0x21C, symBinAddr: 0x35570, symSize: 0x24 }
  - { offset: 0xDFC8A, size: 0x8, addend: 0x0, symName: __ZN4core4iter6traits8iterator8Iterator3map17h240b59974357b9c3E, symObjAddr: 0x1C44, symBinAddr: 0x35FDC, symSize: 0x50 }
  - { offset: 0xDFCF8, size: 0x8, addend: 0x0, symName: __ZN4core4iter6traits8iterator8Iterator7collect17ha13c6b8adbd1c629E, symObjAddr: 0x1D68, symBinAddr: 0x3602C, symSize: 0x14 }
  - { offset: 0xDFD45, size: 0x8, addend: 0x0, symName: '__ZN63_$LT$I$u20$as$u20$core..iter..traits..collect..IntoIterator$GT$9into_iter17h3d11a5c2f1fe1e33E', symObjAddr: 0x3F38, symBinAddr: 0x37044, symSize: 0x30 }
  - { offset: 0xE0639, size: 0x8, addend: 0x0, symName: '__ZN50_$LT$T$u20$as$u20$core..convert..Into$LT$U$GT$$GT$4into17h0a97e4d5e2b98e39E', symObjAddr: 0x2EAC, symBinAddr: 0x36268, symSize: 0x14 }
  - { offset: 0xE06B5, size: 0x8, addend: 0x0, symName: '__ZN36_$LT$T$u20$as$u20$core..any..Any$GT$7type_id17h4fe6736d4e0f7603E', symObjAddr: 0x538, symBinAddr: 0x35740, symSize: 0x20 }
  - { offset: 0xE0799, size: 0x8, addend: 0x0, symName: __ZN4core3fmt5Write9write_fmt17h2fa3f63f22cebda3E, symObjAddr: 0x143C, symBinAddr: 0x35A84, symSize: 0x24 }
  - { offset: 0xE07E7, size: 0x8, addend: 0x0, symName: '__ZN75_$LT$$RF$mut$u20$W$u20$as$u20$core..fmt..Write..write_fmt..SpecWriteFmt$GT$14spec_write_fmt17h9ddb6360410ca4c9E', symObjAddr: 0x4378, symBinAddr: 0x37288, symSize: 0x13C }
  - { offset: 0xE08E4, size: 0x8, addend: 0x0, symName: '__ZN4core3fmt8builders11DebugStruct10field_with28_$u7b$$u7b$closure$u7d$$u7d$17h0f26406e7a06bf07E', symObjAddr: 0x150C, symBinAddr: 0x35B54, symSize: 0x360 }
  - { offset: 0xE1063, size: 0x8, addend: 0x0, symName: __ZN4core5slice6memchr6memchr17h063d111829f9355eE, symObjAddr: 0x20B0, symBinAddr: 0x36040, symSize: 0x114 }
  - { offset: 0xE138D, size: 0x8, addend: 0x0, symName: __ZN4core4hint16assert_unchecked18precondition_check17h9267faef998a6343E, symObjAddr: 0x1AF4, symBinAddr: 0x35EB4, symSize: 0xA4 }
  - { offset: 0xE13ED, size: 0x8, addend: 0x0, symName: __ZN4core4hint21unreachable_unchecked18precondition_check17hb9e42229fd180243E, symObjAddr: 0x1B98, symBinAddr: 0x35F58, symSize: 0x84 }
  - { offset: 0xE2272, size: 0x8, addend: 0x0, symName: '__ZN45_$LT$T$u20$as$u20$alloc..string..ToString$GT$9to_string17h3fceb6deef177c12E', symObjAddr: 0xA18, symBinAddr: 0x35A60, symSize: 0x24 }
  - { offset: 0xE22CD, size: 0x8, addend: 0x0, symName: '__ZN76_$LT$alloc..string..String$u20$as$u20$core..convert..From$LT$$RF$str$GT$$GT$4from17hd3d13f34067f13a7E', symObjAddr: 0x44B4, symBinAddr: 0x373C4, symSize: 0x50 }
  - { offset: 0xE23BA, size: 0x8, addend: 0x0, symName: '__ZN55_$LT$$RF$str$u20$as$u20$alloc..string..SpecToString$GT$14spec_to_string17h3bedc0d0c248b55eE', symObjAddr: 0x2EC0, symBinAddr: 0x3627C, symSize: 0x5C }
  - { offset: 0xE24E3, size: 0x8, addend: 0x0, symName: '__ZN58_$LT$alloc..string..String$u20$as$u20$core..fmt..Write$GT$10write_char17hf984f188910499f1E', symObjAddr: 0x2F54, symBinAddr: 0x36310, symSize: 0x30 }
  - { offset: 0xE2520, size: 0x8, addend: 0x0, symName: '__ZN58_$LT$alloc..string..String$u20$as$u20$core..fmt..Write$GT$9write_str17h0dbc16193c38d4beE', symObjAddr: 0x2F84, symBinAddr: 0x36340, symSize: 0x38 }
  - { offset: 0xE2581, size: 0x8, addend: 0x0, symName: '__ZN65_$LT$alloc..string..String$u20$as$u20$core..ops..deref..Deref$GT$5deref17h1605412cc170edecE', symObjAddr: 0x400C, symBinAddr: 0x37074, symSize: 0x24 }
  - { offset: 0xE25B5, size: 0x8, addend: 0x0, symName: '__ZN60_$LT$alloc..string..String$u20$as$u20$core..fmt..Display$GT$3fmt17h9ae7c44888ae35c8E', symObjAddr: 0x3E84, symBinAddr: 0x36FC4, symSize: 0x80 }
  - { offset: 0xE271A, size: 0x8, addend: 0x0, symName: '__ZN74_$LT$alloc..string..String$u20$as$u20$core..ops..index..Index$LT$I$GT$$GT$5index17h3b2c93e4fea1e8f4E', symObjAddr: 0x42FC, symBinAddr: 0x3720C, symSize: 0x7C }
  - { offset: 0xE3157, size: 0x8, addend: 0x0, symName: '__ZN77_$LT$alloc..raw_vec..RawVec$LT$T$C$A$GT$$u20$as$u20$core..ops..drop..Drop$GT$4drop17h28e3bb3eb4c96070E', symObjAddr: 0x4504, symBinAddr: 0x37414, symSize: 0x34 }
  - { offset: 0xE3193, size: 0x8, addend: 0x0, symName: '__ZN77_$LT$alloc..raw_vec..RawVec$LT$T$C$A$GT$$u20$as$u20$core..ops..drop..Drop$GT$4drop17h2c18606813410531E', symObjAddr: 0x4538, symBinAddr: 0x37448, symSize: 0x34 }
  - { offset: 0xE31CF, size: 0x8, addend: 0x0, symName: '__ZN77_$LT$alloc..raw_vec..RawVec$LT$T$C$A$GT$$u20$as$u20$core..ops..drop..Drop$GT$4drop17h4069b4476c12da96E', symObjAddr: 0x456C, symBinAddr: 0x3747C, symSize: 0x34 }
  - { offset: 0xE320B, size: 0x8, addend: 0x0, symName: '__ZN77_$LT$alloc..raw_vec..RawVec$LT$T$C$A$GT$$u20$as$u20$core..ops..drop..Drop$GT$4drop17h5da5e3fe2610a753E', symObjAddr: 0x45A0, symBinAddr: 0x374B0, symSize: 0x30 }
  - { offset: 0xE3247, size: 0x8, addend: 0x0, symName: '__ZN77_$LT$alloc..raw_vec..RawVec$LT$T$C$A$GT$$u20$as$u20$core..ops..drop..Drop$GT$4drop17h81154d5c4d3e1d8cE', symObjAddr: 0x45D0, symBinAddr: 0x374E0, symSize: 0x34 }
  - { offset: 0xE3283, size: 0x8, addend: 0x0, symName: '__ZN77_$LT$alloc..raw_vec..RawVec$LT$T$C$A$GT$$u20$as$u20$core..ops..drop..Drop$GT$4drop17h94e3b7971a7dd526E', symObjAddr: 0x4634, symBinAddr: 0x37514, symSize: 0x34 }
  - { offset: 0xE32BF, size: 0x8, addend: 0x0, symName: '__ZN77_$LT$alloc..raw_vec..RawVec$LT$T$C$A$GT$$u20$as$u20$core..ops..drop..Drop$GT$4drop17hc42e757d5d3af88aE', symObjAddr: 0x4668, symBinAddr: 0x37548, symSize: 0x30 }
  - { offset: 0xE32FB, size: 0x8, addend: 0x0, symName: '__ZN77_$LT$alloc..raw_vec..RawVec$LT$T$C$A$GT$$u20$as$u20$core..ops..drop..Drop$GT$4drop17hdea5608ba38a1286E', symObjAddr: 0x4698, symBinAddr: 0x37578, symSize: 0x34 }
  - { offset: 0xE3337, size: 0x8, addend: 0x0, symName: '__ZN77_$LT$alloc..raw_vec..RawVec$LT$T$C$A$GT$$u20$as$u20$core..ops..drop..Drop$GT$4drop17he277b7c000bcec83E', symObjAddr: 0x46CC, symBinAddr: 0x375AC, symSize: 0x34 }
  - { offset: 0xE3373, size: 0x8, addend: 0x0, symName: '__ZN77_$LT$alloc..raw_vec..RawVec$LT$T$C$A$GT$$u20$as$u20$core..ops..drop..Drop$GT$4drop17hf6775a7cd251033fE', symObjAddr: 0x4700, symBinAddr: 0x375E0, symSize: 0x34 }
  - { offset: 0xE345F, size: 0x8, addend: 0x0, symName: '__ZN5alloc3str83_$LT$impl$u20$core..borrow..Borrow$LT$str$GT$$u20$for$u20$alloc..string..String$GT$6borrow17hd39aefedf0fc4e13E', symObjAddr: 0x2FBC, symBinAddr: 0x36378, symSize: 0x2C }
  - { offset: 0xE3703, size: 0x8, addend: 0x0, symName: '__ZN66_$LT$T$u20$as$u20$alloc..ffi..c_str..CString..new..SpecNewImpl$GT$13spec_new_impl17h2941358f599876fcE', symObjAddr: 0x4030, symBinAddr: 0x37098, symSize: 0x174 }
  - { offset: 0xE387A, size: 0x8, addend: 0x0, symName: '__ZN105_$LT$std..collections..hash..map..Iter$LT$K$C$V$GT$$u20$as$u20$core..iter..traits..iterator..Iterator$GT$4next17h475de654387778c9E', symObjAddr: 0x4A0, symBinAddr: 0x356F0, symSize: 0x24 }
  - { offset: 0xE38BA, size: 0x8, addend: 0x0, symName: '__ZN105_$LT$std..collections..hash..map..Iter$LT$K$C$V$GT$$u20$as$u20$core..iter..traits..iterator..Iterator$GT$9size_hint17h3ed496ce97487feeE', symObjAddr: 0x4C4, symBinAddr: 0x35714, symSize: 0x2C }
  - { offset: 0xE4353, size: 0x8, addend: 0x0, symName: '__ZN88_$LT$hashbrown..scopeguard..ScopeGuard$LT$T$C$F$GT$$u20$as$u20$core..ops..drop..Drop$GT$4drop17h1fc0c43d06a3561dE', symObjAddr: 0x47C0, symBinAddr: 0x37614, symSize: 0x2C }
  - { offset: 0xE438D, size: 0x8, addend: 0x0, symName: '__ZN88_$LT$hashbrown..scopeguard..ScopeGuard$LT$T$C$F$GT$$u20$as$u20$core..ops..drop..Drop$GT$4drop17hd0d2ca434d3f5fd9E', symObjAddr: 0x47EC, symBinAddr: 0x37640, symSize: 0x2C }
  - { offset: 0xE45FB, size: 0x8, addend: 0x0, symName: '__ZN3std11collections4hash3map18Entry$LT$K$C$V$GT$10or_default17h739e75055e8f596eE', symObjAddr: 0x558, symBinAddr: 0x35760, symSize: 0x180 }
  - { offset: 0xE481A, size: 0x8, addend: 0x0, symName: '__ZN3std11collections4hash3map20HashMap$LT$K$C$V$GT$3new17he6d851cb1efc106eE', symObjAddr: 0x6D8, symBinAddr: 0x358E0, symSize: 0x7C }
  - { offset: 0xE4934, size: 0x8, addend: 0x0, symName: '__ZN3std11collections4hash3map24HashMap$LT$K$C$V$C$S$GT$3len17h33e932cecc90991fE', symObjAddr: 0x754, symBinAddr: 0x3595C, symSize: 0x18 }
  - { offset: 0xE499D, size: 0x8, addend: 0x0, symName: '__ZN3std11collections4hash3map24HashMap$LT$K$C$V$C$S$GT$4iter17h10d36c4ab6ad7bcaE', symObjAddr: 0x76C, symBinAddr: 0x35974, symSize: 0x44 }
  - { offset: 0xE49E8, size: 0x8, addend: 0x0, symName: '__ZN3std11collections4hash3map24HashMap$LT$K$C$V$C$S$GT$5entry17h8b6f7d36bc266072E', symObjAddr: 0x7B0, symBinAddr: 0x359B8, symSize: 0xA8 }
  - { offset: 0xE4B72, size: 0x8, addend: 0x0, symName: __ZN4core3fmt8builders11DebugStruct10field_with17hb734e24a600944c7E, symObjAddr: 0x1460, symBinAddr: 0x35AA8, symSize: 0xAC }
  - { offset: 0xE4F7A, size: 0x8, addend: 0x0, symName: __ZN5alloc6string6String4push17h54b231309f865e95E, symObjAddr: 0x30C4, symBinAddr: 0x363A4, symSize: 0x114 }
  - { offset: 0xE525B, size: 0x8, addend: 0x0, symName: __ZN5alloc6string6String6as_str17h8a98b9af848e151fE, symObjAddr: 0x31D8, symBinAddr: 0x364B8, symSize: 0x70 }
  - { offset: 0xE5429, size: 0x8, addend: 0x0, symName: __ZN5alloc6string6String8push_str17hbb8e47c5f2fee923E, symObjAddr: 0x326C, symBinAddr: 0x36528, symSize: 0x50 }
  - { offset: 0xE55C0, size: 0x8, addend: 0x0, symName: '__ZN5alloc7raw_vec19RawVec$LT$T$C$A$GT$8grow_one17h270251db623f40b0E', symObjAddr: 0x32BC, symBinAddr: 0x36578, symSize: 0x84 }
  - { offset: 0xE5672, size: 0x8, addend: 0x0, symName: '__ZN5alloc7raw_vec19RawVec$LT$T$C$A$GT$8grow_one17h30a688453a5dcf2eE', symObjAddr: 0x3340, symBinAddr: 0x365FC, symSize: 0x84 }
  - { offset: 0xE5724, size: 0x8, addend: 0x0, symName: '__ZN5alloc7raw_vec19RawVec$LT$T$C$A$GT$8grow_one17h7396bd2ea72cae4aE', symObjAddr: 0x33C4, symBinAddr: 0x36680, symSize: 0x88 }
  - { offset: 0xE57D6, size: 0x8, addend: 0x0, symName: '__ZN5alloc7raw_vec19RawVec$LT$T$C$A$GT$8grow_one17h7d33bc0496feeb1aE', symObjAddr: 0x344C, symBinAddr: 0x36708, symSize: 0x88 }
  - { offset: 0xE58A6, size: 0x8, addend: 0x0, symName: '__ZN5alloc7raw_vec19RawVec$LT$T$C$A$GT$8grow_one17ha50d339bdaae1f03E', symObjAddr: 0x34D4, symBinAddr: 0x36790, symSize: 0x88 }
  - { offset: 0xE5958, size: 0x8, addend: 0x0, symName: '__ZN5alloc7raw_vec19RawVec$LT$T$C$A$GT$8grow_one17he1571c9322af1b80E', symObjAddr: 0x355C, symBinAddr: 0x36818, symSize: 0x88 }
  - { offset: 0xE5A0A, size: 0x8, addend: 0x0, symName: '__ZN5alloc7raw_vec19RawVec$LT$T$C$A$GT$8grow_one17he3ddf947c15d19b1E', symObjAddr: 0x35E4, symBinAddr: 0x368A0, symSize: 0x88 }
  - { offset: 0xE5ABC, size: 0x8, addend: 0x0, symName: '__ZN5alloc7raw_vec19RawVec$LT$T$C$A$GT$8grow_one17hf53907b19fa498efE', symObjAddr: 0x366C, symBinAddr: 0x36928, symSize: 0x88 }
  - { offset: 0xE5C5B, size: 0x8, addend: 0x0, symName: '__ZN5alloc7raw_vec19RawVec$LT$T$C$A$GT$8into_box17h080828d453a4defbE', symObjAddr: 0x36F4, symBinAddr: 0x369B0, symSize: 0x74 }
  - { offset: 0xE5F07, size: 0x8, addend: 0x0, symName: '__ZN5alloc7raw_vec19RawVec$LT$T$C$A$GT$8into_box17h6fef7b7e25c32e3aE', symObjAddr: 0x3768, symBinAddr: 0x36A24, symSize: 0x74 }
  - { offset: 0xE61B3, size: 0x8, addend: 0x0, symName: '__ZN5alloc7raw_vec19RawVec$LT$T$C$A$GT$8into_box17h7028dcb07eb15aefE', symObjAddr: 0x37DC, symBinAddr: 0x36A98, symSize: 0x74 }
  - { offset: 0xE63DA, size: 0x8, addend: 0x0, symName: '__ZN5alloc7raw_vec20RawVecInner$LT$A$GT$13shrink_to_fit17hdfa9c2a7aa3305e2E', symObjAddr: 0x38C0, symBinAddr: 0x36B0C, symSize: 0x118 }
  - { offset: 0xE6559, size: 0x8, addend: 0x0, symName: '__ZN5alloc7raw_vec20RawVecInner$LT$A$GT$14current_memory17h300d8358929cc680E', symObjAddr: 0x3AE4, symBinAddr: 0x36C24, symSize: 0x10C }
  - { offset: 0xE6786, size: 0x8, addend: 0x0, symName: '__ZN5alloc7raw_vec20RawVecInner$LT$A$GT$16shrink_unchecked17h089c69d028c24c15E', symObjAddr: 0x3BF0, symBinAddr: 0x36D30, symSize: 0x294 }
  - { offset: 0xE6DF6, size: 0x8, addend: 0x0, symName: '__ZN4core4iter8adapters7step_by15StepBy$LT$I$GT$3new17h2c735424bc5aa3e4E', symObjAddr: 0x0, symBinAddr: 0x3766C, symSize: 0xE0 }
  - { offset: 0xE6E32, size: 0x8, addend: 0x0, symName: '__ZN9hashbrown3raw21RawTable$LT$T$C$A$GT$14reserve_rehash28_$u7b$$u7b$closure$u7d$$u7d$17hbba8d0d6829d2ae0E', symObjAddr: 0x2310, symBinAddr: 0x390B4, symSize: 0xB8 }
  - { offset: 0xE6FF5, size: 0x8, addend: 0x0, symName: '__ZN9hashbrown3raw21RawTable$LT$T$C$A$GT$4find28_$u7b$$u7b$closure$u7d$$u7d$17h0641e7f649c25718E', symObjAddr: 0x26DC, symBinAddr: 0x39480, symSize: 0xBC }
  - { offset: 0xE77B5, size: 0x8, addend: 0x0, symName: '__ZN79_$LT$hashbrown..raw..RawTable$LT$T$C$A$GT$$u20$as$u20$core..ops..drop..Drop$GT$4drop17ha8fa0db7c849f863E', symObjAddr: 0x22C, symBinAddr: 0x37774, symSize: 0x3C }
  - { offset: 0xE79CA, size: 0x8, addend: 0x0, symName: '__ZN9hashbrown3raw13RawTableInner14prepare_resize28_$u7b$$u7b$closure$u7d$$u7d$17hb8a22e2bbf2dce1bE', symObjAddr: 0x4DC, symBinAddr: 0x379F8, symSize: 0xB0 }
  - { offset: 0xE7B9C, size: 0x8, addend: 0x0, symName: '__ZN9hashbrown3raw13RawTableInner15rehash_in_place28_$u7b$$u7b$closure$u7d$$u7d$17hd90c0ca7a791e930E', symObjAddr: 0xAA0, symBinAddr: 0x37FBC, symSize: 0x1F8 }
  - { offset: 0xE7F9E, size: 0x8, addend: 0x0, symName: __ZN9hashbrown3raw19capacity_to_buckets17hda0a92352c95205bE, symObjAddr: 0x15E4, symBinAddr: 0x38B00, symSize: 0x210 }
  - { offset: 0xEB31A, size: 0x8, addend: 0x0, symName: '__ZN4core5slice29_$LT$impl$u20$$u5b$T$u5d$$GT$4iter17h14b93ccd2d3910e7E', symObjAddr: 0x18C, symBinAddr: 0x3774C, symSize: 0x28 }
  - { offset: 0xEC8FD, size: 0x8, addend: 0x0, symName: '__ZN4core4iter8adapters7step_by15StepBy$LT$I$GT$3new17h2c735424bc5aa3e4E', symObjAddr: 0x0, symBinAddr: 0x3766C, symSize: 0xE0 }
  - { offset: 0xECACB, size: 0x8, addend: 0x0, symName: __ZN9hashbrown3raw11TableLayout20calculate_layout_for17h8a82b3d05e260e6dE, symObjAddr: 0x294, symBinAddr: 0x377B0, symSize: 0x220 }
  - { offset: 0xECE70, size: 0x8, addend: 0x0, symName: __ZN9hashbrown3raw13RawTableInner13drop_elements17hece1b5affe1cdfbaE, symObjAddr: 0x4B4, symBinAddr: 0x379D0, symSize: 0x28 }
  - { offset: 0xED24E, size: 0x8, addend: 0x0, symName: __ZN9hashbrown3raw13RawTableInner15fix_insert_slot17h906b11e8ab77d94fE, symObjAddr: 0x58C, symBinAddr: 0x37AA8, symSize: 0x10C }
  - { offset: 0xED5C6, size: 0x8, addend: 0x0, symName: __ZN9hashbrown3raw13RawTableInner15rehash_in_place17h189542b6a1ce20afE, symObjAddr: 0x698, symBinAddr: 0x37BB4, symSize: 0x408 }
  - { offset: 0xEDE38, size: 0x8, addend: 0x0, symName: __ZN9hashbrown3raw13RawTableInner16drop_inner_table17hba7bc476e822c039E, symObjAddr: 0xC98, symBinAddr: 0x381B4, symSize: 0xB0 }
  - { offset: 0xEE094, size: 0x8, addend: 0x0, symName: __ZN9hashbrown3raw13RawTableInner16find_insert_slot17h4cefda3a9feba14eE, symObjAddr: 0xD48, symBinAddr: 0x38264, symSize: 0xFC }
  - { offset: 0xEE273, size: 0x8, addend: 0x0, symName: __ZN9hashbrown3raw13RawTableInner17new_uninitialized17h1d62cde205fccedcE, symObjAddr: 0xE44, symBinAddr: 0x38360, symSize: 0x1B0 }
  - { offset: 0xEE4A5, size: 0x8, addend: 0x0, symName: __ZN9hashbrown3raw13RawTableInner19prepare_insert_slot17h25b9237c7eb40ef6E, symObjAddr: 0xFF4, symBinAddr: 0x38510, symSize: 0x74 }
  - { offset: 0xEE68F, size: 0x8, addend: 0x0, symName: __ZN9hashbrown3raw13RawTableInner22fallible_with_capacity17h0c0d876a5ac350e9E, symObjAddr: 0x1068, symBinAddr: 0x38584, symSize: 0x220 }
  - { offset: 0xEEB3B, size: 0x8, addend: 0x0, symName: __ZN9hashbrown3raw13RawTableInner23prepare_rehash_in_place17h81459fd05e0c1881E, symObjAddr: 0x1288, symBinAddr: 0x387A4, symSize: 0x218 }
  - { offset: 0xEF171, size: 0x8, addend: 0x0, symName: __ZN9hashbrown3raw13RawTableInner25find_insert_slot_in_group17haf06cacd8c2096b4E, symObjAddr: 0x14A0, symBinAddr: 0x389BC, symSize: 0x144 }
  - { offset: 0xEF2C0, size: 0x8, addend: 0x0, symName: '__ZN9hashbrown3raw21RawIterRange$LT$T$GT$3new17h7124817e08bb9897E', symObjAddr: 0x17F4, symBinAddr: 0x38D10, symSize: 0xA4 }
  - { offset: 0xEF592, size: 0x8, addend: 0x0, symName: '__ZN9hashbrown3raw21RawIterRange$LT$T$GT$9next_impl17hb40437a33dfbbf61E', symObjAddr: 0x1898, symBinAddr: 0x38DB4, symSize: 0x1C0 }
  - { offset: 0xEFA1C, size: 0x8, addend: 0x0, symName: '__ZN9hashbrown3raw21RawTable$LT$T$C$A$GT$14insert_no_grow17h98a569de0b17ce4aE', symObjAddr: 0x1A58, symBinAddr: 0x38F74, symSize: 0x140 }
  - { offset: 0xF0070, size: 0x8, addend: 0x0, symName: '__ZN9hashbrown3raw21RawTable$LT$T$C$A$GT$14reserve_rehash17hb8d0feba8e554555E', symObjAddr: 0x1B98, symBinAddr: 0x8FE98, symSize: 0x778 }
  - { offset: 0xF0CC6, size: 0x8, addend: 0x0, symName: '__ZN9hashbrown3raw21RawTable$LT$T$C$A$GT$4find17h27b1d837207672deE', symObjAddr: 0x23C8, symBinAddr: 0x3916C, symSize: 0x314 }
  - { offset: 0xF12E9, size: 0x8, addend: 0x0, symName: '__ZN9hashbrown3raw21RawTable$LT$T$C$A$GT$7reserve17hb7d3136957c5d5c2E', symObjAddr: 0x2798, symBinAddr: 0x3953C, symSize: 0xB0 }
  - { offset: 0xF13E8, size: 0x8, addend: 0x0, symName: '__ZN100_$LT$core..array..iter..iter_inner..PolymorphicIter$LT$DATA$GT$$u20$as$u20$core..ops..drop..Drop$GT$4drop17h20469c6005cd3bbdE', symObjAddr: 0x0, symBinAddr: 0x395EC, symSize: 0x30 }
  - { offset: 0xF1444, size: 0x8, addend: 0x0, symName: '__ZN45_$LT$T$u20$as$u20$alloc..string..ToString$GT$9to_string17hf9cf809ca3810060E', symObjAddr: 0x1C28, symBinAddr: 0x399D8, symSize: 0x24 }
  - { offset: 0xF1481, size: 0x8, addend: 0x0, symName: '__ZN49_$LT$T$u20$as$u20$alloc..string..SpecToString$GT$14spec_to_string17he3f1fce2a9802ad3E', symObjAddr: 0x1D40, symBinAddr: 0x399FC, symSize: 0xF4 }
  - { offset: 0xF1713, size: 0x8, addend: 0x0, symName: '__ZN64_$LT$alloc..ffi..c_str..NulError$u20$as$u20$core..fmt..Debug$GT$3fmt17hb64e05b1310d3afdE', symObjAddr: 0x558C, symBinAddr: 0x39F04, symSize: 0x5C }
  - { offset: 0xF1753, size: 0x8, addend: 0x0, symName: '__ZN70_$LT$alloc..ffi..c_str..CString$u20$as$u20$core..ops..deref..Deref$GT$5deref17h1ed266ce3d2ca078E', symObjAddr: 0x55E8, symBinAddr: 0x39F60, symSize: 0x20 }
  - { offset: 0xF2BBB, size: 0x8, addend: 0x0, symName: '__ZN100_$LT$core..array..iter..iter_inner..PolymorphicIter$LT$DATA$GT$$u20$as$u20$core..ops..drop..Drop$GT$4drop17h20469c6005cd3bbdE', symObjAddr: 0x0, symBinAddr: 0x395EC, symSize: 0x30 }
  - { offset: 0xF2CF5, size: 0x8, addend: 0x0, symName: '__ZN115_$LT$core..iter..adapters..filter_map..FilterMap$LT$I$C$F$GT$$u20$as$u20$core..iter..traits..iterator..Iterator$GT$4next17h14aea48c1f6e81ffE', symObjAddr: 0x158C, symBinAddr: 0x397A0, symSize: 0x2C }
  - { offset: 0xF2D3C, size: 0x8, addend: 0x0, symName: '__ZN115_$LT$core..iter..adapters..filter_map..FilterMap$LT$I$C$F$GT$$u20$as$u20$core..iter..traits..iterator..Iterator$GT$4next17hbddb2ad6bdf4fc00E', symObjAddr: 0x15B8, symBinAddr: 0x397CC, symSize: 0x2C }
  - { offset: 0xF2D83, size: 0x8, addend: 0x0, symName: '__ZN115_$LT$core..iter..adapters..filter_map..FilterMap$LT$I$C$F$GT$$u20$as$u20$core..iter..traits..iterator..Iterator$GT$9size_hint17h11cdb6d5a153a17aE', symObjAddr: 0x15E4, symBinAddr: 0x397F8, symSize: 0x4C }
  - { offset: 0xF2DE7, size: 0x8, addend: 0x0, symName: '__ZN115_$LT$core..iter..adapters..filter_map..FilterMap$LT$I$C$F$GT$$u20$as$u20$core..iter..traits..iterator..Iterator$GT$9size_hint17h170ab1aee3d3e55dE', symObjAddr: 0x1630, symBinAddr: 0x39844, symSize: 0x4C }
  - { offset: 0xF2F8F, size: 0x8, addend: 0x0, symName: __ZN4core4iter6traits8iterator8Iterator7collect17h0fdef60b9bff3f70E, symObjAddr: 0x1F84, symBinAddr: 0x39AF0, symSize: 0x14 }
  - { offset: 0xF2FD0, size: 0x8, addend: 0x0, symName: __ZN4core4iter6traits8iterator8Iterator7collect17h413f5c5f7bffbe2aE, symObjAddr: 0x1F98, symBinAddr: 0x39B04, symSize: 0x14 }
  - { offset: 0xF304E, size: 0x8, addend: 0x0, symName: '__ZN63_$LT$I$u20$as$u20$core..iter..traits..collect..IntoIterator$GT$9into_iter17h0d9c239acea963d3E', symObjAddr: 0x552C, symBinAddr: 0x39EA4, symSize: 0x30 }
  - { offset: 0xF3086, size: 0x8, addend: 0x0, symName: '__ZN63_$LT$I$u20$as$u20$core..iter..traits..collect..IntoIterator$GT$9into_iter17h4bb94e78e1299fa2E', symObjAddr: 0x555C, symBinAddr: 0x39ED4, symSize: 0x30 }
  - { offset: 0xF310D, size: 0x8, addend: 0x0, symName: '__ZN31_$LT$dyn$u20$core..any..Any$GT$12downcast_ref17h0874f1e65c973c9aE', symObjAddr: 0x1A8C, symBinAddr: 0x39890, symSize: 0xA4 }
  - { offset: 0xF31FE, size: 0x8, addend: 0x0, symName: '__ZN31_$LT$dyn$u20$core..any..Any$GT$12downcast_ref17h4584b1dcb7afaeebE', symObjAddr: 0x1B30, symBinAddr: 0x39934, symSize: 0xA4 }
  - { offset: 0xF3369, size: 0x8, addend: 0x0, symName: '__ZN54_$LT$dyn$u20$core..any..Any$u2b$core..marker..Send$GT$12downcast_ref17hbc4ffabbdaa55acfE', symObjAddr: 0x54C0, symBinAddr: 0x39E38, symSize: 0x2C }
  - { offset: 0xF33A0, size: 0x8, addend: 0x0, symName: '__ZN54_$LT$dyn$u20$core..any..Any$u2b$core..marker..Send$GT$12downcast_ref17hf007cd3b2bbb56c8E', symObjAddr: 0x54EC, symBinAddr: 0x39E64, symSize: 0x2C }
  - { offset: 0xF3E89, size: 0x8, addend: 0x0, symName: '__ZN103_$LT$pyo3..instance..Bound$LT$pyo3..types..any..PyAny$GT$$u20$as$u20$pyo3..types..any..PyAnyMethods$GT$7getattr5inner17h864f8879b907896cE', symObjAddr: 0xED4, symBinAddr: 0x3961C, symSize: 0xA8 }
  - { offset: 0xF3ECC, size: 0x8, addend: 0x0, symName: '__ZN103_$LT$pyo3..instance..Bound$LT$pyo3..types..any..PyAny$GT$$u20$as$u20$pyo3..types..any..PyAnyMethods$GT$7setattr5inner17he63eaf205c2731e4E', symObjAddr: 0x10CC, symBinAddr: 0x396C4, symSize: 0xDC }
  - { offset: 0xF4267, size: 0x8, addend: 0x0, symName: '__ZN4pyo33err5impls94_$LT$impl$u20$pyo3..err..err_state..PyErrArguments$u20$for$u20$alloc..ffi..c_str..NulError$GT$9arguments17h4f8e7f0c108151a5E', symObjAddr: 0x396C, symBinAddr: 0x39C88, symSize: 0x6C }
  - { offset: 0xF4B8E, size: 0x8, addend: 0x0, symName: __ZN8pyo3_ffi10longobject12PyLong_Check17hdb3305110efb4511E, symObjAddr: 0x56A4, symBinAddr: 0x39F80, symSize: 0x30 }
  - { offset: 0xF5433, size: 0x8, addend: 0x0, symName: '__ZN4core5array4iter10iter_inner78PolymorphicIter$LT$$u5b$core..mem..maybe_uninit..MaybeUninit$LT$T$GT$$u5d$$GT$4next17h85da35ceaf78080bE', symObjAddr: 0x2128, symBinAddr: 0x39B18, symSize: 0x170 }
  - { offset: 0xF56EF, size: 0x8, addend: 0x0, symName: __ZN4pyo36marker6Python14get_type_bound17hd34f721992f42e41E, symObjAddr: 0x4938, symBinAddr: 0x39CF4, symSize: 0x1C }
  - { offset: 0xF5727, size: 0x8, addend: 0x0, symName: __ZN4pyo36marker6Python14get_type_bound17hd6b82e11cd172fcdE, symObjAddr: 0x4954, symBinAddr: 0x39D10, symSize: 0x1C }
  - { offset: 0xF575F, size: 0x8, addend: 0x0, symName: __ZN4pyo36marker6Python19assume_gil_acquired17hf7567c2686929ffbE, symObjAddr: 0x4970, symBinAddr: 0x39D2C, symSize: 0x4 }
  - { offset: 0xF5772, size: 0x8, addend: 0x0, symName: __ZN4pyo36marker6Python4None17h860f9471a1ac37bcE, symObjAddr: 0x4974, symBinAddr: 0x39D30, symSize: 0x20 }
  - { offset: 0xF57BB, size: 0x8, addend: 0x0, symName: __ZN4pyo36marker6Python8with_gil17h4f2753d33c251d20E, symObjAddr: 0x4FD4, symBinAddr: 0x39D50, symSize: 0xE8 }
  - { offset: 0xF583E, size: 0x8, addend: 0x0, symName: __ZN5alloc3ffi5c_str7CString3new17hdf2f1d5bb885cd90E, symObjAddr: 0x5518, symBinAddr: 0x39E90, symSize: 0x14 }
  - { offset: 0xF5BB4, size: 0x8, addend: 0x0, symName: '__ZN92_$LT$hashbrown..map..Iter$LT$K$C$V$GT$$u20$as$u20$core..iter..traits..iterator..Iterator$GT$4next17h1e04f147a314c404E', symObjAddr: 0x6334, symBinAddr: 0x39FB0, symSize: 0xE8 }
  - { offset: 0xF5E21, size: 0x8, addend: 0x0, symName: '__ZN9hashbrown3map11make_hasher28_$u7b$$u7b$closure$u7d$$u7d$17h29a80dbcd6527404E', symObjAddr: 0x6568, symBinAddr: 0x3A1C0, symSize: 0x3C }
  - { offset: 0xF611A, size: 0x8, addend: 0x0, symName: '__ZN9hashbrown11rustc_entry62_$LT$impl$u20$hashbrown..map..HashMap$LT$K$C$V$C$S$C$A$GT$$GT$11rustc_entry17h163ebef45e84f1aaE', symObjAddr: 0x6440, symBinAddr: 0x3A098, symSize: 0x128 }
  - { offset: 0xF6337, size: 0x8, addend: 0x0, symName: '__ZN9hashbrown3map28HashMap$LT$K$C$V$C$S$C$A$GT$4iter17h51f3f6448a1f10ecE', symObjAddr: 0x65A4, symBinAddr: 0x3A1FC, symSize: 0xA8 }
  - { offset: 0xF6672, size: 0x8, addend: 0x0, symName: '__ZN45_$LT$T$u20$as$u20$alloc..string..ToString$GT$9to_string17h8da1d6968711f6f6E', symObjAddr: 0x7CC, symBinAddr: 0x3A740, symSize: 0x24 }
  - { offset: 0xF66AF, size: 0x8, addend: 0x0, symName: '__ZN49_$LT$T$u20$as$u20$alloc..string..SpecToString$GT$14spec_to_string17h8dde2ca1ca37282dE', symObjAddr: 0xA20, symBinAddr: 0x3A764, symSize: 0xF4 }
  - { offset: 0xF6E6F, size: 0x8, addend: 0x0, symName: '__ZN4core3ptr7mut_ptr31_$LT$impl$u20$$BP$mut$u20$T$GT$7is_null17h62741a3cb4d3e453E', symObjAddr: 0xC30, symBinAddr: 0x3A858, symSize: 0x18 }
  - { offset: 0xF6FB0, size: 0x8, addend: 0x0, symName: '__ZN4core3ptr9const_ptr33_$LT$impl$u20$$BP$const$u20$T$GT$7is_null17h5cf314ed88e5fd03E', symObjAddr: 0xC48, symBinAddr: 0x3A870, symSize: 0x18 }
  - { offset: 0xF71F2, size: 0x8, addend: 0x0, symName: '__ZN70_$LT$core..num..error..TryFromIntError$u20$as$u20$core..fmt..Debug$GT$3fmt17h20a33b61d4d981f9E', symObjAddr: 0x51FC, symBinAddr: 0x3BE4C, symSize: 0x54 }
  - { offset: 0xF72AF, size: 0x8, addend: 0x0, symName: '__ZN64_$LT$core..str..error..Utf8Error$u20$as$u20$core..fmt..Debug$GT$3fmt17h1cb96f2cb174565aE', symObjAddr: 0x5110, symBinAddr: 0x3BDC4, symSize: 0x88 }
  - { offset: 0xF862B, size: 0x8, addend: 0x0, symName: '__ZN4core5slice4iter87_$LT$impl$u20$core..iter..traits..collect..IntoIterator$u20$for$u20$$RF$$u5b$T$u5d$$GT$9into_iter17h81a25cfbef9db38cE', symObjAddr: 0xC78, symBinAddr: 0x3A888, symSize: 0x50 }
  - { offset: 0xF8768, size: 0x8, addend: 0x0, symName: '__ZN4core5slice4iter87_$LT$impl$u20$core..iter..traits..collect..IntoIterator$u20$for$u20$$RF$$u5b$T$u5d$$GT$9into_iter17h8a6dae1a0913eecaE', symObjAddr: 0xCC8, symBinAddr: 0x3A8D8, symSize: 0x50 }
  - { offset: 0xF8ADB, size: 0x8, addend: 0x0, symName: '__ZN110_$LT$core..iter..adapters..enumerate..Enumerate$LT$I$GT$$u20$as$u20$core..iter..traits..iterator..Iterator$GT$4next17hac050fbaaa62d8aaE', symObjAddr: 0x15C, symBinAddr: 0x3A2A4, symSize: 0xE0 }
  - { offset: 0xF8BC1, size: 0x8, addend: 0x0, symName: '__ZN110_$LT$core..iter..adapters..enumerate..Enumerate$LT$I$GT$$u20$as$u20$core..iter..traits..iterator..Iterator$GT$4next17hbe5a341a846b3176E', symObjAddr: 0x23C, symBinAddr: 0x3A384, symSize: 0xEC }
  - { offset: 0xF8D0D, size: 0x8, addend: 0x0, symName: '__ZN63_$LT$I$u20$as$u20$core..iter..traits..collect..IntoIterator$GT$9into_iter17h4150a8c059aa99bbE', symObjAddr: 0x50CC, symBinAddr: 0x3BD80, symSize: 0x18 }
  - { offset: 0xF8D44, size: 0x8, addend: 0x0, symName: '__ZN63_$LT$I$u20$as$u20$core..iter..traits..collect..IntoIterator$GT$9into_iter17h79caf8dae3bbe6b3E', symObjAddr: 0x50E4, symBinAddr: 0x3BD98, symSize: 0x18 }
  - { offset: 0xF8D7B, size: 0x8, addend: 0x0, symName: '__ZN63_$LT$I$u20$as$u20$core..iter..traits..collect..IntoIterator$GT$9into_iter17he29ed4a18eda928dE', symObjAddr: 0x50FC, symBinAddr: 0x3BDB0, symSize: 0x14 }
  - { offset: 0xF96F8, size: 0x8, addend: 0x0, symName: '__ZN4pyo33err9err_state10PyErrState4lazy28_$u7b$$u7b$closure$u7d$$u7d$17h67d71268c7a102d1E', symObjAddr: 0x251C, symBinAddr: 0x3AD88, symSize: 0x70 }
  - { offset: 0xF9895, size: 0x8, addend: 0x0, symName: __ZN4pyo33err9err_state10raise_lazy17h0f5068da51ca8626E, symObjAddr: 0x269C, symBinAddr: 0x3AF08, symSize: 0x148 }
  - { offset: 0xF9922, size: 0x8, addend: 0x0, symName: '__ZN4pyo33err9err_state20PyErrStateNormalized10ptraceback28_$u7b$$u7b$closure$u7d$$u7d$17h2f25e1816771e9daE', symObjAddr: 0x2814, symBinAddr: 0x3B080, symSize: 0x24 }
  - { offset: 0xF9965, size: 0x8, addend: 0x0, symName: '__ZN4pyo33err9err_state20PyErrStateNormalized4take28_$u7b$$u7b$closure$u7d$$u7d$17h39f3e72950cb9e41E', symObjAddr: 0x285C, symBinAddr: 0x3B0C8, symSize: 0x14 }
  - { offset: 0xF99A9, size: 0x8, addend: 0x0, symName: '__ZN58_$LT$T$u20$as$u20$pyo3..err..err_state..PyErrArguments$GT$9arguments17h6d51a955b58980b5E', symObjAddr: 0x504C, symBinAddr: 0x3BD30, symSize: 0x28 }
  - { offset: 0xF99F7, size: 0x8, addend: 0x0, symName: '__ZN58_$LT$T$u20$as$u20$pyo3..err..err_state..PyErrArguments$GT$9arguments17hcada629eebf9083dE', symObjAddr: 0x5074, symBinAddr: 0x3BD58, symSize: 0x28 }
  - { offset: 0xF9F1F, size: 0x8, addend: 0x0, symName: '__ZN79_$LT$pyo3..types..string..PyString$u20$as$u20$pyo3..type_object..PyTypeInfo$GT$16is_type_of_bound17hab4556660a9ebd50E', symObjAddr: 0x53E4, symBinAddr: 0x3BF2C, symSize: 0x30 }
  - { offset: 0xF9FA3, size: 0x8, addend: 0x0, symName: __ZN4pyo35panic14PanicException15type_object_raw11TYPE_OBJECT17hf72336b647978412E, symObjAddr: 0x39E40, symBinAddr: 0xE10B8, symSize: 0x0 }
  - { offset: 0xF9FB0, size: 0x8, addend: 0x0, symName: '__ZN4pyo35panic14PanicException15type_object_raw28_$u7b$$u7b$closure$u7d$$u7d$17hd7477d3253b2dabaE', symObjAddr: 0x3C14, symBinAddr: 0x3B8A4, symSize: 0xB4 }
  - { offset: 0xFA080, size: 0x8, addend: 0x0, symName: '__ZN77_$LT$pyo3..panic..PanicException$u20$as$u20$pyo3..type_object..PyTypeInfo$GT$15type_object_raw17h19e6d6492c1e0656E', symObjAddr: 0x52EC, symBinAddr: 0x3BEA0, symSize: 0x1C }
  - { offset: 0xFA0EF, size: 0x8, addend: 0x0, symName: '__ZN114_$LT$pyo3..pyclass_init..PyNativeTypeInitializer$LT$T$GT$$u20$as$u20$pyo3..pyclass_init..PyObjectInit$LT$T$GT$$GT$15into_new_object5inner17hdebb823ea88c939fE', symObjAddr: 0x328, symBinAddr: 0x3A470, symSize: 0x21C }
  - { offset: 0xFA292, size: 0x8, addend: 0x0, symName: __ZN4pyo35impl_7pyclass17build_pyclass_doc17h0cc58c533e02f29eE, symObjAddr: 0x34C4, symBinAddr: 0x3B154, symSize: 0x254 }
  - { offset: 0xFA3C6, size: 0x8, addend: 0x0, symName: '__ZN4pyo35impl_7pyclass17build_pyclass_doc28_$u7b$$u7b$closure$u7d$$u7d$17h922336011a4b6840E', symObjAddr: 0x3718, symBinAddr: 0x3B3A8, symSize: 0x64 }
  - { offset: 0xFA401, size: 0x8, addend: 0x0, symName: __ZN4pyo35impl_7pyclass30get_sequence_item_from_mapping17h41f521971c331aa9E, symObjAddr: 0x377C, symBinAddr: 0x3B40C, symSize: 0x218 }
  - { offset: 0xFA4BB, size: 0x8, addend: 0x0, symName: __ZN4pyo35impl_7pyclass33assign_sequence_item_from_mapping17h31f48c8c4c5323f1E, symObjAddr: 0x3994, symBinAddr: 0x3B624, symSize: 0x254 }
  - { offset: 0xFA57C, size: 0x8, addend: 0x0, symName: '__ZN97_$LT$pyo3..impl_..pyclass..PyClassItemsIter$u20$as$u20$core..iter..traits..iterator..Iterator$GT$4next17h509e772fe808f3f6E', symObjAddr: 0x62C8, symBinAddr: 0x3C72C, symSize: 0xD0 }
  - { offset: 0xFAA74, size: 0x8, addend: 0x0, symName: '__ZN79_$LT$pyo3..exceptions..PyTypeError$u20$as$u20$pyo3..type_object..PyTypeInfo$GT$15type_object_raw17h63f2e13eb6c719e9E', symObjAddr: 0x5338, symBinAddr: 0x3BEBC, symSize: 0x24 }
  - { offset: 0xFAAB3, size: 0x8, addend: 0x0, symName: '__ZN79_$LT$pyo3..exceptions..PyTypeError$u20$as$u20$pyo3..type_object..PyTypeInfo$GT$15type_object_raw28_$u7b$$u7b$closure$u7d$$u7d$17h15bc5ae3df921b2aE', symObjAddr: 0x535C, symBinAddr: 0x3BEE0, symSize: 0x4C }
  - { offset: 0xFAB06, size: 0x8, addend: 0x0, symName: '__ZN80_$LT$pyo3..exceptions..PyValueError$u20$as$u20$pyo3..type_object..PyTypeInfo$GT$15type_object_raw17hf613f55d67b79c23E', symObjAddr: 0x5414, symBinAddr: 0x3BF5C, symSize: 0x24 }
  - { offset: 0xFAB45, size: 0x8, addend: 0x0, symName: '__ZN80_$LT$pyo3..exceptions..PyValueError$u20$as$u20$pyo3..type_object..PyTypeInfo$GT$15type_object_raw28_$u7b$$u7b$closure$u7d$$u7d$17hea2716639c2ecfcfE', symObjAddr: 0x5438, symBinAddr: 0x3BF80, symSize: 0x4C }
  - { offset: 0xFAB98, size: 0x8, addend: 0x0, symName: '__ZN81_$LT$pyo3..exceptions..PyImportError$u20$as$u20$pyo3..type_object..PyTypeInfo$GT$15type_object_raw17h11d367ff3b5a4963E', symObjAddr: 0x54B4, symBinAddr: 0x3BFCC, symSize: 0x24 }
  - { offset: 0xFABD7, size: 0x8, addend: 0x0, symName: '__ZN81_$LT$pyo3..exceptions..PyImportError$u20$as$u20$pyo3..type_object..PyTypeInfo$GT$15type_object_raw28_$u7b$$u7b$closure$u7d$$u7d$17h3b61f02b9982b78eE', symObjAddr: 0x54D8, symBinAddr: 0x3BFF0, symSize: 0x4C }
  - { offset: 0xFAC2A, size: 0x8, addend: 0x0, symName: '__ZN82_$LT$pyo3..exceptions..PyRuntimeError$u20$as$u20$pyo3..type_object..PyTypeInfo$GT$15type_object_raw17h91331c0111f4065bE', symObjAddr: 0x5554, symBinAddr: 0x3C03C, symSize: 0x24 }
  - { offset: 0xFAC69, size: 0x8, addend: 0x0, symName: '__ZN82_$LT$pyo3..exceptions..PyRuntimeError$u20$as$u20$pyo3..type_object..PyTypeInfo$GT$15type_object_raw28_$u7b$$u7b$closure$u7d$$u7d$17hef7635b3afa9e83bE', symObjAddr: 0x5578, symBinAddr: 0x3C060, symSize: 0x4C }
  - { offset: 0xFACBC, size: 0x8, addend: 0x0, symName: '__ZN83_$LT$pyo3..exceptions..PyBaseException$u20$as$u20$pyo3..type_object..PyTypeInfo$GT$15type_object_raw17h672ea749827f6a59E', symObjAddr: 0x5634, symBinAddr: 0x3C0AC, symSize: 0x24 }
  - { offset: 0xFACFB, size: 0x8, addend: 0x0, symName: '__ZN83_$LT$pyo3..exceptions..PyBaseException$u20$as$u20$pyo3..type_object..PyTypeInfo$GT$15type_object_raw28_$u7b$$u7b$closure$u7d$$u7d$17h8189abb76c681077E', symObjAddr: 0x5658, symBinAddr: 0x3C0D0, symSize: 0x4C }
  - { offset: 0xFAD48, size: 0x8, addend: 0x0, symName: '__ZN83_$LT$pyo3..exceptions..PyBaseException$u20$as$u20$pyo3..type_object..PyTypeInfo$GT$16is_type_of_bound17h99668387d2345ed0E', symObjAddr: 0x56A4, symBinAddr: 0x3C11C, symSize: 0x30 }
  - { offset: 0xFAD7C, size: 0x8, addend: 0x0, symName: '__ZN83_$LT$pyo3..exceptions..PyOverflowError$u20$as$u20$pyo3..type_object..PyTypeInfo$GT$15type_object_raw17h1ef4cff1d5a667dfE', symObjAddr: 0x56D4, symBinAddr: 0x3C14C, symSize: 0x24 }
  - { offset: 0xFADBB, size: 0x8, addend: 0x0, symName: '__ZN83_$LT$pyo3..exceptions..PyOverflowError$u20$as$u20$pyo3..type_object..PyTypeInfo$GT$15type_object_raw28_$u7b$$u7b$closure$u7d$$u7d$17h16651960f2a746e8E', symObjAddr: 0x56F8, symBinAddr: 0x3C170, symSize: 0x4C }
  - { offset: 0xFAE0E, size: 0x8, addend: 0x0, symName: '__ZN84_$LT$pyo3..exceptions..PyAttributeError$u20$as$u20$pyo3..type_object..PyTypeInfo$GT$15type_object_raw17h56ca61bea6050026E', symObjAddr: 0x5744, symBinAddr: 0x3C1BC, symSize: 0x24 }
  - { offset: 0xFAE4D, size: 0x8, addend: 0x0, symName: '__ZN84_$LT$pyo3..exceptions..PyAttributeError$u20$as$u20$pyo3..type_object..PyTypeInfo$GT$15type_object_raw28_$u7b$$u7b$closure$u7d$$u7d$17hbf7dc5c56e182076E', symObjAddr: 0x5768, symBinAddr: 0x3C1E0, symSize: 0x4C }
  - { offset: 0xFAF2A, size: 0x8, addend: 0x0, symName: __ZN4pyo311type_object10PyTypeInfo17type_object_bound17h1cb700e3667af3a4E, symObjAddr: 0x1C44, symBinAddr: 0x3AA04, symSize: 0x30 }
  - { offset: 0xFAF6A, size: 0x8, addend: 0x0, symName: __ZN4pyo311type_object10PyTypeInfo17type_object_bound17h58de426d783430e8E, symObjAddr: 0x1D04, symBinAddr: 0x3AA34, symSize: 0x30 }
  - { offset: 0xFAFAA, size: 0x8, addend: 0x0, symName: __ZN4pyo311type_object10PyTypeInfo17type_object_bound17h594108d8d70d97bdE, symObjAddr: 0x1D34, symBinAddr: 0x3AA64, symSize: 0x30 }
  - { offset: 0xFAFEA, size: 0x8, addend: 0x0, symName: __ZN4pyo311type_object10PyTypeInfo17type_object_bound17h9fafdc6d3e45183fE, symObjAddr: 0x1E84, symBinAddr: 0x3AA94, symSize: 0x30 }
  - { offset: 0xFB02A, size: 0x8, addend: 0x0, symName: __ZN4pyo311type_object10PyTypeInfo17type_object_bound17hb86ab6fea67f1f0fE, symObjAddr: 0x1F74, symBinAddr: 0x3AAC4, symSize: 0x30 }
  - { offset: 0xFB06A, size: 0x8, addend: 0x0, symName: __ZN4pyo311type_object10PyTypeInfo17type_object_bound17hd0616a78de48a276E, symObjAddr: 0x1FA4, symBinAddr: 0x3AAF4, symSize: 0x30 }
  - { offset: 0xFB0AA, size: 0x8, addend: 0x0, symName: __ZN4pyo311type_object10PyTypeInfo17type_object_bound17hd5eea2167c748a67E, symObjAddr: 0x1FD4, symBinAddr: 0x3AB24, symSize: 0x30 }
  - { offset: 0xFB0EA, size: 0x8, addend: 0x0, symName: __ZN4pyo311type_object10PyTypeInfo17type_object_bound17hddd4a1c3534418f5E, symObjAddr: 0x2004, symBinAddr: 0x3AB54, symSize: 0x30 }
  - { offset: 0xFB130, size: 0x8, addend: 0x0, symName: '__ZN52_$LT$T$u20$as$u20$pyo3..type_object..PyTypeCheck$GT$10type_check17h83fd571e12acb341E', symObjAddr: 0x4F64, symBinAddr: 0x3BCE8, symSize: 0x24 }
  - { offset: 0xFB165, size: 0x8, addend: 0x0, symName: '__ZN52_$LT$T$u20$as$u20$pyo3..type_object..PyTypeCheck$GT$10type_check17hd215402e1bfde10aE', symObjAddr: 0x4FAC, symBinAddr: 0x3BD0C, symSize: 0x24 }
  - { offset: 0xFB1A1, size: 0x8, addend: 0x0, symName: __ZN4pyo315internal_tricks12ptr_from_ref17h0692e52d4d19046aE, symObjAddr: 0x2034, symBinAddr: 0x3AB84, symSize: 0x14 }
  - { offset: 0xFB1D6, size: 0x8, addend: 0x0, symName: __ZN4pyo315internal_tricks12ptr_from_ref17h0e9cac6f2fb32bd5E, symObjAddr: 0x205C, symBinAddr: 0x3AB98, symSize: 0x14 }
  - { offset: 0xFB20B, size: 0x8, addend: 0x0, symName: __ZN4pyo315internal_tricks12ptr_from_ref17h1661266fd331e7f2E, symObjAddr: 0x2070, symBinAddr: 0x3ABAC, symSize: 0x14 }
  - { offset: 0xFB240, size: 0x8, addend: 0x0, symName: __ZN4pyo315internal_tricks12ptr_from_ref17h21adc5ccfe6e7a32E, symObjAddr: 0x2084, symBinAddr: 0x3ABC0, symSize: 0x14 }
  - { offset: 0xFB275, size: 0x8, addend: 0x0, symName: __ZN4pyo315internal_tricks12ptr_from_ref17h2f63f516a5584430E, symObjAddr: 0x20C0, symBinAddr: 0x3ABD4, symSize: 0x14 }
  - { offset: 0xFB2AA, size: 0x8, addend: 0x0, symName: __ZN4pyo315internal_tricks12ptr_from_ref17h3bd7178d10af675aE, symObjAddr: 0x20D4, symBinAddr: 0x3ABE8, symSize: 0x14 }
  - { offset: 0xFB2DF, size: 0x8, addend: 0x0, symName: __ZN4pyo315internal_tricks12ptr_from_ref17h676f7efc53c6ba65E, symObjAddr: 0x2110, symBinAddr: 0x3ABFC, symSize: 0x14 }
  - { offset: 0xFB314, size: 0x8, addend: 0x0, symName: __ZN4pyo315internal_tricks12ptr_from_ref17h90d8c904ea01fcbcE, symObjAddr: 0x2138, symBinAddr: 0x3AC10, symSize: 0x14 }
  - { offset: 0xFB349, size: 0x8, addend: 0x0, symName: __ZN4pyo315internal_tricks12ptr_from_ref17h9345195ad5f69caeE, symObjAddr: 0x214C, symBinAddr: 0x3AC24, symSize: 0x14 }
  - { offset: 0xFB37E, size: 0x8, addend: 0x0, symName: __ZN4pyo315internal_tricks12ptr_from_ref17h98a1df4d0a0c560aE, symObjAddr: 0x2160, symBinAddr: 0x3AC38, symSize: 0x14 }
  - { offset: 0xFB3B3, size: 0x8, addend: 0x0, symName: __ZN4pyo315internal_tricks12ptr_from_ref17ha563d1f4e7d57f91E, symObjAddr: 0x2174, symBinAddr: 0x3AC4C, symSize: 0x14 }
  - { offset: 0xFB3E8, size: 0x8, addend: 0x0, symName: __ZN4pyo315internal_tricks12ptr_from_ref17hce6f571356324e76E, symObjAddr: 0x219C, symBinAddr: 0x3AC60, symSize: 0x14 }
  - { offset: 0xFB41D, size: 0x8, addend: 0x0, symName: __ZN4pyo315internal_tricks12ptr_from_ref17hcf147b7ea1ab154fE, symObjAddr: 0x21B0, symBinAddr: 0x3AC74, symSize: 0x14 }
  - { offset: 0xFB452, size: 0x8, addend: 0x0, symName: __ZN4pyo315internal_tricks12ptr_from_ref17hdce1d2652a9b308dE, symObjAddr: 0x21C4, symBinAddr: 0x3AC88, symSize: 0x14 }
  - { offset: 0xFB487, size: 0x8, addend: 0x0, symName: __ZN4pyo315internal_tricks12ptr_from_ref17hec5040e71de35656E, symObjAddr: 0x21D8, symBinAddr: 0x3AC9C, symSize: 0x14 }
  - { offset: 0xFB4C7, size: 0x8, addend: 0x0, symName: '__ZN87_$LT$$BP$mut$u20$pyo3_ffi..object..PyObject$u20$as$u20$pyo3..ffi_ptr_ext..FfiPtrExt$GT$12assume_owned17hf6d588421b46cbbaE', symObjAddr: 0x5A88, symBinAddr: 0x3C2A0, symSize: 0x24 }
  - { offset: 0xFB50C, size: 0x8, addend: 0x0, symName: '__ZN87_$LT$$BP$mut$u20$pyo3_ffi..object..PyObject$u20$as$u20$pyo3..ffi_ptr_ext..FfiPtrExt$GT$15assume_borrowed17h87cc2c3a5b3c3736E', symObjAddr: 0x5AAC, symBinAddr: 0x3C2C4, symSize: 0x24 }
  - { offset: 0xFB551, size: 0x8, addend: 0x0, symName: '__ZN87_$LT$$BP$mut$u20$pyo3_ffi..object..PyObject$u20$as$u20$pyo3..ffi_ptr_ext..FfiPtrExt$GT$19assume_owned_or_err17hf6f3277211759881E', symObjAddr: 0x5AD0, symBinAddr: 0x3C2E8, symSize: 0x24 }
  - { offset: 0xFB596, size: 0x8, addend: 0x0, symName: '__ZN87_$LT$$BP$mut$u20$pyo3_ffi..object..PyObject$u20$as$u20$pyo3..ffi_ptr_ext..FfiPtrExt$GT$19assume_owned_or_opt17h1e6a300da6a3626fE', symObjAddr: 0x5AF4, symBinAddr: 0x3C30C, symSize: 0x24 }
  - { offset: 0xFB5DB, size: 0x8, addend: 0x0, symName: '__ZN87_$LT$$BP$mut$u20$pyo3_ffi..object..PyObject$u20$as$u20$pyo3..ffi_ptr_ext..FfiPtrExt$GT$25assume_borrowed_unchecked17h42965827c095355bE', symObjAddr: 0x5B3C, symBinAddr: 0x3C330, symSize: 0x24 }
  - { offset: 0xFB72F, size: 0x8, addend: 0x0, symName: __ZN8pyo3_ffi6object12PyType_Check17h4abc90bf686c132aE, symObjAddr: 0x5C70, symBinAddr: 0x3C384, symSize: 0x30 }
  - { offset: 0xFB75D, size: 0x8, addend: 0x0, symName: __ZN8pyo3_ffi6object17PyType_HasFeature17h01e54f7762cacf8cE, symObjAddr: 0x5CA0, symBinAddr: 0x3C3B4, symSize: 0x88 }
  - { offset: 0xFB79A, size: 0x8, addend: 0x0, symName: __ZN8pyo3_ffi6object18PyObject_TypeCheck17h73bb081903191081E, symObjAddr: 0x5D34, symBinAddr: 0x3C43C, symSize: 0x74 }
  - { offset: 0xFB7D7, size: 0x8, addend: 0x0, symName: __ZN8pyo3_ffi6object19PyType_FastSubclass17hc10bdf03b38d332dE, symObjAddr: 0x5DA8, symBinAddr: 0x3C4B0, symSize: 0x28 }
  - { offset: 0xFB814, size: 0x8, addend: 0x0, symName: __ZN8pyo3_ffi6object7Py_None17ha65bac8d4805c223E, symObjAddr: 0x5DD0, symBinAddr: 0x3C4D8, symSize: 0xC }
  - { offset: 0xFB832, size: 0x8, addend: 0x0, symName: __ZN8pyo3_ffi6object7Py_SIZE17h8b5dc8a7c0c18dc4E, symObjAddr: 0x5DDC, symBinAddr: 0x3C4E4, symSize: 0x1D4 }
  - { offset: 0xFB8E0, size: 0x8, addend: 0x0, symName: __ZN8pyo3_ffi6object7Py_TYPE17h7e730bd56b737aa4E, symObjAddr: 0x5FB0, symBinAddr: 0x3C6B8, symSize: 0x74 }
  - { offset: 0xFC024, size: 0x8, addend: 0x0, symName: __ZN8pyo3_ffi13unicodeobject15PyUnicode_Check17hf48c2b552d6e611bE, symObjAddr: 0x5C40, symBinAddr: 0x3C354, symSize: 0x30 }
  - { offset: 0xFC5BE, size: 0x8, addend: 0x0, symName: '__ZN84_$LT$std..sys..sync..once_box..OnceBox$LT$T$GT$$u20$as$u20$core..ops..drop..Drop$GT$4drop17hfbdda9b07f20b92eE', symObjAddr: 0x57B4, symBinAddr: 0x3C22C, symSize: 0x74 }
  - { offset: 0xFC903, size: 0x8, addend: 0x0, symName: '__ZN3std3sys4sync8once_box16OnceBox$LT$T$GT$10initialize17h49a68c0bc111cf1eE', symObjAddr: 0x61C, symBinAddr: 0x90610, symSize: 0xD8 }
  - { offset: 0xFCADA, size: 0x8, addend: 0x0, symName: '__ZN3std3sys4sync8once_box16OnceBox$LT$T$GT$11get_or_init17h81a8b49be88b61c6E', symObjAddr: 0x6F4, symBinAddr: 0x3A68C, symSize: 0xB4 }
  - { offset: 0xFCF43, size: 0x8, addend: 0x0, symName: __ZN4pyo310exceptions11PyTypeError7new_err17h0940d22d61145a66E, symObjAddr: 0xD18, symBinAddr: 0x3A928, symSize: 0x14 }
  - { offset: 0xFCF6F, size: 0x8, addend: 0x0, symName: __ZN4pyo310exceptions11PyTypeError7new_err17h39b9b5c0ce46c4ebE, symObjAddr: 0xD2C, symBinAddr: 0x3A93C, symSize: 0x14 }
  - { offset: 0xFCF9B, size: 0x8, addend: 0x0, symName: __ZN4pyo310exceptions11PyTypeError7new_err17h49a234b7797b6ce9E, symObjAddr: 0xD40, symBinAddr: 0x3A950, symSize: 0x28 }
  - { offset: 0xFCFC6, size: 0x8, addend: 0x0, symName: __ZN4pyo310exceptions12PyValueError7new_err17h7e81c3d47b5676adE, symObjAddr: 0xDD8, symBinAddr: 0x3A978, symSize: 0x14 }
  - { offset: 0xFCFF2, size: 0x8, addend: 0x0, symName: __ZN4pyo310exceptions12PyValueError7new_err17hdc6bf3f7c0121277E, symObjAddr: 0xE28, symBinAddr: 0x3A98C, symSize: 0x28 }
  - { offset: 0xFD01D, size: 0x8, addend: 0x0, symName: __ZN4pyo310exceptions13PyImportError7new_err17h1fb12ad5622e4f36E, symObjAddr: 0xE6C, symBinAddr: 0x3A9B4, symSize: 0x28 }
  - { offset: 0xFD048, size: 0x8, addend: 0x0, symName: __ZN4pyo310exceptions14PyRuntimeError7new_err17ha44c27af2eaf1357E, symObjAddr: 0xE94, symBinAddr: 0x3A9DC, symSize: 0x14 }
  - { offset: 0xFD074, size: 0x8, addend: 0x0, symName: __ZN4pyo310exceptions15PyOverflowError7new_err17h42dcb6408ef34fc0E, symObjAddr: 0xECC, symBinAddr: 0x3A9F0, symSize: 0x14 }
  - { offset: 0xFD0BE, size: 0x8, addend: 0x0, symName: __ZN4pyo33err9err_state10PyErrState10normalized17h2d3e54ced9e52b74E, symObjAddr: 0x2444, symBinAddr: 0x3ACB0, symSize: 0x3C }
  - { offset: 0xFD0ED, size: 0x8, addend: 0x0, symName: __ZN4pyo33err9err_state10PyErrState4lazy17hca4c46bb3400d047E, symObjAddr: 0x2480, symBinAddr: 0x3ACEC, symSize: 0x9C }
  - { offset: 0xFD143, size: 0x8, addend: 0x0, symName: __ZN4pyo33err9err_state10PyErrState7restore17h99e83ec78dc06644E, symObjAddr: 0x258C, symBinAddr: 0x3ADF8, symSize: 0x84 }
  - { offset: 0xFD1B9, size: 0x8, addend: 0x0, symName: __ZN4pyo33err9err_state10PyErrState9normalize17hf4c1fa74a22d203cE, symObjAddr: 0x2610, symBinAddr: 0x3AE7C, symSize: 0x8C }
  - { offset: 0xFD23C, size: 0x8, addend: 0x0, symName: __ZN4pyo33err9err_state20PyErrStateNormalized10ptraceback17h3d20a5fc3badfae4E, symObjAddr: 0x27E4, symBinAddr: 0x3B050, symSize: 0x30 }
  - { offset: 0xFD277, size: 0x8, addend: 0x0, symName: __ZN4pyo33err9err_state20PyErrStateNormalized4take17h1fcd702dbe711fddE, symObjAddr: 0x2838, symBinAddr: 0x3B0A4, symSize: 0x24 }
  - { offset: 0xFD2A4, size: 0x8, addend: 0x0, symName: __ZN4pyo33err9err_state20PyErrStateNormalized5ptype17h2ae45a68ad291889E, symObjAddr: 0x2870, symBinAddr: 0x3B0DC, symSize: 0x2C }
  - { offset: 0xFD2DF, size: 0x8, addend: 0x0, symName: __ZN4pyo33err9err_state20PyErrStateNormalized9clone_ref17h6c1aacad49d14d6eE, symObjAddr: 0x289C, symBinAddr: 0x3B108, symSize: 0x24 }
  - { offset: 0xFD327, size: 0x8, addend: 0x0, symName: __ZN4pyo35impl_7pyclass16PyClassItemsIter3new17h5a3285e1e01ba1c5E, symObjAddr: 0x31B0, symBinAddr: 0x3B12C, symSize: 0x28 }
  - { offset: 0xFD39C, size: 0x8, addend: 0x0, symName: __ZN4pyo35panic14PanicException15type_object_raw17hf210e2f938e2913bE, symObjAddr: 0x3BE8, symBinAddr: 0x3B878, symSize: 0x2C }
  - { offset: 0xFD3F9, size: 0x8, addend: 0x0, symName: __ZN4pyo35panic14PanicException18from_panic_payload17h4b1ca28dcef724d9E, symObjAddr: 0x3CC8, symBinAddr: 0x906E8, symSize: 0x144 }
  - { offset: 0xFD458, size: 0x8, addend: 0x0, symName: __ZN4pyo35panic14PanicException7new_err17h9885cabff65cdd7cE, symObjAddr: 0x3E0C, symBinAddr: 0x3B958, symSize: 0x28 }
  - { offset: 0xFD496, size: 0x8, addend: 0x0, symName: __ZN4pyo35panic14PanicException7new_err17hb79507644d1fbd6dE, symObjAddr: 0x3E34, symBinAddr: 0x3B980, symSize: 0x14 }
  - { offset: 0xFD4C2, size: 0x8, addend: 0x0, symName: __ZN4pyo35types10typeobject6PyType22from_borrowed_type_ptr17hf5f77ca00d9754f1E, symObjAddr: 0x3E48, symBinAddr: 0x3B994, symSize: 0x34 }
  - { offset: 0xFD4FD, size: 0x8, addend: 0x0, symName: __ZN4pyo35types6string8PyString12intern_bound17h7eba61edfcf81673E, symObjAddr: 0x47EC, symBinAddr: 0x3B9C8, symSize: 0x8C }
  - { offset: 0xFD59C, size: 0x8, addend: 0x0, symName: __ZN4pyo35types6string8PyString9new_bound17hd47d244245fe6610E, symObjAddr: 0x492C, symBinAddr: 0x3BA54, symSize: 0x68 }
  - { offset: 0xFD645, size: 0x8, addend: 0x0, symName: __ZN4pyo35types8function11PyCFunction12internal_new17h39343c42c0e70e53E, symObjAddr: 0x4B6C, symBinAddr: 0x3BABC, symSize: 0x22C }
  - { offset: 0xFDAC7, size: 0x8, addend: 0x0, symName: '__ZN100_$LT$core..iter..adapters..take..Take$LT$I$GT$$u20$as$u20$core..iter..traits..iterator..Iterator$GT$4next17h5fe8784fd7ad0ec8E', symObjAddr: 0x0, symBinAddr: 0x3C7FC, symSize: 0x58 }
  - { offset: 0xFDCF9, size: 0x8, addend: 0x0, symName: __ZN4pyo311conversions3std3num20err_if_invalid_value17h599773950ee56d93E, symObjAddr: 0x2818, symBinAddr: 0x3E564, symSize: 0xC8 }
  - { offset: 0xFDD78, size: 0x8, addend: 0x0, symName: __ZN4pyo311conversions3std3num20err_if_invalid_value17h8907b875079c4b42E, symObjAddr: 0x28E0, symBinAddr: 0x3E62C, symSize: 0xC8 }
  - { offset: 0xFDDFC, size: 0x8, addend: 0x0, symName: '__ZN4pyo311conversions3std3num62_$LT$impl$u20$pyo3..conversion..ToPyObject$u20$for$u20$i32$GT$9to_object17he682796df48b706aE', symObjAddr: 0x2A48, symBinAddr: 0x3E6F4, symSize: 0x34 }
  - { offset: 0xFDE47, size: 0x8, addend: 0x0, symName: '__ZN4pyo311conversions3std3num63_$LT$impl$u20$pyo3..conversion..FromPyObject$u20$for$u20$u8$GT$13extract_bound17hd1f19edda939252fE', symObjAddr: 0x2C38, symBinAddr: 0x3E728, symSize: 0xAC }
  - { offset: 0xFDEB2, size: 0x8, addend: 0x0, symName: '__ZN4pyo311conversions3std3num63_$LT$impl$u20$pyo3..conversion..FromPyObject$u20$for$u20$u8$GT$13extract_bound28_$u7b$$u7b$closure$u7d$$u7d$17hfd3624d39b9bd5b6E', symObjAddr: 0x2CE4, symBinAddr: 0x3E7D4, symSize: 0x38 }
  - { offset: 0xFDF01, size: 0x8, addend: 0x0, symName: '__ZN4pyo311conversions3std3num64_$LT$impl$u20$pyo3..conversion..FromPyObject$u20$for$u20$i32$GT$13extract_bound17h03b39146b4bf700cE', symObjAddr: 0x2DFC, symBinAddr: 0x3E80C, symSize: 0xA8 }
  - { offset: 0xFDF6C, size: 0x8, addend: 0x0, symName: '__ZN4pyo311conversions3std3num64_$LT$impl$u20$pyo3..conversion..FromPyObject$u20$for$u20$i32$GT$13extract_bound28_$u7b$$u7b$closure$u7d$$u7d$17he0bb2050648b7449E', symObjAddr: 0x2EA4, symBinAddr: 0x3E8B4, symSize: 0x38 }
  - { offset: 0xFDFBB, size: 0x8, addend: 0x0, symName: '__ZN4pyo311conversions3std3num64_$LT$impl$u20$pyo3..conversion..FromPyObject$u20$for$u20$u64$GT$13extract_bound17h32452c90e129f14bE', symObjAddr: 0x317C, symBinAddr: 0x3E8EC, symSize: 0x1C0 }
  - { offset: 0xFE052, size: 0x8, addend: 0x0, symName: '__ZN4pyo311conversions3std3num66_$LT$impl$u20$pyo3..conversion..FromPyObject$u20$for$u20$usize$GT$13extract_bound17h0ad43b8edfa179e8E', symObjAddr: 0x3478, symBinAddr: 0x3EAAC, symSize: 0x8C }
  - { offset: 0xFE0BD, size: 0x8, addend: 0x0, symName: '__ZN4pyo311conversions3std3num66_$LT$impl$u20$pyo3..conversion..FromPyObject$u20$for$u20$usize$GT$13extract_bound28_$u7b$$u7b$closure$u7d$$u7d$17hbb300227d29f1b02E', symObjAddr: 0x3504, symBinAddr: 0x3EB38, symSize: 0x38 }
  - { offset: 0xFFAAC, size: 0x8, addend: 0x0, symName: __ZN4core3ptr10swap_chunk17h09d6205e13acf370E, symObjAddr: 0xFC4, symBinAddr: 0x3D284, symSize: 0x3C }
  - { offset: 0xFFAE5, size: 0x8, addend: 0x0, symName: __ZN4core3ptr10swap_chunk17h1112d0ac770588feE, symObjAddr: 0x1000, symBinAddr: 0x3D2C0, symSize: 0x3C }
  - { offset: 0xFFB1E, size: 0x8, addend: 0x0, symName: __ZN4core3ptr10swap_chunk17h229040da18b4e669E, symObjAddr: 0x103C, symBinAddr: 0x3D2FC, symSize: 0x3C }
  - { offset: 0xFFB57, size: 0x8, addend: 0x0, symName: __ZN4core3ptr10swap_chunk17ha50cdce9d148a677E, symObjAddr: 0x1078, symBinAddr: 0x3D338, symSize: 0x3C }
  - { offset: 0xFFB95, size: 0x8, addend: 0x0, symName: __ZN4core3ptr11write_bytes18precondition_check17hcae76ea8cafe70caE, symObjAddr: 0x10B4, symBinAddr: 0x3D374, symSize: 0x16C }
  - { offset: 0xFFD46, size: 0x8, addend: 0x0, symName: __ZN4core3ptr14read_unaligned17h8e3a048f17f82162E, symObjAddr: 0x1220, symBinAddr: 0x3D4E0, symSize: 0x9C }
  - { offset: 0xFFE91, size: 0x8, addend: 0x0, symName: __ZN4core3ptr15write_unaligned17h878b67b2754f001aE, symObjAddr: 0x12BC, symBinAddr: 0x3D57C, symSize: 0x78 }
  - { offset: 0xFFF1C, size: 0x8, addend: 0x0, symName: __ZN4core3ptr19copy_nonoverlapping18precondition_check17he095ba5d3c030598E, symObjAddr: 0x1334, symBinAddr: 0x3D5F4, symSize: 0x358 }
  - { offset: 0x1002C1, size: 0x8, addend: 0x0, symName: __ZN4core3ptr19swap_nonoverlapping18precondition_check17haf9fe932829cacf7E, symObjAddr: 0x1808, symBinAddr: 0x3DA08, symSize: 0x378 }
  - { offset: 0x10059C, size: 0x8, addend: 0x0, symName: __ZN4core3ptr19swap_nonoverlapping17h5fa755f1f6831cf6E, symObjAddr: 0x168C, symBinAddr: 0x3D94C, symSize: 0xBC }
  - { offset: 0x100788, size: 0x8, addend: 0x0, symName: __ZN4core3ptr25swap_nonoverlapping_bytes17h0d09399a4a28cc67E, symObjAddr: 0x1B98, symBinAddr: 0x3DD80, symSize: 0xD8 }
  - { offset: 0x100931, size: 0x8, addend: 0x0, symName: __ZN4core3ptr25swap_nonoverlapping_bytes25swap_nonoverlapping_short17h3479a6ca9e2b5445E, symObjAddr: 0x1C70, symBinAddr: 0x3DE58, symSize: 0x11C }
  - { offset: 0x100ABD, size: 0x8, addend: 0x0, symName: __ZN4core3ptr25swap_nonoverlapping_bytes26swap_nonoverlapping_chunks17h98554d27c440b770E, symObjAddr: 0x1D8C, symBinAddr: 0x3DF74, symSize: 0xC0 }
  - { offset: 0x100C40, size: 0x8, addend: 0x0, symName: __ZN4core3ptr4copy18precondition_check17hd8fc7ec0c6eaea99E, symObjAddr: 0x1E4C, symBinAddr: 0x3E034, symSize: 0x240 }
  - { offset: 0x100E87, size: 0x8, addend: 0x0, symName: '__ZN4core3ptr52_$LT$impl$u20$core..cmp..PartialEq$u20$for$u20$F$GT$2eq17h3d57c114f5981a40E', symObjAddr: 0x208C, symBinAddr: 0x3E274, symSize: 0x50 }
  - { offset: 0x100ED3, size: 0x8, addend: 0x0, symName: __ZN4core3ptr7replace18precondition_check17ha30481d1016445e8E, symObjAddr: 0x2148, symBinAddr: 0x3E2C4, symSize: 0x16C }
  - { offset: 0x1020B3, size: 0x8, addend: 0x0, symName: '__ZN100_$LT$core..iter..adapters..take..Take$LT$I$GT$$u20$as$u20$core..iter..traits..iterator..Iterator$GT$4next17h5fe8784fd7ad0ec8E', symObjAddr: 0x0, symBinAddr: 0x3C7FC, symSize: 0x58 }
  - { offset: 0x1020E8, size: 0x8, addend: 0x0, symName: '__ZN100_$LT$core..iter..adapters..take..Take$LT$I$GT$$u20$as$u20$core..iter..traits..iterator..Iterator$GT$4next17h980ebf4163fab556E', symObjAddr: 0x58, symBinAddr: 0x3C854, symSize: 0x58 }
  - { offset: 0x10211D, size: 0x8, addend: 0x0, symName: '__ZN100_$LT$core..iter..adapters..take..Take$LT$I$GT$$u20$as$u20$core..iter..traits..iterator..Iterator$GT$9size_hint17had6e121a01f2245eE', symObjAddr: 0xB0, symBinAddr: 0x3C8AC, symSize: 0x100 }
  - { offset: 0x10234D, size: 0x8, addend: 0x0, symName: __ZN4core4iter6traits8iterator8Iterator3zip17h9c34b95b036e96c1E, symObjAddr: 0x22B4, symBinAddr: 0x3E430, symSize: 0xB0 }
  - { offset: 0x1023CF, size: 0x8, addend: 0x0, symName: '__ZN63_$LT$I$u20$as$u20$core..iter..traits..collect..IntoIterator$GT$9into_iter17ha13dfb33e9dc7432E', symObjAddr: 0x38A4, symBinAddr: 0x3EB70, symSize: 0x18 }
  - { offset: 0x102B2C, size: 0x8, addend: 0x0, symName: '__ZN118_$LT$$u5b$core..mem..maybe_uninit..MaybeUninit$LT$T$GT$$u5d$$u20$as$u20$core..array..iter..iter_inner..PartialDrop$GT$12partial_drop17h85c60f5e754d5bc7E', symObjAddr: 0x204, symBinAddr: 0x3C9AC, symSize: 0xA0 }
  - { offset: 0x102C2C, size: 0x8, addend: 0x0, symName: '__ZN129_$LT$$u5b$core..mem..maybe_uninit..MaybeUninit$LT$T$GT$$u3b$$u20$N$u5d$$u20$as$u20$core..array..iter..iter_inner..PartialDrop$GT$12partial_drop17h99974526a1ef1addE', symObjAddr: 0x2F0, symBinAddr: 0x3CA4C, symSize: 0x4C }
  - { offset: 0x1031C6, size: 0x8, addend: 0x0, symName: __ZN4core9core_arch10arm_shared4neon9generated13vget_lane_u6417h38406ec582be5acfE, symObjAddr: 0x2508, symBinAddr: 0x3E4E0, symSize: 0x18 }
  - { offset: 0x1031F5, size: 0x8, addend: 0x0, symName: __ZN4core9core_arch10arm_shared4neon9generated18vreinterpret_s8_u817h54e36221357d4298E, symObjAddr: 0x2520, symBinAddr: 0x3E4F8, symSize: 0xC }
  - { offset: 0x103223, size: 0x8, addend: 0x0, symName: __ZN4core9core_arch10arm_shared4neon9generated19vreinterpret_u64_u817h6d3b20cf4d4314ccE, symObjAddr: 0x252C, symBinAddr: 0x3E504, symSize: 0xC }
  - { offset: 0x103251, size: 0x8, addend: 0x0, symName: __ZN4core9core_arch10arm_shared4neon9generated7vceq_u817h7ae2e0cf9e08de8aE, symObjAddr: 0x2538, symBinAddr: 0x3E510, symSize: 0x14 }
  - { offset: 0x10328E, size: 0x8, addend: 0x0, symName: __ZN4core9core_arch10arm_shared4neon9generated7vorr_u817h04ad0e238fd3bf0aE, symObjAddr: 0x254C, symBinAddr: 0x3E524, symSize: 0x14 }
  - { offset: 0x1032CB, size: 0x8, addend: 0x0, symName: __ZN4core9core_arch10arm_shared4neon9generated9vdup_n_u817h28ff6af530ab3968E, symObjAddr: 0x2560, symBinAddr: 0x3E538, symSize: 0x2C }
  - { offset: 0x103B08, size: 0x8, addend: 0x0, symName: __ZN8pyo3_ffi12methodobject17PyCFunction_NewEx17hee722ebdb805bc01E, symObjAddr: 0x3AB4, symBinAddr: 0x3EBD8, symSize: 0x38 }
  - { offset: 0x103C04, size: 0x8, addend: 0x0, symName: __ZN8pyo3_ffi11floatobject13PyFloat_Check17hfd5a80ff354098acE, symObjAddr: 0x38E0, symBinAddr: 0x3EBAC, symSize: 0x2C }
  - { offset: 0x1040CB, size: 0x8, addend: 0x0, symName: '__ZN9once_cell3imp17OnceCell$LT$T$GT$10initialize28_$u7b$$u7b$closure$u7d$$u7d$17ha6186b655c589fc7E', symObjAddr: 0x4524, symBinAddr: 0x3EC10, symSize: 0x1AC }
  - { offset: 0x104259, size: 0x8, addend: 0x0, symName: '__ZN9once_cell4sync17OnceCell$LT$T$GT$11get_or_init28_$u7b$$u7b$closure$u7d$$u7d$17hc149cc09fea090deE', symObjAddr: 0x48A4, symBinAddr: 0x3EF90, symSize: 0x44 }
  - { offset: 0x1042B9, size: 0x8, addend: 0x0, symName: '__ZN9once_cell4sync17Lazy$LT$T$C$F$GT$5force28_$u7b$$u7b$closure$u7d$$u7d$17h25600ef5f90717d5E', symObjAddr: 0x47FC, symBinAddr: 0x3EEE8, symSize: 0x74 }
  - { offset: 0x104462, size: 0x8, addend: 0x0, symName: '__ZN78_$LT$once_cell..sync..Lazy$LT$T$C$F$GT$$u20$as$u20$core..ops..deref..Deref$GT$5deref17h5fa8f60c840c2c37E', symObjAddr: 0x38BC, symBinAddr: 0x3EB88, symSize: 0x24 }
  - { offset: 0x104C7E, size: 0x8, addend: 0x0, symName: __ZN3std5panic12catch_unwind17h2f63bff0650ed7c8E, symObjAddr: 0x33C, symBinAddr: 0x3CA98, symSize: 0xB8 }
  - { offset: 0x104D10, size: 0x8, addend: 0x0, symName: __ZN3std5panic12catch_unwind17h7c4df0f1d6366aaeE, symObjAddr: 0x3F4, symBinAddr: 0x3CB50, symSize: 0xBC }
  - { offset: 0x104DC2, size: 0x8, addend: 0x0, symName: __ZN3std5panic12catch_unwind17h8e538beea29cc295E, symObjAddr: 0x4B0, symBinAddr: 0x3CC0C, symSize: 0xBC }
  - { offset: 0x104E74, size: 0x8, addend: 0x0, symName: __ZN3std5panic12catch_unwind17h9401505c8e3476b9E, symObjAddr: 0x56C, symBinAddr: 0x3CCC8, symSize: 0xA8 }
  - { offset: 0x104F06, size: 0x8, addend: 0x0, symName: __ZN3std5panic12catch_unwind17h95f664e64de1a7e4E, symObjAddr: 0x614, symBinAddr: 0x3CD70, symSize: 0xBC }
  - { offset: 0x104FB8, size: 0x8, addend: 0x0, symName: __ZN3std5panic12catch_unwind17hf6fdf0435d1fd1e3E, symObjAddr: 0x6D0, symBinAddr: 0x3CE2C, symSize: 0xB8 }
  - { offset: 0x105522, size: 0x8, addend: 0x0, symName: '__ZN3std6thread5local17LocalKey$LT$T$GT$4with17hafa7324318dabaf8E', symObjAddr: 0x870, symBinAddr: 0x3CEE4, symSize: 0x50 }
  - { offset: 0x1055DB, size: 0x8, addend: 0x0, symName: '__ZN3std6thread5local17LocalKey$LT$T$GT$8try_with17h18e83e0b9489a1e5E', symObjAddr: 0x908, symBinAddr: 0x3CF34, symSize: 0xE8 }
  - { offset: 0x105771, size: 0x8, addend: 0x0, symName: '__ZN3std6thread5local17LocalKey$LT$T$GT$8try_with17h22585ac99c349164E', symObjAddr: 0x9F0, symBinAddr: 0x3D01C, symSize: 0xD0 }
  - { offset: 0x1058F3, size: 0x8, addend: 0x0, symName: '__ZN3std6thread5local17LocalKey$LT$T$GT$8try_with17hb2f66ed33722e3ccE', symObjAddr: 0xC7C, symBinAddr: 0x3D0EC, symSize: 0xCC }
  - { offset: 0x105A74, size: 0x8, addend: 0x0, symName: '__ZN3std6thread5local17LocalKey$LT$T$GT$8try_with17hf84152e527cff6bfE', symObjAddr: 0xEF8, symBinAddr: 0x3D1B8, symSize: 0xCC }
  - { offset: 0x105F9C, size: 0x8, addend: 0x0, symName: '__ZN9once_cell3imp17OnceCell$LT$T$GT$10initialize17h0618a87d65645c49E', symObjAddr: 0x44A0, symBinAddr: 0x9082C, symSize: 0x84 }
  - { offset: 0x106058, size: 0x8, addend: 0x0, symName: '__ZN9once_cell3imp17OnceCell$LT$T$GT$13get_unchecked17hdef2f9f1cecafb14E', symObjAddr: 0x46D0, symBinAddr: 0x3EDBC, symSize: 0xAC }
  - { offset: 0x1060A0, size: 0x8, addend: 0x0, symName: '__ZN9once_cell3imp17OnceCell$LT$T$GT$14is_initialized17hc97cbcc2f67816ddE', symObjAddr: 0x477C, symBinAddr: 0x3EE68, symSize: 0x30 }
  - { offset: 0x1060CB, size: 0x8, addend: 0x0, symName: '__ZN9once_cell4sync17Lazy$LT$T$C$F$GT$3get17h79bd02a640ace4ebE', symObjAddr: 0x47AC, symBinAddr: 0x3EE98, symSize: 0x24 }
  - { offset: 0x106100, size: 0x8, addend: 0x0, symName: '__ZN9once_cell4sync17Lazy$LT$T$C$F$GT$5force17hf135747f61686b2eE', symObjAddr: 0x47D0, symBinAddr: 0x3EEBC, symSize: 0x2C }
  - { offset: 0x106142, size: 0x8, addend: 0x0, symName: '__ZN9once_cell4sync17OnceCell$LT$T$GT$11get_or_init17hcbba23283b9d8fcdE', symObjAddr: 0x4870, symBinAddr: 0x3EF5C, symSize: 0x34 }
  - { offset: 0x106186, size: 0x8, addend: 0x0, symName: '__ZN9once_cell4sync17OnceCell$LT$T$GT$13get_unchecked17hd19a6806dd5cfcc5E', symObjAddr: 0x48E8, symBinAddr: 0x3EFD4, symSize: 0x24 }
  - { offset: 0x1061B2, size: 0x8, addend: 0x0, symName: '__ZN9once_cell4sync17OnceCell$LT$T$GT$15get_or_try_init17h88da94d7687d8ee9E', symObjAddr: 0x490C, symBinAddr: 0x3EFF8, symSize: 0x128 }
  - { offset: 0x106215, size: 0x8, addend: 0x0, symName: '__ZN9once_cell4sync17OnceCell$LT$T$GT$3get17he848218dc00d6b28E', symObjAddr: 0x4A34, symBinAddr: 0x3F120, symSize: 0x4C }
  - { offset: 0x106995, size: 0x8, addend: 0x0, symName: '__ZN4core3ptr9const_ptr33_$LT$impl$u20$$BP$const$u20$T$GT$20offset_from_unsigned18precondition_check17hdb9f064c1cf3378aE', symObjAddr: 0x534, symBinAddr: 0x3F3C8, symSize: 0xAC }
  - { offset: 0x106A93, size: 0x8, addend: 0x0, symName: '__ZN4core3ptr9const_ptr33_$LT$impl$u20$$BP$const$u20$T$GT$6offset18precondition_check17hd746902bd01396b5E', symObjAddr: 0x5E0, symBinAddr: 0x3F474, symSize: 0x110 }
  - { offset: 0x106CBE, size: 0x8, addend: 0x0, symName: '__ZN4core3ptr9const_ptr33_$LT$impl$u20$$BP$const$u20$T$GT$7is_null17h592ee2c705222b34E', symObjAddr: 0x6F0, symBinAddr: 0x3F584, symSize: 0x18 }
  - { offset: 0x106D08, size: 0x8, addend: 0x0, symName: '__ZN4core3ptr9const_ptr33_$LT$impl$u20$$BP$const$u20$T$GT$7is_null17h8fee0687416ff817E', symObjAddr: 0x708, symBinAddr: 0x3F59C, symSize: 0x18 }
  - { offset: 0x1070D9, size: 0x8, addend: 0x0, symName: '__ZN4core3str21_$LT$impl$u20$str$GT$3len17hee805032be417e16E', symObjAddr: 0x904, symBinAddr: 0x3F5B4, symSize: 0x1C }
  - { offset: 0x108334, size: 0x8, addend: 0x0, symName: '__ZN50_$LT$T$u20$as$u20$core..convert..Into$LT$U$GT$$GT$4into17he87886fbb05f46e1E', symObjAddr: 0x66FC, symBinAddr: 0x419B0, symSize: 0x14 }
  - { offset: 0x108435, size: 0x8, addend: 0x0, symName: '__ZN4core3fmt3num52_$LT$impl$u20$core..fmt..Debug$u20$for$u20$usize$GT$3fmt17h1214cde5cc466ec2E', symObjAddr: 0x4A4, symBinAddr: 0x3F338, symSize: 0x90 }
  - { offset: 0x108863, size: 0x8, addend: 0x0, symName: __ZN4core4hash11BuildHasher8hash_one17h6095b022f2267bd0E, symObjAddr: 0xB74, symBinAddr: 0x3F5D0, symSize: 0x84 }
  - { offset: 0x1088CE, size: 0x8, addend: 0x0, symName: __ZN4core4hash6Hasher11write_usize17hf1e423ddaa9dad70E, symObjAddr: 0xBF8, symBinAddr: 0x3F654, symSize: 0x3C }
  - { offset: 0x10892E, size: 0x8, addend: 0x0, symName: __ZN4core4hash6Hasher19write_length_prefix17hd3bba72ca8cab05dE, symObjAddr: 0xC34, symBinAddr: 0x3F690, symSize: 0x28 }
  - { offset: 0x108C57, size: 0x8, addend: 0x0, symName: '__ZN4pyo33err5PyErr3new28_$u7b$$u7b$closure$u7d$$u7d$17h210f9c723306f5b9E', symObjAddr: 0x433C, symBinAddr: 0x40B5C, symSize: 0xD4 }
  - { offset: 0x108CB0, size: 0x8, addend: 0x0, symName: '__ZN4pyo33err5PyErr3new28_$u7b$$u7b$closure$u7d$$u7d$17h375f1a53c8f7a134E', symObjAddr: 0x45A0, symBinAddr: 0x40C30, symSize: 0xC0 }
  - { offset: 0x108D08, size: 0x8, addend: 0x0, symName: '__ZN4pyo33err5PyErr3new28_$u7b$$u7b$closure$u7d$$u7d$17h3cb043cbfe03c9fcE', symObjAddr: 0x4660, symBinAddr: 0x40CF0, symSize: 0xD4 }
  - { offset: 0x108D61, size: 0x8, addend: 0x0, symName: '__ZN4pyo33err5PyErr3new28_$u7b$$u7b$closure$u7d$$u7d$17h4d0f8f128a38d900E', symObjAddr: 0x4950, symBinAddr: 0x40DC4, symSize: 0xC0 }
  - { offset: 0x108DB9, size: 0x8, addend: 0x0, symName: '__ZN4pyo33err5PyErr3new28_$u7b$$u7b$closure$u7d$$u7d$17h505871d1073beb25E', symObjAddr: 0x4A10, symBinAddr: 0x40E84, symSize: 0xD4 }
  - { offset: 0x108E12, size: 0x8, addend: 0x0, symName: '__ZN4pyo33err5PyErr3new28_$u7b$$u7b$closure$u7d$$u7d$17h850cf467d8b7aefaE', symObjAddr: 0x4EA8, symBinAddr: 0x40F58, symSize: 0xC0 }
  - { offset: 0x108E6A, size: 0x8, addend: 0x0, symName: '__ZN4pyo33err5PyErr3new28_$u7b$$u7b$closure$u7d$$u7d$17h938be45c92aa9b0bE', symObjAddr: 0x5018, symBinAddr: 0x41018, symSize: 0xD4 }
  - { offset: 0x108EC3, size: 0x8, addend: 0x0, symName: '__ZN4pyo33err5PyErr3new28_$u7b$$u7b$closure$u7d$$u7d$17ha93afa460c2c8c4fE', symObjAddr: 0x50EC, symBinAddr: 0x410EC, symSize: 0xD4 }
  - { offset: 0x108F1C, size: 0x8, addend: 0x0, symName: '__ZN4pyo33err5PyErr3new28_$u7b$$u7b$closure$u7d$$u7d$17hbd10fe3e18b463e0E', symObjAddr: 0x5344, symBinAddr: 0x411C0, symSize: 0xD4 }
  - { offset: 0x108F75, size: 0x8, addend: 0x0, symName: '__ZN4pyo33err5PyErr3new28_$u7b$$u7b$closure$u7d$$u7d$17hed714550fad9eb52E', symObjAddr: 0x57C8, symBinAddr: 0x41294, symSize: 0xC0 }
  - { offset: 0x108FD3, size: 0x8, addend: 0x0, symName: '__ZN4pyo33err5PyErr14new_type_bound28_$u7b$$u7b$closure$u7d$$u7d$17h31117edb7abb382cE', symObjAddr: 0x236C, symBinAddr: 0x400E8, symSize: 0x50 }
  - { offset: 0x109019, size: 0x8, addend: 0x0, symName: '__ZN4pyo33err5PyErr5_take28_$u7b$$u7b$closure$u7d$$u7d$17h5a71ff5f84296a19E', symObjAddr: 0x5CE8, symBinAddr: 0x41574, symSize: 0x7C }
  - { offset: 0x109052, size: 0x8, addend: 0x0, symName: '__ZN4pyo33err5PyErr5_take28_$u7b$$u7b$closure$u7d$$u7d$17hb912f26946fd2fd7E', symObjAddr: 0x5D64, symBinAddr: 0x415F0, symSize: 0x64 }
  - { offset: 0x10909C, size: 0x8, addend: 0x0, symName: '__ZN4pyo33err5PyErr9set_cause28_$u7b$$u7b$closure$u7d$$u7d$17h2dc96245bb07ba74E', symObjAddr: 0x60DC, symBinAddr: 0x4193C, symSize: 0x28 }
  - { offset: 0x109BE0, size: 0x8, addend: 0x0, symName: __ZN4pyo33err17error_on_minusone17h07380b102f5cd438E, symObjAddr: 0x12DC, symBinAddr: 0x3F890, symSize: 0xC0 }
  - { offset: 0x109C32, size: 0x8, addend: 0x0, symName: __ZN4pyo33err17error_on_minusone17h425a65786702d981E, symObjAddr: 0x139C, symBinAddr: 0x3F950, symSize: 0xC0 }
  - { offset: 0x109C84, size: 0x8, addend: 0x0, symName: __ZN4pyo33err17error_on_minusone17h8f55cb0d08b5c1e2E, symObjAddr: 0x145C, symBinAddr: 0x3FA10, symSize: 0xC0 }
  - { offset: 0x109CD6, size: 0x8, addend: 0x0, symName: __ZN4pyo33err17panic_after_error17he89a5179df3bab4fE, symObjAddr: 0x151C, symBinAddr: 0x3FAD0, symSize: 0x34 }
  - { offset: 0x109D16, size: 0x8, addend: 0x0, symName: '__ZN4pyo33err5impls101_$LT$impl$u20$core..convert..From$LT$alloc..ffi..c_str..NulError$GT$$u20$for$u20$pyo3..err..PyErr$GT$4from17hb55851892997f568E', symObjAddr: 0x6104, symBinAddr: 0x41964, symSize: 0x14 }
  - { offset: 0x109D4A, size: 0x8, addend: 0x0, symName: '__ZN53_$LT$pyo3..err..PyErr$u20$as$u20$core..fmt..Debug$GT$3fmt17hdafb0803803e8360E', symObjAddr: 0x6710, symBinAddr: 0x419C4, symSize: 0x38 }
  - { offset: 0x109D8C, size: 0x8, addend: 0x0, symName: '__ZN53_$LT$pyo3..err..PyErr$u20$as$u20$core..fmt..Debug$GT$3fmt28_$u7b$$u7b$closure$u7d$$u7d$17h10c02326af1d92e5E', symObjAddr: 0x6748, symBinAddr: 0x419FC, symSize: 0x16C }
  - { offset: 0x109DF1, size: 0x8, addend: 0x0, symName: '__ZN88_$LT$pyo3..err..PyErr$u20$as$u20$core..convert..From$LT$pyo3..err..DowncastError$GT$$GT$4from17hf2c4398b7b8a0cadE', symObjAddr: 0x6E74, symBinAddr: 0x41C80, symSize: 0xD8 }
  - { offset: 0x109E44, size: 0x8, addend: 0x0, symName: '__ZN92_$LT$pyo3..err..PyDowncastErrorArguments$u20$as$u20$pyo3..err..err_state..PyErrArguments$GT$9arguments17hd7dd34833e9ca415E', symObjAddr: 0x700C, symBinAddr: 0x41DE8, symSize: 0x228 }
  - { offset: 0x109F2E, size: 0x8, addend: 0x0, symName: '__ZN92_$LT$pyo3..err..PyErr$u20$as$u20$core..convert..From$LT$pyo3..err..DowncastIntoError$GT$$GT$4from17hf3b26c3e1f68eb22E', symObjAddr: 0x7234, symBinAddr: 0x42010, symSize: 0xE4 }
  - { offset: 0x10A408, size: 0x8, addend: 0x0, symName: '__ZN4pyo311conversions3std6string119_$LT$impl$u20$pyo3..conversion..IntoPy$LT$pyo3..instance..Py$LT$pyo3..types..any..PyAny$GT$$GT$$u20$for$u20$$RF$str$GT$7into_py17he8457f15e09235d4E', symObjAddr: 0xD94, symBinAddr: 0x3F6B8, symSize: 0x34 }
  - { offset: 0x10A453, size: 0x8, addend: 0x0, symName: '__ZN4pyo311conversions3std6string125_$LT$impl$u20$pyo3..conversion..IntoPy$LT$pyo3..instance..Py$LT$pyo3..types..string..PyString$GT$$GT$$u20$for$u20$$RF$str$GT$7into_py17hbabae61442a5f9e1E', symObjAddr: 0xDC8, symBinAddr: 0x3F6EC, symSize: 0x34 }
  - { offset: 0x10A4C1, size: 0x8, addend: 0x0, symName: '__ZN4pyo36pycell101_$LT$impl$u20$core..convert..From$LT$pyo3..pycell..PyBorrowError$GT$$u20$for$u20$pyo3..err..PyErr$GT$4from17hbd2c8fab26258f1dE', symObjAddr: 0x6664, symBinAddr: 0x41978, symSize: 0x38 }
  - { offset: 0x10A7CA, size: 0x8, addend: 0x0, symName: '__ZN3std3sys4sync5mutex7pthread5Mutex3get28_$u7b$$u7b$closure$u7d$$u7d$17h418edd48137c7cd5E', symObjAddr: 0xF4, symBinAddr: 0x3F1C0, symSize: 0xF4 }
  - { offset: 0x10A91C, size: 0x8, addend: 0x0, symName: '__ZN3std4hash6random11RandomState3new28_$u7b$$u7b$closure$u7d$$u7d$17h402092b925d56bbaE', symObjAddr: 0x1E8, symBinAddr: 0x3F2B4, symSize: 0x2C }
  - { offset: 0x10A9D8, size: 0x8, addend: 0x0, symName: __ZN3std4hash6random11RandomState3new4KEYS27__rust_std_internal_init_fn17he46628dcc4a04002E, symObjAddr: 0x214, symBinAddr: 0x3F2E0, symSize: 0x24 }
  - { offset: 0x10A9FA, size: 0x8, addend: 0x0, symName: '__ZN3std4hash6random11RandomState3new4KEYS29_$u7b$$u7b$constant$u7d$$u7d$28_$u7b$$u7b$closure$u7d$$u7d$17hc237a7b1cd07468dE', symObjAddr: 0x238, symBinAddr: 0x3F304, symSize: 0x34 }
  - { offset: 0x10AA47, size: 0x8, addend: 0x0, symName: '__ZN71_$LT$std..hash..random..DefaultHasher$u20$as$u20$core..hash..Hasher$GT$5write17hd59d5dd59794885eE', symObjAddr: 0x6D5C, symBinAddr: 0x41B68, symSize: 0x2C }
  - { offset: 0x10AAA1, size: 0x8, addend: 0x0, symName: '__ZN71_$LT$std..hash..random..DefaultHasher$u20$as$u20$core..hash..Hasher$GT$6finish17h3e7e9bc0d7e09c80E', symObjAddr: 0x6D88, symBinAddr: 0x41B94, symSize: 0x20 }
  - { offset: 0x10AAEF, size: 0x8, addend: 0x0, symName: '__ZN74_$LT$std..hash..random..RandomState$u20$as$u20$core..hash..BuildHasher$GT$12build_hasher17hd6c20432a9e8576aE', symObjAddr: 0x6DA8, symBinAddr: 0x41BB4, symSize: 0xCC }
  - { offset: 0x10B3CF, size: 0x8, addend: 0x0, symName: __ZN8pyo3_ffi8pyerrors22PyExceptionClass_Check17h10cbbdb75c597872E, symObjAddr: 0x6F7C, symBinAddr: 0x41D58, symSize: 0x60 }
  - { offset: 0x10B3FB, size: 0x8, addend: 0x0, symName: __ZN8pyo3_ffi8pyerrors25PyExceptionInstance_Check17h68608503423bbd9bE, symObjAddr: 0x6FDC, symBinAddr: 0x41DB8, symSize: 0x30 }
  - { offset: 0x10BC5A, size: 0x8, addend: 0x0, symName: __ZN4pyo33err13DowncastError3new17h8ed245f010424548E, symObjAddr: 0x116C, symBinAddr: 0x3F720, symSize: 0xB0 }
  - { offset: 0x10BC93, size: 0x8, addend: 0x0, symName: __ZN4pyo33err17DowncastIntoError10into_inner17hf0e817eeeb912724E, symObjAddr: 0x121C, symBinAddr: 0x3F7D0, symSize: 0x28 }
  - { offset: 0x10BCB6, size: 0x8, addend: 0x0, symName: __ZN4pyo33err17DowncastIntoError3new17h79ff0e7166f95021E, symObjAddr: 0x1244, symBinAddr: 0x3F7F8, symSize: 0x98 }
  - { offset: 0x10BD0B, size: 0x8, addend: 0x0, symName: __ZN4pyo33err5PyErr10from_state17h29bc0d2cabe1628fE, symObjAddr: 0x1714, symBinAddr: 0x3FB04, symSize: 0x44 }
  - { offset: 0x10BD4C, size: 0x8, addend: 0x0, symName: __ZN4pyo33err5PyErr10into_value17h9984e95b82cb80a9E, symObjAddr: 0x1758, symBinAddr: 0x3FB48, symSize: 0x128 }
  - { offset: 0x10BDDA, size: 0x8, addend: 0x0, symName: __ZN4pyo33err5PyErr10normalized17h21231acae4134305E, symObjAddr: 0x1880, symBinAddr: 0x3FC70, symSize: 0xCC }
  - { offset: 0x10BE3B, size: 0x8, addend: 0x0, symName: __ZN4pyo33err5PyErr11value_bound17h93275c742471dfa4E, symObjAddr: 0x1A98, symBinAddr: 0x3FD3C, symSize: 0x28 }
  - { offset: 0x10BE79, size: 0x8, addend: 0x0, symName: __ZN4pyo33err5PyErr14get_type_bound17hc8a2e6a3c44d1dcbE, symObjAddr: 0x1AC0, symBinAddr: 0x3FD64, symSize: 0x28 }
  - { offset: 0x10BEB7, size: 0x8, addend: 0x0, symName: __ZN4pyo33err5PyErr14is_instance_of17h28ac6b360ea4e3d1E, symObjAddr: 0x1AE8, symBinAddr: 0x3FD8C, symSize: 0x84 }
  - { offset: 0x10BF0B, size: 0x8, addend: 0x0, symName: __ZN4pyo33err5PyErr14new_type_bound17hc14918ed90496709E, symObjAddr: 0x2094, symBinAddr: 0x3FE10, symSize: 0x2D8 }
  - { offset: 0x10C0C4, size: 0x8, addend: 0x0, symName: __ZN4pyo33err5PyErr15make_normalized17hc1bc974f7314bee3E, symObjAddr: 0x23BC, symBinAddr: 0x908B0, symSize: 0x22C }
  - { offset: 0x10C14C, size: 0x8, addend: 0x0, symName: __ZN4pyo33err5PyErr15traceback_bound17h709f87ae56d55c6cE, symObjAddr: 0x25E8, symBinAddr: 0x40138, symSize: 0x28 }
  - { offset: 0x10C18A, size: 0x8, addend: 0x0, symName: __ZN4pyo33err5PyErr16from_value_bound17h82fafa9dfdc1259dE, symObjAddr: 0x2610, symBinAddr: 0x40160, symSize: 0x1A0 }
  - { offset: 0x10C22D, size: 0x8, addend: 0x0, symName: __ZN4pyo33err5PyErr17is_instance_bound17h6c4b54cdff74d068E, symObjAddr: 0x27B0, symBinAddr: 0x40300, symSize: 0xA0 }
  - { offset: 0x10C29D, size: 0x8, addend: 0x0, symName: __ZN4pyo33err5PyErr22print_panic_and_unwind17h39c8a070d0a98901E, symObjAddr: 0x2C6C, symBinAddr: 0x403A0, symSize: 0x180 }
  - { offset: 0x10C30A, size: 0x8, addend: 0x0, symName: __ZN4pyo33err5PyErr22write_unraisable_bound17h22e44fa7d37b19deE, symObjAddr: 0x2DEC, symBinAddr: 0x40520, symSize: 0x34 }
  - { offset: 0x10C365, size: 0x8, addend: 0x0, symName: __ZN4pyo33err5PyErr3new17h279d5d34326cd5d6E, symObjAddr: 0x3178, symBinAddr: 0x40554, symSize: 0x98 }
  - { offset: 0x10C3C3, size: 0x8, addend: 0x0, symName: __ZN4pyo33err5PyErr3new17h2cf90921874bd9daE, symObjAddr: 0x328C, symBinAddr: 0x405EC, symSize: 0x9C }
  - { offset: 0x10C422, size: 0x8, addend: 0x0, symName: __ZN4pyo33err5PyErr3new17h613f1f17b81258d5E, symObjAddr: 0x3544, symBinAddr: 0x40688, symSize: 0x9C }
  - { offset: 0x10C481, size: 0x8, addend: 0x0, symName: __ZN4pyo33err5PyErr3new17h6a49fdafb92d19bfE, symObjAddr: 0x3800, symBinAddr: 0x40724, symSize: 0x9C }
  - { offset: 0x10C4E0, size: 0x8, addend: 0x0, symName: __ZN4pyo33err5PyErr3new17h848696653f6a81b8E, symObjAddr: 0x389C, symBinAddr: 0x407C0, symSize: 0x9C }
  - { offset: 0x10C53F, size: 0x8, addend: 0x0, symName: __ZN4pyo33err5PyErr3new17h9f8250c8dd69afb0E, symObjAddr: 0x3A08, symBinAddr: 0x4085C, symSize: 0x98 }
  - { offset: 0x10C59D, size: 0x8, addend: 0x0, symName: __ZN4pyo33err5PyErr3new17ha239537bad884b8dE, symObjAddr: 0x3AA0, symBinAddr: 0x408F4, symSize: 0x9C }
  - { offset: 0x10C5FC, size: 0x8, addend: 0x0, symName: __ZN4pyo33err5PyErr3new17hbc00bd999512599aE, symObjAddr: 0x3BC8, symBinAddr: 0x40990, symSize: 0x98 }
  - { offset: 0x10C65A, size: 0x8, addend: 0x0, symName: __ZN4pyo33err5PyErr3new17hd40764c05010a81fE, symObjAddr: 0x3D78, symBinAddr: 0x40A28, symSize: 0x98 }
  - { offset: 0x10C6B8, size: 0x8, addend: 0x0, symName: __ZN4pyo33err5PyErr3new17he2e227ef410e61c3E, symObjAddr: 0x3F28, symBinAddr: 0x40AC0, symSize: 0x9C }
  - { offset: 0x10C70A, size: 0x8, addend: 0x0, symName: __ZN4pyo33err5PyErr4take17h755a88432bb54643E, symObjAddr: 0x5AC8, symBinAddr: 0x41354, symSize: 0x1C }
  - { offset: 0x10C739, size: 0x8, addend: 0x0, symName: __ZN4pyo33err5PyErr5_take17h6034ae22b2fa9512E, symObjAddr: 0x5AE4, symBinAddr: 0x41370, symSize: 0x204 }
  - { offset: 0x10C80D, size: 0x8, addend: 0x0, symName: __ZN4pyo33err5PyErr5cause17h9d7ed9734c9e69b0E, symObjAddr: 0x5DC8, symBinAddr: 0x41654, symSize: 0x44 }
  - { offset: 0x10C894, size: 0x8, addend: 0x0, symName: __ZN4pyo33err5PyErr5fetch17h1f104165b70d6cf2E, symObjAddr: 0x5E0C, symBinAddr: 0x41698, symSize: 0x5C }
  - { offset: 0x10C8C3, size: 0x8, addend: 0x0, symName: __ZN4pyo33err5PyErr5print17h2a2fc9703ba27880E, symObjAddr: 0x5E68, symBinAddr: 0x416F4, symSize: 0x3C }
  - { offset: 0x10C91D, size: 0x8, addend: 0x0, symName: __ZN4pyo33err5PyErr7restore17hb114f634743a0590E, symObjAddr: 0x5ED0, symBinAddr: 0x41730, symSize: 0x68 }
  - { offset: 0x10C97A, size: 0x8, addend: 0x0, symName: __ZN4pyo33err5PyErr9clone_ref17h2fd64b2a627c191dE, symObjAddr: 0x5F38, symBinAddr: 0x41798, symSize: 0x44 }
  - { offset: 0x10C9B8, size: 0x8, addend: 0x0, symName: __ZN4pyo33err5PyErr9set_cause17hb162e16b6f387cb3E, symObjAddr: 0x5F7C, symBinAddr: 0x417DC, symSize: 0x160 }
  - { offset: 0x10D07A, size: 0x8, addend: 0x0, symName: __ZN5alloc3fmt6format17ha5dd9088d598c426E, symObjAddr: 0x324C, symBinAddr: 0x44178, symSize: 0xC4 }
  - { offset: 0x10D0DF, size: 0x8, addend: 0x0, symName: '__ZN5alloc3fmt6format28_$u7b$$u7b$closure$u7d$$u7d$17h2812a5107e747eafE', symObjAddr: 0x3310, symBinAddr: 0x4423C, symSize: 0x48 }
  - { offset: 0x10D4BA, size: 0x8, addend: 0x0, symName: '__ZN4core3ptr7mut_ptr31_$LT$impl$u20$$BP$mut$u20$T$GT$7is_null17ha26c1921606ddc66E', symObjAddr: 0x5DC, symBinAddr: 0x42334, symSize: 0x18 }
  - { offset: 0x10EBEF, size: 0x8, addend: 0x0, symName: __ZN4core3cmp3Ord3max17hd0038dea5b3dd4f8E, symObjAddr: 0x478, symBinAddr: 0x42234, symSize: 0x80 }
  - { offset: 0x10EC5D, size: 0x8, addend: 0x0, symName: __ZN4core3cmp3Ord3min17h224e2210a4fdbb49E, symObjAddr: 0x4F8, symBinAddr: 0x422B4, symSize: 0x80 }
  - { offset: 0x10ED05, size: 0x8, addend: 0x0, symName: '__ZN146_$LT$core..ops..range..Range$LT$usize$GT$$u20$as$u20$core..iter..adapters..step_by..SpecRangeSetup$LT$core..ops..range..Range$LT$usize$GT$$GT$$GT$5setup17hf3ee96f5bb36d147E', symObjAddr: 0x268, symBinAddr: 0x420F4, symSize: 0x110 }
  - { offset: 0x10EE6B, size: 0x8, addend: 0x0, symName: __ZN4core4iter8adapters3zip27TrustedRandomAccessNoCoerce4size17h392d0e962d7c8b58E, symObjAddr: 0x1158, symBinAddr: 0x42608, symSize: 0x2C }
  - { offset: 0x10EEA2, size: 0x8, addend: 0x0, symName: __ZN4core4iter8adapters3zip27TrustedRandomAccessNoCoerce4size17h6d4c8788916cb8e7E, symObjAddr: 0x11DC, symBinAddr: 0x42634, symSize: 0x2C }
  - { offset: 0x10EFFE, size: 0x8, addend: 0x0, symName: __ZN4core4iter6traits8iterator8Iterator3zip17h111cf66ac66ec847E, symObjAddr: 0xB68, symBinAddr: 0x424EC, symSize: 0xC8 }
  - { offset: 0x10F074, size: 0x8, addend: 0x0, symName: __ZN4core4iter6traits8iterator8Iterator4take17h96a2704d2f67b2f9E, symObjAddr: 0xCF8, symBinAddr: 0x425B4, symSize: 0x2C }
  - { offset: 0x10F0CF, size: 0x8, addend: 0x0, symName: __ZN4core4iter6traits8iterator8Iterator9enumerate17h90049bdc3a642e55E, symObjAddr: 0xFF0, symBinAddr: 0x425E0, symSize: 0x28 }
  - { offset: 0x10F167, size: 0x8, addend: 0x0, symName: '__ZN42_$LT$$RF$T$u20$as$u20$core..fmt..Debug$GT$3fmt17hc022117d3c598ae5E', symObjAddr: 0x378, symBinAddr: 0x42204, symSize: 0x30 }
  - { offset: 0x10F3D3, size: 0x8, addend: 0x0, symName: '__ZN50_$LT$$BP$mut$u20$T$u20$as$u20$core..fmt..Debug$GT$3fmt17hef00e475f5e6aea8E', symObjAddr: 0x2D28, symBinAddr: 0x43F70, symSize: 0x38 }
  - { offset: 0x10F445, size: 0x8, addend: 0x0, symName: '__ZN54_$LT$$BP$const$u20$T$u20$as$u20$core..fmt..Pointer$GT$3fmt17h5372757ad0ac60f0E', symObjAddr: 0x2E74, symBinAddr: 0x43FA8, symSize: 0xCC }
  - { offset: 0x10F49C, size: 0x8, addend: 0x0, symName: '__ZN4core3str6traits99_$LT$impl$u20$core..slice..index..SliceIndex$LT$str$GT$$u20$for$u20$core..ops..range..RangeFull$GT$5index17ha508c0959e511b44E', symObjAddr: 0x5F4, symBinAddr: 0x4234C, symSize: 0x18 }
  - { offset: 0x10F4FD, size: 0x8, addend: 0x0, symName: __ZN4core4char7methods25encode_utf8_raw_unchecked17h603e4981bb13dbdaE, symObjAddr: 0x984, symBinAddr: 0x42364, symSize: 0x188 }
  - { offset: 0x10F796, size: 0x8, addend: 0x0, symName: '__ZN91_$LT$core..slice..iter..Iter$LT$T$GT$$u20$as$u20$core..iter..traits..iterator..Iterator$GT$24__iterator_get_unchecked17h99039bdbc239e3b2E', symObjAddr: 0x3A24, symBinAddr: 0x4430C, symSize: 0x20 }
  - { offset: 0x10F7F1, size: 0x8, addend: 0x0, symName: '__ZN91_$LT$core..slice..iter..Iter$LT$T$GT$$u20$as$u20$core..iter..traits..iterator..Iterator$GT$24__iterator_get_unchecked17hb3bac934bd24b1f8E', symObjAddr: 0x3A44, symBinAddr: 0x4432C, symSize: 0x28 }
  - { offset: 0x10F89B, size: 0x8, addend: 0x0, symName: '__ZN91_$LT$core..slice..iter..Iter$LT$T$GT$$u20$as$u20$core..iter..traits..iterator..Iterator$GT$3any17h37208535abf3df2cE', symObjAddr: 0x3A94, symBinAddr: 0x44354, symSize: 0xE4 }
  - { offset: 0x10F976, size: 0x8, addend: 0x0, symName: '__ZN91_$LT$core..slice..iter..Iter$LT$T$GT$$u20$as$u20$core..iter..traits..iterator..Iterator$GT$4next17h1356e6d027e05addE', symObjAddr: 0x3CEC, symBinAddr: 0x44438, symSize: 0x84 }
  - { offset: 0x10FA2C, size: 0x8, addend: 0x0, symName: '__ZN91_$LT$core..slice..iter..Iter$LT$T$GT$$u20$as$u20$core..iter..traits..iterator..Iterator$GT$4next17h512de94beca9548aE', symObjAddr: 0x3D70, symBinAddr: 0x444BC, symSize: 0x84 }
  - { offset: 0x10FAE2, size: 0x8, addend: 0x0, symName: '__ZN91_$LT$core..slice..iter..Iter$LT$T$GT$$u20$as$u20$core..iter..traits..iterator..Iterator$GT$4next17h56b631a977a0994cE', symObjAddr: 0x3DF4, symBinAddr: 0x44540, symSize: 0x84 }
  - { offset: 0x10FB98, size: 0x8, addend: 0x0, symName: '__ZN91_$LT$core..slice..iter..Iter$LT$T$GT$$u20$as$u20$core..iter..traits..iterator..Iterator$GT$4next17h73aa10b6f24f0fd9E', symObjAddr: 0x3E78, symBinAddr: 0x445C4, symSize: 0x84 }
  - { offset: 0x10FC4E, size: 0x8, addend: 0x0, symName: '__ZN91_$LT$core..slice..iter..Iter$LT$T$GT$$u20$as$u20$core..iter..traits..iterator..Iterator$GT$9size_hint17h404e64489d030260E', symObjAddr: 0x4004, symBinAddr: 0x44648, symSize: 0x60 }
  - { offset: 0x10FCBD, size: 0x8, addend: 0x0, symName: '__ZN91_$LT$core..slice..iter..Iter$LT$T$GT$$u20$as$u20$core..iter..traits..iterator..Iterator$GT$9size_hint17h4851b2377b9cd3dcE', symObjAddr: 0x4064, symBinAddr: 0x446A8, symSize: 0x60 }
  - { offset: 0x10FD2C, size: 0x8, addend: 0x0, symName: '__ZN91_$LT$core..slice..iter..Iter$LT$T$GT$$u20$as$u20$core..iter..traits..iterator..Iterator$GT$9size_hint17he47664509d04f9e0E', symObjAddr: 0x41E4, symBinAddr: 0x44708, symSize: 0x60 }
  - { offset: 0x10FDD7, size: 0x8, addend: 0x0, symName: '__ZN94_$LT$core..slice..iter..IterMut$LT$T$GT$$u20$as$u20$core..iter..traits..iterator..Iterator$GT$4next17h84f2f3cff199a034E', symObjAddr: 0x4244, symBinAddr: 0x44768, symSize: 0x84 }
  - { offset: 0x11059C, size: 0x8, addend: 0x0, symName: __ZN4core9core_arch7aarch644neon9generated7vld1_u817hd0312fceb5c10c78E, symObjAddr: 0x1350, symBinAddr: 0x42708, symSize: 0x34 }
  - { offset: 0x1105CA, size: 0x8, addend: 0x0, symName: __ZN4core9core_arch7aarch644neon9generated7vst1_u817h8c12a40e19093312E, symObjAddr: 0x1384, symBinAddr: 0x4273C, symSize: 0x40 }
  - { offset: 0x110604, size: 0x8, addend: 0x0, symName: __ZN4core9core_arch7aarch644neon9generated8vcgez_s817h13105638cf94bfe4E, symObjAddr: 0x13C4, symBinAddr: 0x4277C, symSize: 0x68 }
  - { offset: 0x1106A6, size: 0x8, addend: 0x0, symName: __ZN4core9core_arch7aarch644neon9generated8vcltz_s817hda26974a4281362fE, symObjAddr: 0x142C, symBinAddr: 0x427E4, symSize: 0x68 }
  - { offset: 0x11103C, size: 0x8, addend: 0x0, symName: __ZN8pyo3_ffi7objimpl12PyType_IS_GC17hffbab3a27e7c649aE, symObjAddr: 0x39D8, symBinAddr: 0x442E0, symSize: 0x2C }
  - { offset: 0x111569, size: 0x8, addend: 0x0, symName: __ZN4pyo33gil4POOL17hcde8206715610331E, symObjAddr: 0x5020, symBinAddr: 0xE04E8, symSize: 0x0 }
  - { offset: 0x1115D6, size: 0x8, addend: 0x0, symName: __ZN4pyo33gil5START17ha5585ff438a81847E, symObjAddr: 0x5060, symBinAddr: 0xE0528, symSize: 0x0 }
  - { offset: 0x1115FF, size: 0x8, addend: 0x0, symName: '__ZN4pyo33gil9GIL_COUNT29_$u7b$$u7b$constant$u7d$$u7d$28_$u7b$$u7b$closure$u7d$$u7d$23__RUST_STD_INTERNAL_VAL17hca070811fef860c5E', symObjAddr: 0x5088, symBinAddr: 0xE0ED0, symSize: 0x0 }
  - { offset: 0x11160E, size: 0x8, addend: 0x0, symName: '__ZN4pyo33gil9GIL_COUNT29_$u7b$$u7b$constant$u7d$$u7d$28_$u7b$$u7b$closure$u7d$$u7d$17h4b2497664fea6250E', symObjAddr: 0x2184, symBinAddr: 0x433F0, symSize: 0x30 }
  - { offset: 0x1116DA, size: 0x8, addend: 0x0, symName: '__ZN4pyo33gil15gil_is_acquired28_$u7b$$u7b$closure$u7d$$u7d$17hf2ad5de7ed926947E', symObjAddr: 0x1A98, symBinAddr: 0x42DE8, symSize: 0x2C }
  - { offset: 0x111728, size: 0x8, addend: 0x0, symName: __ZN4pyo33gil15register_decref17h4b546dbb3fe6e86cE, symObjAddr: 0x1AC4, symBinAddr: 0x42E14, symSize: 0x1E8 }
  - { offset: 0x1117A8, size: 0x8, addend: 0x0, symName: '__ZN4pyo33gil19decrement_gil_count28_$u7b$$u7b$closure$u7d$$u7d$17hc47f81ac9faa7be8E', symObjAddr: 0x1CAC, symBinAddr: 0x42FFC, symSize: 0x90 }
  - { offset: 0x111800, size: 0x8, addend: 0x0, symName: '__ZN4pyo33gil19increment_gil_count28_$u7b$$u7b$closure$u7d$$u7d$17hd79fdd32f082d6cbE', symObjAddr: 0x1D3C, symBinAddr: 0x4308C, symSize: 0x74 }
  - { offset: 0x111853, size: 0x8, addend: 0x0, symName: __ZN4pyo33gil27prepare_freethreaded_python17h1f83c51d1d21368fE, symObjAddr: 0x1DB0, symBinAddr: 0x43100, symSize: 0x1C }
  - { offset: 0x111871, size: 0x8, addend: 0x0, symName: '__ZN4pyo33gil27prepare_freethreaded_python28_$u7b$$u7b$closure$u7d$$u7d$17hb6f9039cee5e74a7E', symObjAddr: 0x1DCC, symBinAddr: 0x4311C, symSize: 0x38 }
  - { offset: 0x11190B, size: 0x8, addend: 0x0, symName: '__ZN4pyo33gil8GILGuard7acquire28_$u7b$$u7b$closure$u7d$$u7d$17h22075a487fae370fE', symObjAddr: 0x20E0, symBinAddr: 0x4334C, symSize: 0xA4 }
  - { offset: 0x111995, size: 0x8, addend: 0x0, symName: '__ZN61_$LT$pyo3..gil..GILGuard$u20$as$u20$core..ops..drop..Drop$GT$4drop17hb833bc2d06523e34E', symObjAddr: 0x33EC, symBinAddr: 0x44284, symSize: 0x5C }
  - { offset: 0x1119FE, size: 0x8, addend: 0x0, symName: '__ZN57_$LT$T$u20$as$u20$pyo3..conversion..FromPyObjectBound$GT$20from_py_object_bound17h343d5b031da8cd05E', symObjAddr: 0x2FDC, symBinAddr: 0x44074, symSize: 0x34 }
  - { offset: 0x111A35, size: 0x8, addend: 0x0, symName: '__ZN57_$LT$T$u20$as$u20$pyo3..conversion..FromPyObjectBound$GT$20from_py_object_bound17h7622b57fea684b11E', symObjAddr: 0x30AC, symBinAddr: 0x440A8, symSize: 0x34 }
  - { offset: 0x111A6C, size: 0x8, addend: 0x0, symName: '__ZN57_$LT$T$u20$as$u20$pyo3..conversion..FromPyObjectBound$GT$20from_py_object_bound17h7d7c1dbbfd8e4a21E', symObjAddr: 0x30E0, symBinAddr: 0x440DC, symSize: 0x34 }
  - { offset: 0x111AA3, size: 0x8, addend: 0x0, symName: '__ZN57_$LT$T$u20$as$u20$pyo3..conversion..FromPyObjectBound$GT$20from_py_object_bound17he3cefd4208e902ffE', symObjAddr: 0x31B0, symBinAddr: 0x44110, symSize: 0x34 }
  - { offset: 0x111ADA, size: 0x8, addend: 0x0, symName: '__ZN57_$LT$T$u20$as$u20$pyo3..conversion..FromPyObjectBound$GT$20from_py_object_bound17hfc78e302251d3d42E', symObjAddr: 0x3218, symBinAddr: 0x44144, symSize: 0x34 }
  - { offset: 0x111B5F, size: 0x8, addend: 0x0, symName: __ZN4pyo35impl_10trampoline10trampoline17h8981ec636c4decedE, symObjAddr: 0x21B4, symBinAddr: 0x43420, symSize: 0x15C }
  - { offset: 0x111C02, size: 0x8, addend: 0x0, symName: __ZN4pyo35impl_10trampoline10trampoline17h9fb891d204e592f3E, symObjAddr: 0x2310, symBinAddr: 0x4357C, symSize: 0x15C }
  - { offset: 0x111CA5, size: 0x8, addend: 0x0, symName: __ZN4pyo35impl_10trampoline10trampoline17hae3b49cda9f2b26fE, symObjAddr: 0x246C, symBinAddr: 0x436D8, symSize: 0x158 }
  - { offset: 0x111D48, size: 0x8, addend: 0x0, symName: __ZN4pyo35impl_10trampoline10trampoline17hae65969325d037d6E, symObjAddr: 0x25C4, symBinAddr: 0x43830, symSize: 0x14C }
  - { offset: 0x111DEA, size: 0x8, addend: 0x0, symName: __ZN4pyo35impl_10trampoline10trampoline17hc61c18f58d29a630E, symObjAddr: 0x2710, symBinAddr: 0x4397C, symSize: 0x15C }
  - { offset: 0x111E8D, size: 0x8, addend: 0x0, symName: __ZN4pyo35impl_10trampoline10trampoline17hd081f24f4640be61E, symObjAddr: 0x286C, symBinAddr: 0x43AD8, symSize: 0x158 }
  - { offset: 0x111F35, size: 0x8, addend: 0x0, symName: '__ZN4pyo35impl_10trampoline10trampoline28_$u7b$$u7b$closure$u7d$$u7d$17h10d5ed2506e05b45E', symObjAddr: 0x29C4, symBinAddr: 0x43C30, symSize: 0x2C }
  - { offset: 0x111F83, size: 0x8, addend: 0x0, symName: '__ZN4pyo35impl_10trampoline10trampoline28_$u7b$$u7b$closure$u7d$$u7d$17h318d3c2e01d70076E', symObjAddr: 0x29F0, symBinAddr: 0x43C5C, symSize: 0x34 }
  - { offset: 0x111FD2, size: 0x8, addend: 0x0, symName: '__ZN4pyo35impl_10trampoline10trampoline28_$u7b$$u7b$closure$u7d$$u7d$17h8f8c431bc9273219E', symObjAddr: 0x2A24, symBinAddr: 0x43C90, symSize: 0x34 }
  - { offset: 0x112021, size: 0x8, addend: 0x0, symName: '__ZN4pyo35impl_10trampoline10trampoline28_$u7b$$u7b$closure$u7d$$u7d$17hc0173f6fce5bab61E', symObjAddr: 0x2A58, symBinAddr: 0x43CC4, symSize: 0x34 }
  - { offset: 0x112070, size: 0x8, addend: 0x0, symName: '__ZN4pyo35impl_10trampoline10trampoline28_$u7b$$u7b$closure$u7d$$u7d$17hdd0627686e594b8bE', symObjAddr: 0x2A8C, symBinAddr: 0x43CF8, symSize: 0x2C }
  - { offset: 0x1120BE, size: 0x8, addend: 0x0, symName: '__ZN4pyo35impl_10trampoline10trampoline28_$u7b$$u7b$closure$u7d$$u7d$17heb4375f2b7317ee5E', symObjAddr: 0x2AB8, symBinAddr: 0x43D24, symSize: 0x24 }
  - { offset: 0x11210D, size: 0x8, addend: 0x0, symName: __ZN4pyo35impl_10trampoline33panic_result_into_callback_output17h17aa823c9f8951f5E, symObjAddr: 0x2ADC, symBinAddr: 0x43D48, symSize: 0xF8 }
  - { offset: 0x1121D0, size: 0x8, addend: 0x0, symName: __ZN4pyo35impl_10trampoline33panic_result_into_callback_output17h5f7310ba10a3564eE, symObjAddr: 0x2BD4, symBinAddr: 0x43E40, symSize: 0x104 }
  - { offset: 0x112C81, size: 0x8, addend: 0x0, symName: '__ZN4core5slice4iter13Iter$LT$T$GT$3new17h43d0ac6f0cb117fbE', symObjAddr: 0x1208, symBinAddr: 0x42660, symSize: 0x50 }
  - { offset: 0x112E31, size: 0x8, addend: 0x0, symName: '__ZN4core5slice4iter13Iter$LT$T$GT$3new17hf1be6c65931f218fE', symObjAddr: 0x12A8, symBinAddr: 0x426B0, symSize: 0x58 }
  - { offset: 0x113035, size: 0x8, addend: 0x0, symName: __ZN4pyo33gil13ReferencePool13update_counts17hee5761c2288d34beE, symObjAddr: 0x14FC, symBinAddr: 0x4284C, symSize: 0x428 }
  - { offset: 0x11315F, size: 0x8, addend: 0x0, symName: __ZN4pyo33gil13ReferencePool15register_decref17hb7d6bf1bfcdc0226E, symObjAddr: 0x1924, symBinAddr: 0x42C74, symSize: 0x128 }
  - { offset: 0x1131CB, size: 0x8, addend: 0x0, symName: __ZN4pyo33gil13ReferencePool3new17h8bc5a80690686ba0E, symObjAddr: 0x1A4C, symBinAddr: 0x42D9C, symSize: 0x4C }
  - { offset: 0x1131DE, size: 0x8, addend: 0x0, symName: __ZN4pyo33gil7LockGIL4bail17h1e77c399ed20a2d8E, symObjAddr: 0x1E84, symBinAddr: 0x90ADC, symSize: 0x64 }
  - { offset: 0x113201, size: 0x8, addend: 0x0, symName: __ZN4pyo33gil8GILGuard17acquire_unchecked17hd2dc5a7a4319a4f1E, symObjAddr: 0x1EE8, symBinAddr: 0x43154, symSize: 0xAC }
  - { offset: 0x113267, size: 0x8, addend: 0x0, symName: __ZN4pyo33gil8GILGuard6assume17h8da36bc858fc4075E, symObjAddr: 0x1F94, symBinAddr: 0x43200, symSize: 0xB0 }
  - { offset: 0x1132B9, size: 0x8, addend: 0x0, symName: __ZN4pyo33gil8GILGuard6python17h8f98baa801439e1eE, symObjAddr: 0x2044, symBinAddr: 0x432B0, symSize: 0x20 }
  - { offset: 0x1132DB, size: 0x8, addend: 0x0, symName: __ZN4pyo33gil8GILGuard7acquire17hc5336236ecc3973aE, symObjAddr: 0x2064, symBinAddr: 0x432D0, symSize: 0x7C }
  - { offset: 0x113310, size: 0x8, addend: 0x0, symName: __ZN4pyo35types4none6PyNone9get_bound17h663d9f1a386f6acdE, symObjAddr: 0x2CFC, symBinAddr: 0x43F44, symSize: 0x2C }
  - { offset: 0x113EBA, size: 0x8, addend: 0x0, symName: '__ZN74_$LT$pyo3..types..num..PyLong$u20$as$u20$pyo3..type_object..PyTypeInfo$GT$16is_type_of_bound17hb635e1aa7110ab98E', symObjAddr: 0x63E0, symBinAddr: 0x47614, symSize: 0x30 }
  - { offset: 0x114228, size: 0x8, addend: 0x0, symName: '__ZN52_$LT$T$u20$as$u20$pyo3..type_object..PyTypeCheck$GT$10type_check17h385f51cec4bb0badE', symObjAddr: 0x5F10, symBinAddr: 0x474D0, symSize: 0x24 }
  - { offset: 0x115D0F, size: 0x8, addend: 0x0, symName: '__ZN59_$LT$core..ffi..c_str..CStr$u20$as$u20$core..hash..Hash$GT$4hash17hf185e95dc8ca62a1E', symObjAddr: 0x6028, symBinAddr: 0x4756C, symSize: 0x30 }
  - { offset: 0x115D54, size: 0x8, addend: 0x0, symName: '__ZN63_$LT$core..ffi..c_str..CStr$u20$as$u20$core..cmp..PartialEq$GT$2eq17h6e626c3974f2600cE', symObjAddr: 0x6134, symBinAddr: 0x475C8, symSize: 0x4C }
  - { offset: 0x115F27, size: 0x8, addend: 0x0, symName: '__ZN4core3ptr8non_null16NonNull$LT$T$GT$13new_unchecked18precondition_check17h63ac7c7709c50853E', symObjAddr: 0x48BC, symBinAddr: 0x46D1C, symSize: 0xA4 }
  - { offset: 0x11663B, size: 0x8, addend: 0x0, symName: '__ZN4core3ptr101drop_in_place$LT$core..option..Option$LT$pyo3..pyclass..create_type_object..PyClassTypeObject$GT$$GT$17h23b1a4a189b6fa05E', symObjAddr: 0x210C, symBinAddr: 0x45248, symSize: 0x48 }
  - { offset: 0x11666A, size: 0x8, addend: 0x0, symName: '__ZN4core3ptr101drop_in_place$LT$std..sys..sync..once_box..OnceBox$LT$std..sys..pal..unix..sync..mutex..Mutex$GT$$GT$17ha0a5971b4da0d7b1E', symObjAddr: 0x21E4, symBinAddr: 0x45290, symSize: 0x24 }
  - { offset: 0x116699, size: 0x8, addend: 0x0, symName: '__ZN4core3ptr104drop_in_place$LT$core..option..Option$LT$pyo3..instance..Py$LT$pyo3..types..module..PyModule$GT$$GT$$GT$17hd58ee0d4d502e4c3E', symObjAddr: 0x2250, symBinAddr: 0x452B4, symSize: 0x44 }
  - { offset: 0x1166C8, size: 0x8, addend: 0x0, symName: '__ZN4core3ptr104drop_in_place$LT$core..option..Option$LT$pyo3..instance..Py$LT$pyo3..types..string..PyString$GT$$GT$$GT$17h86d76e3fde33a3fbE', symObjAddr: 0x2294, symBinAddr: 0x452F8, symSize: 0x44 }
  - { offset: 0x1166F7, size: 0x8, addend: 0x0, symName: '__ZN4core3ptr105drop_in_place$LT$alloc..raw_vec..RawVec$LT$pyo3..pyclass..create_type_object..GetSetDefDestructor$GT$$GT$17hf381a3385a4c71f6E', symObjAddr: 0x22D8, symBinAddr: 0x4533C, symSize: 0x24 }
  - { offset: 0x116726, size: 0x8, addend: 0x0, symName: '__ZN4core3ptr106drop_in_place$LT$alloc..vec..Vec$LT$core..ptr..non_null..NonNull$LT$pyo3_ffi..object..PyObject$GT$$GT$$GT$17h7fdc248815247fd9E', symObjAddr: 0x22FC, symBinAddr: 0x45360, symSize: 0x5C }
  - { offset: 0x116755, size: 0x8, addend: 0x0, symName: '__ZN4core3ptr106drop_in_place$LT$core..option..Option$LT$pyo3..instance..Py$LT$pyo3..types..typeobject..PyType$GT$$GT$$GT$17hb59292ef39b2fc5cE', symObjAddr: 0x2358, symBinAddr: 0x453BC, symSize: 0x44 }
  - { offset: 0x116784, size: 0x8, addend: 0x0, symName: '__ZN4core3ptr107drop_in_place$LT$$LP$$RF$core..ffi..c_str..CStr$C$pyo3..instance..Py$LT$pyo3..types..any..PyAny$GT$$RP$$GT$17hce6b09d11bb8224cE', symObjAddr: 0x239C, symBinAddr: 0x45400, symSize: 0x24 }
  - { offset: 0x1167B3, size: 0x8, addend: 0x0, symName: '__ZN4core3ptr107drop_in_place$LT$core..pin..Pin$LT$alloc..boxed..Box$LT$std..sys..pal..unix..sync..mutex..Mutex$GT$$GT$$GT$17h5a58c19c9a9352a5E', symObjAddr: 0x23C0, symBinAddr: 0x45424, symSize: 0x24 }
  - { offset: 0x1167E2, size: 0x8, addend: 0x0, symName: '__ZN4core3ptr108drop_in_place$LT$core..option..Option$LT$pyo3..instance..Py$LT$pyo3..exceptions..PyBaseException$GT$$GT$$GT$17hb4f8a419ec533065E', symObjAddr: 0x2448, symBinAddr: 0x45448, symSize: 0x44 }
  - { offset: 0x116811, size: 0x8, addend: 0x0, symName: '__ZN4core3ptr111drop_in_place$LT$core..cell..UnsafeCell$LT$core..option..Option$LT$pyo3..err..err_state..PyErrState$GT$$GT$$GT$17ha98662f62c432152E', symObjAddr: 0x24F4, symBinAddr: 0x4548C, symSize: 0x24 }
  - { offset: 0x116840, size: 0x8, addend: 0x0, symName: '__ZN4core3ptr112drop_in_place$LT$core..result..Result$LT$$LP$$RP$$C$pyo3..pyclass..create_type_object..PyClassTypeObject$GT$$GT$17h4bd4b74dc53d9456E', symObjAddr: 0x2518, symBinAddr: 0x454B0, symSize: 0x48 }
  - { offset: 0x11686F, size: 0x8, addend: 0x0, symName: '__ZN4core3ptr113drop_in_place$LT$alloc..raw_vec..RawVec$LT$core..ptr..non_null..NonNull$LT$pyo3_ffi..object..PyObject$GT$$GT$$GT$17h515f00a3caa1a7cfE', symObjAddr: 0x2560, symBinAddr: 0x454F8, symSize: 0x24 }
  - { offset: 0x11689E, size: 0x8, addend: 0x0, symName: '__ZN4core3ptr113drop_in_place$LT$core..option..Option$LT$pyo3..instance..Bound$LT$pyo3..types..traceback..PyTraceback$GT$$GT$$GT$17h8ae0648e2671903cE', symObjAddr: 0x2584, symBinAddr: 0x4551C, symSize: 0x44 }
  - { offset: 0x1168CD, size: 0x8, addend: 0x0, symName: '__ZN4core3ptr114drop_in_place$LT$pyo3..impl_..pyclass..lazy_type_object..LazyTypeObjectInner..ensure_init..InitializationGuard$GT$17h76bc91fd8ba21166E', symObjAddr: 0x25C8, symBinAddr: 0x45560, symSize: 0x24 }
  - { offset: 0x1168FC, size: 0x8, addend: 0x0, symName: '__ZN4core3ptr115drop_in_place$LT$core..array..iter..IntoIter$LT$pyo3..instance..Py$LT$pyo3..types..any..PyAny$GT$$C$1_usize$GT$$GT$17h7a753b4e538270e7E', symObjAddr: 0x25EC, symBinAddr: 0x45584, symSize: 0x24 }
  - { offset: 0x11692B, size: 0x8, addend: 0x0, symName: '__ZN4core3ptr115drop_in_place$LT$core..result..Result$LT$$LP$$RP$$C$pyo3..instance..Py$LT$pyo3..types..module..PyModule$GT$$GT$$GT$17hf3f7128a4dbbff2dE', symObjAddr: 0x2634, symBinAddr: 0x455A8, symSize: 0x44 }
  - { offset: 0x11695A, size: 0x8, addend: 0x0, symName: '__ZN4core3ptr115drop_in_place$LT$core..result..Result$LT$$LP$$RP$$C$pyo3..instance..Py$LT$pyo3..types..string..PyString$GT$$GT$$GT$17h19de5090ca139d1aE', symObjAddr: 0x2678, symBinAddr: 0x455EC, symSize: 0x44 }
  - { offset: 0x116989, size: 0x8, addend: 0x0, symName: '__ZN4core3ptr117drop_in_place$LT$$u5b$$LP$$RF$core..ffi..c_str..CStr$C$pyo3..instance..Py$LT$pyo3..types..any..PyAny$GT$$RP$$u5d$$GT$17h06f92b1774a3168bE', symObjAddr: 0x26BC, symBinAddr: 0x45630, symSize: 0xC4 }
  - { offset: 0x1169B8, size: 0x8, addend: 0x0, symName: '__ZN4core3ptr117drop_in_place$LT$core..result..Result$LT$$LP$$RP$$C$pyo3..instance..Py$LT$pyo3..types..typeobject..PyType$GT$$GT$$GT$17he54d08940684a622E', symObjAddr: 0x2780, symBinAddr: 0x456F4, symSize: 0x44 }
  - { offset: 0x1169E7, size: 0x8, addend: 0x0, symName: '__ZN4core3ptr122drop_in_place$LT$alloc..vec..into_iter..IntoIter$LT$core..ptr..non_null..NonNull$LT$pyo3_ffi..object..PyObject$GT$$GT$$GT$17h115559332520cddbE', symObjAddr: 0x2894, symBinAddr: 0x45738, symSize: 0x24 }
  - { offset: 0x116A16, size: 0x8, addend: 0x0, symName: '__ZN4core3ptr122drop_in_place$LT$pyo3..impl_..pyclass..lazy_type_object..LazyTypeObjectInner..ensure_init..$u7b$$u7b$closure$u7d$$u7d$$GT$17h8c0e213f71028889E', symObjAddr: 0x28B8, symBinAddr: 0x4575C, symSize: 0x60 }
  - { offset: 0x116A45, size: 0x8, addend: 0x0, symName: '__ZN4core3ptr126drop_in_place$LT$core..result..Result$LT$pyo3..instance..Bound$LT$pyo3..types..string..PyString$GT$$C$pyo3..err..PyErr$GT$$GT$17h5ac6e7394228d661E', symObjAddr: 0x2918, symBinAddr: 0x457BC, symSize: 0x50 }
  - { offset: 0x116A74, size: 0x8, addend: 0x0, symName: '__ZN4core3ptr130drop_in_place$LT$alloc..vec..Vec$LT$$LP$$RF$core..ffi..c_str..CStr$C$pyo3..instance..Py$LT$pyo3..types..any..PyAny$GT$$RP$$GT$$GT$17hcc5f0f9ab4b614cfE', symObjAddr: 0x298C, symBinAddr: 0x4580C, symSize: 0x5C }
  - { offset: 0x116AA3, size: 0x8, addend: 0x0, symName: '__ZN4core3ptr130drop_in_place$LT$alloc..vec..Vec$LT$T$C$A$GT$..retain_mut..BackshiftOnDrop$LT$std..thread..ThreadId$C$alloc..alloc..Global$GT$$GT$17h5b6400c2bb09c2d3E', symObjAddr: 0x29E8, symBinAddr: 0x45868, symSize: 0x24 }
  - { offset: 0x116AD2, size: 0x8, addend: 0x0, symName: '__ZN4core3ptr132drop_in_place$LT$pyo3..err..PyErr..new$LT$pyo3..exceptions..PyTypeError$C$alloc..string..String$GT$..$u7b$$u7b$closure$u7d$$u7d$$GT$17h35e24a18941ebea6E', symObjAddr: 0x2A30, symBinAddr: 0x4588C, symSize: 0x24 }
  - { offset: 0x116B01, size: 0x8, addend: 0x0, symName: '__ZN4core3ptr133drop_in_place$LT$core..result..Result$LT$$RF$pyo3..instance..Bound$LT$pyo3..types..num..PyLong$GT$$C$pyo3..err..DowncastError$GT$$GT$17h1ff788a93b408f4aE', symObjAddr: 0x2A54, symBinAddr: 0x458B0, symSize: 0x48 }
  - { offset: 0x116B30, size: 0x8, addend: 0x0, symName: '__ZN4core3ptr135drop_in_place$LT$core..option..Option$LT$core..pin..Pin$LT$alloc..boxed..Box$LT$std..sys..pal..unix..sync..mutex..Mutex$GT$$GT$$GT$$GT$17he0a8d0d9108c58afE', symObjAddr: 0x2AE4, symBinAddr: 0x458F8, symSize: 0x44 }
  - { offset: 0x116B5F, size: 0x8, addend: 0x0, symName: '__ZN4core3ptr135drop_in_place$LT$pyo3..err..PyErr..new$LT$pyo3..exceptions..PyRuntimeError$C$alloc..string..String$GT$..$u7b$$u7b$closure$u7d$$u7d$$GT$17hc6575a8ad01b454dE', symObjAddr: 0x2B70, symBinAddr: 0x4593C, symSize: 0x24 }
  - { offset: 0x116B8E, size: 0x8, addend: 0x0, symName: '__ZN4core3ptr136drop_in_place$LT$core..cell..UnsafeCell$LT$alloc..vec..Vec$LT$core..ptr..non_null..NonNull$LT$pyo3_ffi..object..PyObject$GT$$GT$$GT$$GT$17he5241ab84db060c1E', symObjAddr: 0x2BB8, symBinAddr: 0x45960, symSize: 0x24 }
  - { offset: 0x116BBD, size: 0x8, addend: 0x0, symName: '__ZN4core3ptr136drop_in_place$LT$core..result..Result$LT$$RF$pyo3..instance..Bound$LT$pyo3..types..float..PyFloat$GT$$C$pyo3..err..DowncastError$GT$$GT$17h7acfdcfcd4b100edE', symObjAddr: 0x2C48, symBinAddr: 0x45984, symSize: 0x48 }
  - { offset: 0x116BEC, size: 0x8, addend: 0x0, symName: '__ZN4core3ptr136drop_in_place$LT$pyo3..err..PyErr..new$LT$pyo3..exceptions..PyOverflowError$C$alloc..string..String$GT$..$u7b$$u7b$closure$u7d$$u7d$$GT$17h4cf5d0ce52bf9590E', symObjAddr: 0x2C90, symBinAddr: 0x459CC, symSize: 0x24 }
  - { offset: 0x116C1B, size: 0x8, addend: 0x0, symName: '__ZN4core3ptr137drop_in_place$LT$alloc..raw_vec..RawVec$LT$$LP$$RF$core..ffi..c_str..CStr$C$pyo3..instance..Py$LT$pyo3..types..any..PyAny$GT$$RP$$GT$$GT$17h6519a9bb9e69fb4fE', symObjAddr: 0x2CB4, symBinAddr: 0x459F0, symSize: 0x24 }
  - { offset: 0x116C4A, size: 0x8, addend: 0x0, symName: '__ZN4core3ptr139drop_in_place$LT$pyo3..err..PyErr..new$LT$pyo3..exceptions..PyValueError$C$alloc..ffi..c_str..NulError$GT$..$u7b$$u7b$closure$u7d$$u7d$$GT$17h10186b075655d9c2E', symObjAddr: 0x2D8C, symBinAddr: 0x45A14, symSize: 0x24 }
  - { offset: 0x116C79, size: 0x8, addend: 0x0, symName: '__ZN4core3ptr141drop_in_place$LT$hashbrown..raw..RawTable$LT$$LP$$RF$core..ffi..c_str..CStr$C$pyo3..pyclass..create_type_object..GetSetDefBuilder$RP$$GT$$GT$17h6952c17458815410E', symObjAddr: 0x2DD4, symBinAddr: 0x45A38, symSize: 0x24 }
  - { offset: 0x116CA8, size: 0x8, addend: 0x0, symName: '__ZN4core3ptr141drop_in_place$LT$pyo3..err..PyErr..new$LT$pyo3..panic..PanicException$C$$LP$alloc..string..String$C$$RP$$GT$..$u7b$$u7b$closure$u7d$$u7d$$GT$17h2a5f75b8777dc5e2E', symObjAddr: 0x2DF8, symBinAddr: 0x45A5C, symSize: 0x24 }
  - { offset: 0x116CD7, size: 0x8, addend: 0x0, symName: '__ZN4core3ptr145drop_in_place$LT$pyo3..err..err_state..PyErrState..lazy$LT$pyo3..instance..Py$LT$pyo3..types..any..PyAny$GT$$GT$..$u7b$$u7b$closure$u7d$$u7d$$GT$17ha2f726bc7e2f0702E', symObjAddr: 0x2ED0, symBinAddr: 0x45A80, symSize: 0x60 }
  - { offset: 0x116D06, size: 0x8, addend: 0x0, symName: '__ZN4core3ptr145drop_in_place$LT$std..collections..hash..map..HashMap$LT$$RF$core..ffi..c_str..CStr$C$pyo3..pyclass..create_type_object..GetSetDefBuilder$GT$$GT$17h22c0c977929bb78cE', symObjAddr: 0x2F30, symBinAddr: 0x45AE0, symSize: 0x24 }
  - { offset: 0x116D35, size: 0x8, addend: 0x0, symName: '__ZN4core3ptr145drop_in_place$LT$std..sync..poison..mutex..Mutex$LT$alloc..vec..Vec$LT$core..ptr..non_null..NonNull$LT$pyo3_ffi..object..PyObject$GT$$GT$$GT$$GT$17hcac0228b2649ebefE', symObjAddr: 0x2F54, symBinAddr: 0x45B04, symSize: 0x60 }
  - { offset: 0x116D64, size: 0x8, addend: 0x0, symName: '__ZN4core3ptr146drop_in_place$LT$alloc..vec..into_iter..IntoIter$LT$$LP$$RF$core..ffi..c_str..CStr$C$pyo3..instance..Py$LT$pyo3..types..any..PyAny$GT$$RP$$GT$$GT$17hb764c7359ac6b423E', symObjAddr: 0x2FB4, symBinAddr: 0x45B64, symSize: 0x24 }
  - { offset: 0x116D93, size: 0x8, addend: 0x0, symName: '__ZN4core3ptr146drop_in_place$LT$pyo3..err..PyErr..new$LT$pyo3..exceptions..PyTypeError$C$pyo3..err..PyDowncastErrorArguments$GT$..$u7b$$u7b$closure$u7d$$u7d$$GT$17h99d2f019671e1bcdE', symObjAddr: 0x2FD8, symBinAddr: 0x45B88, symSize: 0x24 }
  - { offset: 0x116DC2, size: 0x8, addend: 0x0, symName: '__ZN4core3ptr150drop_in_place$LT$std..sync..poison..mutex..MutexGuard$LT$alloc..vec..Vec$LT$core..ptr..non_null..NonNull$LT$pyo3_ffi..object..PyObject$GT$$GT$$GT$$GT$17h6f8e617cf3a2d7a0E', symObjAddr: 0x3020, symBinAddr: 0x45BAC, symSize: 0x24 }
  - { offset: 0x116DF1, size: 0x8, addend: 0x0, symName: '__ZN4core3ptr165drop_in_place$LT$core..iter..adapters..enumerate..Enumerate$LT$core..array..iter..IntoIter$LT$pyo3..instance..Py$LT$pyo3..types..any..PyAny$GT$$C$1_usize$GT$$GT$$GT$17hb2f674583903a940E', symObjAddr: 0x3068, symBinAddr: 0x45BD0, symSize: 0x24 }
  - { offset: 0x116E20, size: 0x8, addend: 0x0, symName: '__ZN4core3ptr165drop_in_place$LT$hashbrown..map..HashMap$LT$$RF$core..ffi..c_str..CStr$C$pyo3..pyclass..create_type_object..GetSetDefBuilder$C$std..hash..random..RandomState$GT$$GT$17h00666470b4122222E', symObjAddr: 0x30B0, symBinAddr: 0x45BF4, symSize: 0x24 }
  - { offset: 0x116E4F, size: 0x8, addend: 0x0, symName: '__ZN4core3ptr181drop_in_place$LT$hashbrown..scopeguard..ScopeGuard$LT$$RF$mut$u20$hashbrown..raw..RawTableInner$C$hashbrown..raw..RawTableInner..rehash_in_place..$u7b$$u7b$closure$u7d$$u7d$$GT$$GT$17h8476ce133ca2afccE', symObjAddr: 0x30D4, symBinAddr: 0x45C18, symSize: 0x24 }
  - { offset: 0x116E7E, size: 0x8, addend: 0x0, symName: '__ZN4core3ptr188drop_in_place$LT$std..sync..poison..PoisonError$LT$std..sync..poison..mutex..MutexGuard$LT$alloc..vec..Vec$LT$core..ptr..non_null..NonNull$LT$pyo3_ffi..object..PyObject$GT$$GT$$GT$$GT$$GT$17h28a56db2eba59958E', symObjAddr: 0x30F8, symBinAddr: 0x45C3C, symSize: 0x24 }
  - { offset: 0x116EAD, size: 0x8, addend: 0x0, symName: '__ZN4core3ptr189drop_in_place$LT$core..array..iter..iter_inner..PolymorphicIter$LT$$u5b$core..mem..maybe_uninit..MaybeUninit$LT$pyo3..instance..Py$LT$pyo3..types..any..PyAny$GT$$GT$$u3b$$u20$1$u5d$$GT$$GT$17h9ad3b37870e67ce3E', symObjAddr: 0x311C, symBinAddr: 0x45C60, symSize: 0x24 }
  - { offset: 0x116EDC, size: 0x8, addend: 0x0, symName: '__ZN4core3ptr196drop_in_place$LT$hashbrown..scopeguard..ScopeGuard$LT$hashbrown..raw..RawTableInner$C$hashbrown..raw..RawTableInner..prepare_resize$LT$alloc..alloc..Global$GT$..$u7b$$u7b$closure$u7d$$u7d$$GT$$GT$17hbb9f471d4a11026fE', symObjAddr: 0x3164, symBinAddr: 0x45C84, symSize: 0x24 }
  - { offset: 0x116F0B, size: 0x8, addend: 0x0, symName: '__ZN4core3ptr216drop_in_place$LT$$LT$alloc..vec..into_iter..IntoIter$LT$T$C$A$GT$$u20$as$u20$core..ops..drop..Drop$GT$..drop..DropGuard$LT$core..ptr..non_null..NonNull$LT$pyo3_ffi..object..PyObject$GT$$C$alloc..alloc..Global$GT$$GT$17h600686003ffb7b19E', symObjAddr: 0x3218, symBinAddr: 0x45CA8, symSize: 0x24 }
  - { offset: 0x116F3A, size: 0x8, addend: 0x0, symName: '__ZN4core3ptr233drop_in_place$LT$alloc..boxed..Box$LT$dyn$u20$core..ops..function..Fn$LT$$LP$$RF$pyo3..pyclass..create_type_object..PyTypeBuilder$C$$BP$mut$u20$pyo3_ffi..cpython..object..PyTypeObject$RP$$GT$$u2b$Output$u20$$u3d$$u20$$LP$$RP$$GT$$GT$17hf3db5d620d188688E', symObjAddr: 0x323C, symBinAddr: 0x45CCC, symSize: 0x80 }
  - { offset: 0x116F69, size: 0x8, addend: 0x0, symName: '__ZN4core3ptr236drop_in_place$LT$alloc..boxed..Box$LT$dyn$u20$core..ops..function..FnOnce$LT$$LP$pyo3..marker..Python$C$$RP$$GT$$u2b$Output$u20$$u3d$$u20$pyo3..err..err_state..PyErrStateLazyFnOutput$u2b$core..marker..Send$u2b$core..marker..Sync$GT$$GT$17h84f8a19f5ceb3e2bE', symObjAddr: 0x32BC, symBinAddr: 0x45D4C, symSize: 0x80 }
  - { offset: 0x116F98, size: 0x8, addend: 0x0, symName: '__ZN4core3ptr240drop_in_place$LT$$LT$alloc..vec..into_iter..IntoIter$LT$T$C$A$GT$$u20$as$u20$core..ops..drop..Drop$GT$..drop..DropGuard$LT$$LP$$RF$core..ffi..c_str..CStr$C$pyo3..instance..Py$LT$pyo3..types..any..PyAny$GT$$RP$$C$alloc..alloc..Global$GT$$GT$17h3bdf32ca4bba6294E', symObjAddr: 0x333C, symBinAddr: 0x45DCC, symSize: 0x24 }
  - { offset: 0x116FC7, size: 0x8, addend: 0x0, symName: '__ZN4core3ptr243drop_in_place$LT$$u5b$alloc..boxed..Box$LT$dyn$u20$core..ops..function..Fn$LT$$LP$$RF$pyo3..pyclass..create_type_object..PyTypeBuilder$C$$BP$mut$u20$pyo3_ffi..cpython..object..PyTypeObject$RP$$GT$$u2b$Output$u20$$u3d$$u20$$LP$$RP$$GT$$u5d$$GT$17h7ac9aa2f753a7be6E', symObjAddr: 0x3360, symBinAddr: 0x45DF0, symSize: 0xB4 }
  - { offset: 0x116FF6, size: 0x8, addend: 0x0, symName: '__ZN4core3ptr256drop_in_place$LT$alloc..vec..Vec$LT$alloc..boxed..Box$LT$dyn$u20$core..ops..function..Fn$LT$$LP$$RF$pyo3..pyclass..create_type_object..PyTypeBuilder$C$$BP$mut$u20$pyo3_ffi..cpython..object..PyTypeObject$RP$$GT$$u2b$Output$u20$$u3d$$u20$$LP$$RP$$GT$$GT$$GT$17hd3d6d294452a5fbfE', symObjAddr: 0x3414, symBinAddr: 0x45EA4, symSize: 0x5C }
  - { offset: 0x117025, size: 0x8, addend: 0x0, symName: '__ZN4core3ptr263drop_in_place$LT$alloc..raw_vec..RawVec$LT$alloc..boxed..Box$LT$dyn$u20$core..ops..function..Fn$LT$$LP$$RF$pyo3..pyclass..create_type_object..PyTypeBuilder$C$$BP$mut$u20$pyo3_ffi..cpython..object..PyTypeObject$RP$$GT$$u2b$Output$u20$$u3d$$u20$$LP$$RP$$GT$$GT$$GT$17h9787d8b413d4fabcE', symObjAddr: 0x3470, symBinAddr: 0x45F00, symSize: 0x24 }
  - { offset: 0x117054, size: 0x8, addend: 0x0, symName: '__ZN4core3ptr272drop_in_place$LT$alloc..vec..into_iter..IntoIter$LT$alloc..boxed..Box$LT$dyn$u20$core..ops..function..Fn$LT$$LP$$RF$pyo3..pyclass..create_type_object..PyTypeBuilder$C$$BP$mut$u20$pyo3_ffi..cpython..object..PyTypeObject$RP$$GT$$u2b$Output$u20$$u3d$$u20$$LP$$RP$$GT$$GT$$GT$17h57f1b12bf49c3583E', symObjAddr: 0x34B8, symBinAddr: 0x45F24, symSize: 0x24 }
  - { offset: 0x117083, size: 0x8, addend: 0x0, symName: '__ZN4core3ptr366drop_in_place$LT$$LT$alloc..vec..into_iter..IntoIter$LT$T$C$A$GT$$u20$as$u20$core..ops..drop..Drop$GT$..drop..DropGuard$LT$alloc..boxed..Box$LT$dyn$u20$core..ops..function..Fn$LT$$LP$$RF$pyo3..pyclass..create_type_object..PyTypeBuilder$C$$BP$mut$u20$pyo3_ffi..cpython..object..PyTypeObject$RP$$GT$$u2b$Output$u20$$u3d$$u20$$LP$$RP$$GT$$C$alloc..alloc..Global$GT$$GT$17he5f6d38180b7ed64E', symObjAddr: 0x34DC, symBinAddr: 0x45F48, symSize: 0x24 }
  - { offset: 0x1170B2, size: 0x8, addend: 0x0, symName: '__ZN4core3ptr37drop_in_place$LT$pyo3..err..PyErr$GT$17he2bbe3444677b35bE', symObjAddr: 0x3500, symBinAddr: 0x45F6C, symSize: 0x24 }
  - { offset: 0x1170E1, size: 0x8, addend: 0x0, symName: '__ZN4core3ptr40drop_in_place$LT$pyo3..gil..GILGuard$GT$17h5d1e3b8fb5de50e9E', symObjAddr: 0x3524, symBinAddr: 0x45F90, symSize: 0x60 }
  - { offset: 0x117110, size: 0x8, addend: 0x0, symName: '__ZN4core3ptr42drop_in_place$LT$alloc..string..String$GT$17h0a53bc37c20e6b6aE', symObjAddr: 0x35A8, symBinAddr: 0x45FF0, symSize: 0x24 }
  - { offset: 0x11713F, size: 0x8, addend: 0x0, symName: '__ZN4core3ptr45drop_in_place$LT$core..cell..BorrowRefMut$GT$17hab169d50ff895410E', symObjAddr: 0x3614, symBinAddr: 0x46014, symSize: 0x24 }
  - { offset: 0x11716E, size: 0x8, addend: 0x0, symName: '__ZN4core3ptr45drop_in_place$LT$pyo3..err..DowncastError$GT$17h05478c720144dc91E', symObjAddr: 0x3638, symBinAddr: 0x46038, symSize: 0x24 }
  - { offset: 0x11719D, size: 0x8, addend: 0x0, symName: '__ZN4core3ptr45drop_in_place$LT$pyo3..gil..ReferencePool$GT$17hf2a255d384b32e13E', symObjAddr: 0x365C, symBinAddr: 0x4605C, symSize: 0x24 }
  - { offset: 0x1171CC, size: 0x8, addend: 0x0, symName: '__ZN4core3ptr50drop_in_place$LT$alloc..borrow..Cow$LT$str$GT$$GT$17hf55a1b90b5b9ce4aE', symObjAddr: 0x3710, symBinAddr: 0x46080, symSize: 0x48 }
  - { offset: 0x1171FB, size: 0x8, addend: 0x0, symName: '__ZN4core3ptr50drop_in_place$LT$pyo3..impl_..panic..PanicTrap$GT$17h06144aaeaee78062E', symObjAddr: 0x3758, symBinAddr: 0x460C8, symSize: 0x24 }
  - { offset: 0x11722A, size: 0x8, addend: 0x0, symName: '__ZN4core3ptr51drop_in_place$LT$alloc..vec..Vec$LT$$RF$str$GT$$GT$17hf30d1a18a8b3e2b8E', symObjAddr: 0x377C, symBinAddr: 0x460EC, symSize: 0x5C }
  - { offset: 0x117259, size: 0x8, addend: 0x0, symName: '__ZN4core3ptr53drop_in_place$LT$$LP$alloc..string..String$C$$RP$$GT$17h3c7d89d1a18d2a95E', symObjAddr: 0x37D8, symBinAddr: 0x46148, symSize: 0x24 }
  - { offset: 0x117288, size: 0x8, addend: 0x0, symName: '__ZN4core3ptr53drop_in_place$LT$pyo3..err..err_state..PyErrState$GT$17h2c028b3511b06385E', symObjAddr: 0x37FC, symBinAddr: 0x4616C, symSize: 0x58 }
  - { offset: 0x1172B7, size: 0x8, addend: 0x0, symName: '__ZN4core3ptr56drop_in_place$LT$pyo3..err..PyDowncastErrorArguments$GT$17hde5e9dd67181d4d9E', symObjAddr: 0x3878, symBinAddr: 0x461C4, symSize: 0x5C }
  - { offset: 0x1172E6, size: 0x8, addend: 0x0, symName: '__ZN4core3ptr58drop_in_place$LT$alloc..raw_vec..RawVec$LT$$RF$str$GT$$GT$17h101d59439913632bE', symObjAddr: 0x391C, symBinAddr: 0x46220, symSize: 0x24 }
  - { offset: 0x117315, size: 0x8, addend: 0x0, symName: '__ZN4core3ptr58drop_in_place$LT$std..sys..sync..mutex..pthread..Mutex$GT$17hf054327fe2f18a30E', symObjAddr: 0x3940, symBinAddr: 0x46244, symSize: 0x5C }
  - { offset: 0x117344, size: 0x8, addend: 0x0, symName: '__ZN4core3ptr60drop_in_place$LT$std..sys..pal..unix..sync..mutex..Mutex$GT$17h86a6c11081c09e50E', symObjAddr: 0x39E4, symBinAddr: 0x462A0, symSize: 0x24 }
  - { offset: 0x117373, size: 0x8, addend: 0x0, symName: '__ZN4core3ptr63drop_in_place$LT$pyo3..err..err_state..PyErrStateNormalized$GT$17hdeb9322886e8ad36E', symObjAddr: 0x3A08, symBinAddr: 0x462C4, symSize: 0x24 }
  - { offset: 0x1173A2, size: 0x8, addend: 0x0, symName: '__ZN4core3ptr65drop_in_place$LT$alloc..vec..Vec$LT$std..thread..ThreadId$GT$$GT$17h709bdb13c58a8273E', symObjAddr: 0x3A2C, symBinAddr: 0x462E8, symSize: 0x5C }
  - { offset: 0x1173D1, size: 0x8, addend: 0x0, symName: '__ZN4core3ptr65drop_in_place$LT$core..option..Option$LT$pyo3..err..PyErr$GT$$GT$17h9c83bb4e6296f026E', symObjAddr: 0x3A88, symBinAddr: 0x46344, symSize: 0x40 }
  - { offset: 0x117400, size: 0x8, addend: 0x0, symName: '__ZN4core3ptr69drop_in_place$LT$pyo3..pyclass..create_type_object..GetSetDefType$GT$17h6b0b972c20bc1a1dE', symObjAddr: 0x3B94, symBinAddr: 0x46384, symSize: 0x48 }
  - { offset: 0x11742F, size: 0x8, addend: 0x0, symName: '__ZN4core3ptr69drop_in_place$LT$pyo3..pyclass..create_type_object..PyTypeBuilder$GT$17h127f2595f98654d8E', symObjAddr: 0x3BDC, symBinAddr: 0x463CC, symSize: 0xF4 }
  - { offset: 0x11745E, size: 0x8, addend: 0x0, symName: '__ZN4core3ptr70drop_in_place$LT$pyo3..instance..Py$LT$pyo3..types..any..PyAny$GT$$GT$17h01e9a06e98784cf4E', symObjAddr: 0x3CD0, symBinAddr: 0x464C0, symSize: 0x2C }
  - { offset: 0x11748D, size: 0x8, addend: 0x0, symName: '__ZN4core3ptr72drop_in_place$LT$alloc..raw_vec..RawVec$LT$std..thread..ThreadId$GT$$GT$17h1f26c556cd6293fcE', symObjAddr: 0x3D7C, symBinAddr: 0x464EC, symSize: 0x24 }
  - { offset: 0x1174BC, size: 0x8, addend: 0x0, symName: '__ZN4core3ptr73drop_in_place$LT$alloc..vec..Vec$LT$pyo3_ffi..object..PyType_Slot$GT$$GT$17h1d9637719c5d66ccE', symObjAddr: 0x3DA0, symBinAddr: 0x46510, symSize: 0x5C }
  - { offset: 0x1174EB, size: 0x8, addend: 0x0, symName: '__ZN4core3ptr73drop_in_place$LT$core..option..Option$LT$pyo3..gil..ReferencePool$GT$$GT$17hb1c97335919ebabeE', symObjAddr: 0x3E58, symBinAddr: 0x4656C, symSize: 0x40 }
  - { offset: 0x11751A, size: 0x8, addend: 0x0, symName: '__ZN4core3ptr73drop_in_place$LT$pyo3..instance..Bound$LT$pyo3..types..any..PyAny$GT$$GT$17had8b806ab2a56ce3E', symObjAddr: 0x3EBC, symBinAddr: 0x465AC, symSize: 0x24 }
  - { offset: 0x117549, size: 0x8, addend: 0x0, symName: '__ZN4core3ptr73drop_in_place$LT$pyo3..pyclass..create_type_object..PyClassTypeObject$GT$17h6adf462aa4525022E', symObjAddr: 0x3F04, symBinAddr: 0x465D0, symSize: 0x5C }
  - { offset: 0x117578, size: 0x8, addend: 0x0, symName: '__ZN4core3ptr74drop_in_place$LT$pyo3..instance..Py$LT$pyo3..types..tuple..PyTuple$GT$$GT$17hb98f106b6f516547E', symObjAddr: 0x3FB0, symBinAddr: 0x4662C, symSize: 0x2C }
  - { offset: 0x1175A7, size: 0x8, addend: 0x0, symName: '__ZN4core3ptr75drop_in_place$LT$core..option..Option$LT$alloc..ffi..c_str..CString$GT$$GT$17h6225441304a6b4d6E', symObjAddr: 0x3FDC, symBinAddr: 0x46658, symSize: 0x44 }
  - { offset: 0x1175D6, size: 0x8, addend: 0x0, symName: '__ZN4core3ptr75drop_in_place$LT$core..result..Result$LT$$RF$str$C$pyo3..err..PyErr$GT$$GT$17h5e9d15bac6f1151fE', symObjAddr: 0x4020, symBinAddr: 0x4669C, symSize: 0x40 }
  - { offset: 0x117605, size: 0x8, addend: 0x0, symName: '__ZN4core3ptr75drop_in_place$LT$pyo3..instance..Bound$LT$pyo3..types..list..PyList$GT$$GT$17h7fd60881e093d449E', symObjAddr: 0x4084, symBinAddr: 0x466DC, symSize: 0x24 }
  - { offset: 0x117634, size: 0x8, addend: 0x0, symName: '__ZN4core3ptr75drop_in_place$LT$pyo3..pyclass..create_type_object..GetSetDefDestructor$GT$17h75ab4b6c1ead6dacE', symObjAddr: 0x40A8, symBinAddr: 0x46700, symSize: 0x24 }
  - { offset: 0x117663, size: 0x8, addend: 0x0, symName: '__ZN4core3ptr76drop_in_place$LT$core..result..Result$LT$$LP$$RP$$C$pyo3..err..PyErr$GT$$GT$17hf56a47f1b2d6b7f9E', symObjAddr: 0x40CC, symBinAddr: 0x46724, symSize: 0x40 }
  - { offset: 0x117692, size: 0x8, addend: 0x0, symName: '__ZN4core3ptr76drop_in_place$LT$pyo3..instance..Py$LT$pyo3..types..module..PyModule$GT$$GT$17h477f133450ee1d66E', symObjAddr: 0x410C, symBinAddr: 0x46764, symSize: 0x2C }
  - { offset: 0x1176C1, size: 0x8, addend: 0x0, symName: '__ZN4core3ptr76drop_in_place$LT$pyo3..instance..Py$LT$pyo3..types..string..PyString$GT$$GT$17h7213ae679a9a3206E', symObjAddr: 0x4138, symBinAddr: 0x46790, symSize: 0x2C }
  - { offset: 0x1176F0, size: 0x8, addend: 0x0, symName: '__ZN4core3ptr77drop_in_place$LT$pyo3..instance..Bound$LT$pyo3..types..bytes..PyBytes$GT$$GT$17hfd225d17346f4abeE', symObjAddr: 0x4188, symBinAddr: 0x467BC, symSize: 0x24 }
  - { offset: 0x11771F, size: 0x8, addend: 0x0, symName: '__ZN4core3ptr78drop_in_place$LT$alloc..vec..Vec$LT$pyo3_ffi..descrobject..PyGetSetDef$GT$$GT$17h2529bf291c75b4bdE', symObjAddr: 0x4218, symBinAddr: 0x467E0, symSize: 0x5C }
  - { offset: 0x11774E, size: 0x8, addend: 0x0, symName: '__ZN4core3ptr78drop_in_place$LT$alloc..vec..Vec$LT$pyo3_ffi..descrobject..PyMemberDef$GT$$GT$17hc78d974d8d145a52E', symObjAddr: 0x4274, symBinAddr: 0x4683C, symSize: 0x5C }
  - { offset: 0x11777D, size: 0x8, addend: 0x0, symName: '__ZN4core3ptr78drop_in_place$LT$pyo3..instance..Py$LT$pyo3..types..typeobject..PyType$GT$$GT$17hcfddb6de3922b8e2E', symObjAddr: 0x42F4, symBinAddr: 0x46898, symSize: 0x2C }
  - { offset: 0x1177AC, size: 0x8, addend: 0x0, symName: '__ZN4core3ptr79drop_in_place$LT$alloc..vec..Vec$LT$pyo3_ffi..methodobject..PyMethodDef$GT$$GT$17hac52f17f84df8432E', symObjAddr: 0x4320, symBinAddr: 0x468C4, symSize: 0x5C }
  - { offset: 0x1177DB, size: 0x8, addend: 0x0, symName: '__ZN4core3ptr79drop_in_place$LT$pyo3..instance..Bound$LT$pyo3..types..module..PyModule$GT$$GT$17h3c9b691e5e8fdfeeE', symObjAddr: 0x437C, symBinAddr: 0x46920, symSize: 0x24 }
  - { offset: 0x11780A, size: 0x8, addend: 0x0, symName: '__ZN4core3ptr79drop_in_place$LT$pyo3..instance..Bound$LT$pyo3..types..string..PyString$GT$$GT$17h878b179fad11c168E', symObjAddr: 0x43A0, symBinAddr: 0x46944, symSize: 0x24 }
  - { offset: 0x117839, size: 0x8, addend: 0x0, symName: '__ZN4core3ptr80drop_in_place$LT$$u5b$pyo3..instance..Py$LT$pyo3..types..any..PyAny$GT$$u5d$$GT$17h3852ed54dbd677dbE', symObjAddr: 0x43C4, symBinAddr: 0x46968, symSize: 0xB4 }
  - { offset: 0x117868, size: 0x8, addend: 0x0, symName: '__ZN4core3ptr80drop_in_place$LT$alloc..raw_vec..RawVec$LT$pyo3_ffi..object..PyType_Slot$GT$$GT$17h71b13f0620a6a3d1E', symObjAddr: 0x4478, symBinAddr: 0x46A1C, symSize: 0x24 }
  - { offset: 0x117897, size: 0x8, addend: 0x0, symName: '__ZN4core3ptr80drop_in_place$LT$pyo3..instance..Py$LT$pyo3..exceptions..PyBaseException$GT$$GT$17h647da01116c277c0E', symObjAddr: 0x44E4, symBinAddr: 0x46A40, symSize: 0x2C }
  - { offset: 0x1178C6, size: 0x8, addend: 0x0, symName: '__ZN4core3ptr81drop_in_place$LT$core..option..Option$LT$pyo3..err..err_state..PyErrState$GT$$GT$17h3a6c49b7f410e091E', symObjAddr: 0x4534, symBinAddr: 0x46A6C, symSize: 0x40 }
  - { offset: 0x1178F5, size: 0x8, addend: 0x0, symName: '__ZN4core3ptr81drop_in_place$LT$pyo3..instance..Bound$LT$pyo3..types..typeobject..PyType$GT$$GT$17h691e7d61d5f12120E', symObjAddr: 0x45BC, symBinAddr: 0x46AAC, symSize: 0x24 }
  - { offset: 0x117924, size: 0x8, addend: 0x0, symName: '__ZN4core3ptr83drop_in_place$LT$pyo3..instance..Bound$LT$pyo3..exceptions..PyBaseException$GT$$GT$17hd20172aa0824e746E', symObjAddr: 0x45E0, symBinAddr: 0x46AD0, symSize: 0x24 }
  - { offset: 0x117953, size: 0x8, addend: 0x0, symName: '__ZN4core3ptr83drop_in_place$LT$pyo3..instance..Bound$LT$pyo3..types..iterator..PyIterator$GT$$GT$17hef3fce4e5ca87f71E', symObjAddr: 0x4628, symBinAddr: 0x46AF4, symSize: 0x24 }
  - { offset: 0x117982, size: 0x8, addend: 0x0, symName: '__ZN4core3ptr84drop_in_place$LT$pyo3..instance..Bound$LT$pyo3..types..function..PyCFunction$GT$$GT$17hf0371f4625697395E', symObjAddr: 0x464C, symBinAddr: 0x46B18, symSize: 0x24 }
  - { offset: 0x1179B1, size: 0x8, addend: 0x0, symName: '__ZN4core3ptr85drop_in_place$LT$$u5b$pyo3..pyclass..create_type_object..GetSetDefDestructor$u5d$$GT$17he8d0fa25f7ddd180E', symObjAddr: 0x4670, symBinAddr: 0x46B3C, symSize: 0xB4 }
  - { offset: 0x1179E0, size: 0x8, addend: 0x0, symName: '__ZN4core3ptr85drop_in_place$LT$alloc..boxed..Box$LT$std..sys..pal..unix..sync..mutex..Mutex$GT$$GT$17h961a6d78dcd5b93eE', symObjAddr: 0x4724, symBinAddr: 0x46BF0, symSize: 0x60 }
  - { offset: 0x117A0F, size: 0x8, addend: 0x0, symName: '__ZN4core3ptr85drop_in_place$LT$alloc..raw_vec..RawVec$LT$pyo3_ffi..descrobject..PyGetSetDef$GT$$GT$17h5678fd9169e38a81E', symObjAddr: 0x4784, symBinAddr: 0x46C50, symSize: 0x24 }
  - { offset: 0x117A3E, size: 0x8, addend: 0x0, symName: '__ZN4core3ptr85drop_in_place$LT$alloc..raw_vec..RawVec$LT$pyo3_ffi..descrobject..PyMemberDef$GT$$GT$17h51960e4ef36f3b22E', symObjAddr: 0x47A8, symBinAddr: 0x46C74, symSize: 0x24 }
  - { offset: 0x117A6D, size: 0x8, addend: 0x0, symName: '__ZN4core3ptr85drop_in_place$LT$pyo3..instance..Bound$LT$pyo3..types..traceback..PyTraceback$GT$$GT$17hfab6629d43d18101E', symObjAddr: 0x4838, symBinAddr: 0x46C98, symSize: 0x24 }
  - { offset: 0x117A9C, size: 0x8, addend: 0x0, symName: '__ZN4core3ptr86drop_in_place$LT$alloc..raw_vec..RawVec$LT$pyo3_ffi..methodobject..PyMethodDef$GT$$GT$17h158a7c2b5142af30E', symObjAddr: 0x485C, symBinAddr: 0x46CBC, symSize: 0x24 }
  - { offset: 0x117ACB, size: 0x8, addend: 0x0, symName: '__ZN4core3ptr91drop_in_place$LT$$u5b$pyo3..instance..Py$LT$pyo3..types..any..PyAny$GT$$u3b$$u20$1$u5d$$GT$17h67e9666ce9fe455bE', symObjAddr: 0x4E14, symBinAddr: 0x47100, symSize: 0xA4 }
  - { offset: 0x117AFA, size: 0x8, addend: 0x0, symName: '__ZN4core3ptr91drop_in_place$LT$alloc..boxed..Box$LT$dyn$u20$core..any..Any$u2b$core..marker..Send$GT$$GT$17h8ca8834d107a1ac3E', symObjAddr: 0x4F5C, symBinAddr: 0x471A4, symSize: 0x80 }
  - { offset: 0x117B29, size: 0x8, addend: 0x0, symName: '__ZN4core3ptr91drop_in_place$LT$core..cell..RefMut$LT$alloc..vec..Vec$LT$std..thread..ThreadId$GT$$GT$$GT$17h1f900b4f696e7754E', symObjAddr: 0x4FDC, symBinAddr: 0x47224, symSize: 0x24 }
  - { offset: 0x117B58, size: 0x8, addend: 0x0, symName: '__ZN4core3ptr94drop_in_place$LT$$u5b$pyo3..instance..Bound$LT$pyo3..types..any..PyAny$GT$$u3b$$u20$1$u5d$$GT$17h6f2154945bebed56E', symObjAddr: 0x50C8, symBinAddr: 0x47248, symSize: 0xA4 }
  - { offset: 0x117B87, size: 0x8, addend: 0x0, symName: '__ZN4core3ptr96drop_in_place$LT$alloc..boxed..Box$LT$pyo3..pyclass..create_type_object..GetterAndSetter$GT$$GT$17h475073e08bca9b65E', symObjAddr: 0x5210, symBinAddr: 0x472EC, symSize: 0x2C }
  - { offset: 0x117BB6, size: 0x8, addend: 0x0, symName: '__ZN4core3ptr97drop_in_place$LT$core..result..Result$LT$alloc..borrow..Cow$LT$str$GT$$C$pyo3..err..PyErr$GT$$GT$17h554dbea3fd1294e7E', symObjAddr: 0x523C, symBinAddr: 0x47318, symSize: 0x50 }
  - { offset: 0x117BE5, size: 0x8, addend: 0x0, symName: '__ZN4core3ptr98drop_in_place$LT$alloc..vec..Vec$LT$pyo3..pyclass..create_type_object..GetSetDefDestructor$GT$$GT$17hcceb97dfc2839ca2E', symObjAddr: 0x528C, symBinAddr: 0x47368, symSize: 0x5C }
  - { offset: 0x117C14, size: 0x8, addend: 0x0, symName: '__ZN4core3ptr98drop_in_place$LT$core..option..Option$LT$pyo3..instance..Py$LT$pyo3..types..any..PyAny$GT$$GT$$GT$17h181c24ee44d52e4cE', symObjAddr: 0x52E8, symBinAddr: 0x473C4, symSize: 0x44 }
  - { offset: 0x117D2B, size: 0x8, addend: 0x0, symName: __ZN4core6marker5FnPtr4addr17hdf96aab88458dc59E, symObjAddr: 0x567C, symBinAddr: 0x474BC, symSize: 0x14 }
  - { offset: 0x117FAE, size: 0x8, addend: 0x0, symName: '__ZN4core3cmp5impls69_$LT$impl$u20$core..cmp..PartialEq$LT$$RF$B$GT$$u20$for$u20$$RF$A$GT$2eq17h363b2555516ff535E', symObjAddr: 0x12BC, symBinAddr: 0x44A3C, symSize: 0x44 }
  - { offset: 0x11801B, size: 0x8, addend: 0x0, symName: __ZN4core3cmp9PartialEq2ne17h735d7e18e5604f80E, symObjAddr: 0x1300, symBinAddr: 0x44A80, symSize: 0x30 }
  - { offset: 0x11817E, size: 0x8, addend: 0x0, symName: '__ZN185_$LT$core..ops..control_flow..ControlFlow$LT$B$C$C$GT$$u20$as$u20$core..ops..try_trait..FromResidual$LT$core..ops..control_flow..ControlFlow$LT$B$C$core..convert..Infallible$GT$$GT$$GT$13from_residual17h0793f9d9e4cdce51E', symObjAddr: 0x510, symBinAddr: 0x447EC, symSize: 0x18 }
  - { offset: 0x1181C2, size: 0x8, addend: 0x0, symName: '__ZN95_$LT$core..ops..control_flow..ControlFlow$LT$B$C$C$GT$$u20$as$u20$core..ops..try_trait..Try$GT$11from_output17h49c740f7325a25b3E', symObjAddr: 0x6DF4, symBinAddr: 0x477B8, symSize: 0x10 }
  - { offset: 0x118200, size: 0x8, addend: 0x0, symName: '__ZN95_$LT$core..ops..control_flow..ControlFlow$LT$B$C$C$GT$$u20$as$u20$core..ops..try_trait..Try$GT$6branch17h566815e6b43e036bE', symObjAddr: 0x6E04, symBinAddr: 0x477C8, symSize: 0x54 }
  - { offset: 0x1183F5, size: 0x8, addend: 0x0, symName: '__ZN4core3ops8function6FnOnce40call_once$u7b$$u7b$vtable.shim$u7d$$u7d$17h0717b06ab9409a53E', symObjAddr: 0x1468, symBinAddr: 0x44B3C, symSize: 0x30 }
  - { offset: 0x118439, size: 0x8, addend: 0x0, symName: '__ZN4core3ops8function6FnOnce40call_once$u7b$$u7b$vtable.shim$u7d$$u7d$17h0d94d35e37cacb90E', symObjAddr: 0x1498, symBinAddr: 0x44B6C, symSize: 0x24 }
  - { offset: 0x11847D, size: 0x8, addend: 0x0, symName: '__ZN4core3ops8function6FnOnce40call_once$u7b$$u7b$vtable.shim$u7d$$u7d$17h1acda240f1d55482E', symObjAddr: 0x14BC, symBinAddr: 0x44B90, symSize: 0x24 }
  - { offset: 0x1184C1, size: 0x8, addend: 0x0, symName: '__ZN4core3ops8function6FnOnce40call_once$u7b$$u7b$vtable.shim$u7d$$u7d$17h25e7f7bc859046daE', symObjAddr: 0x1560, symBinAddr: 0x44BB4, symSize: 0x30 }
  - { offset: 0x118505, size: 0x8, addend: 0x0, symName: '__ZN4core3ops8function6FnOnce40call_once$u7b$$u7b$vtable.shim$u7d$$u7d$17h2f00c364f3f49caaE', symObjAddr: 0x1590, symBinAddr: 0x44BE4, symSize: 0x24 }
  - { offset: 0x118549, size: 0x8, addend: 0x0, symName: '__ZN4core3ops8function6FnOnce40call_once$u7b$$u7b$vtable.shim$u7d$$u7d$17h45381d862abcb0afE', symObjAddr: 0x1628, symBinAddr: 0x44C08, symSize: 0x24 }
  - { offset: 0x11858D, size: 0x8, addend: 0x0, symName: '__ZN4core3ops8function6FnOnce40call_once$u7b$$u7b$vtable.shim$u7d$$u7d$17h454bb20121475f59E', symObjAddr: 0x164C, symBinAddr: 0x44C2C, symSize: 0x30 }
  - { offset: 0x1185CD, size: 0x8, addend: 0x0, symName: '__ZN4core3ops8function6FnOnce40call_once$u7b$$u7b$vtable.shim$u7d$$u7d$17h494f81ef250b315cE', symObjAddr: 0x167C, symBinAddr: 0x44C5C, symSize: 0x24 }
  - { offset: 0x118611, size: 0x8, addend: 0x0, symName: '__ZN4core3ops8function6FnOnce40call_once$u7b$$u7b$vtable.shim$u7d$$u7d$17h5cf710e44615a138E', symObjAddr: 0x16F0, symBinAddr: 0x44C80, symSize: 0x24 }
  - { offset: 0x118655, size: 0x8, addend: 0x0, symName: '__ZN4core3ops8function6FnOnce40call_once$u7b$$u7b$vtable.shim$u7d$$u7d$17h62b671f21d19b670E', symObjAddr: 0x1714, symBinAddr: 0x44CA4, symSize: 0x30 }
  - { offset: 0x118695, size: 0x8, addend: 0x0, symName: '__ZN4core3ops8function6FnOnce40call_once$u7b$$u7b$vtable.shim$u7d$$u7d$17h66ec167b2cb9bafeE', symObjAddr: 0x1788, symBinAddr: 0x44CD4, symSize: 0x30 }
  - { offset: 0x1186D9, size: 0x8, addend: 0x0, symName: '__ZN4core3ops8function6FnOnce40call_once$u7b$$u7b$vtable.shim$u7d$$u7d$17h68c26aa9f50d974cE', symObjAddr: 0x17B8, symBinAddr: 0x44D04, symSize: 0x38 }
  - { offset: 0x11871D, size: 0x8, addend: 0x0, symName: '__ZN4core3ops8function6FnOnce40call_once$u7b$$u7b$vtable.shim$u7d$$u7d$17ha6783fcb96492ac4E', symObjAddr: 0x1944, symBinAddr: 0x44D3C, symSize: 0x30 }
  - { offset: 0x118761, size: 0x8, addend: 0x0, symName: '__ZN4core3ops8function6FnOnce40call_once$u7b$$u7b$vtable.shim$u7d$$u7d$17hb5f596743b898fadE', symObjAddr: 0x1974, symBinAddr: 0x44D6C, symSize: 0x30 }
  - { offset: 0x1187A5, size: 0x8, addend: 0x0, symName: '__ZN4core3ops8function6FnOnce40call_once$u7b$$u7b$vtable.shim$u7d$$u7d$17hca67522fd0de6aadE', symObjAddr: 0x19EC, symBinAddr: 0x44D9C, symSize: 0x24 }
  - { offset: 0x1187E9, size: 0x8, addend: 0x0, symName: '__ZN4core3ops8function6FnOnce40call_once$u7b$$u7b$vtable.shim$u7d$$u7d$17hcbd7ff02d68ce1d7E', symObjAddr: 0x1A10, symBinAddr: 0x44DC0, symSize: 0x38 }
  - { offset: 0x11882D, size: 0x8, addend: 0x0, symName: __ZN4core3ops8function6FnOnce9call_once17h03e2566797a155baE, symObjAddr: 0x1AC0, symBinAddr: 0x44DF8, symSize: 0x24 }
  - { offset: 0x118871, size: 0x8, addend: 0x0, symName: __ZN4core3ops8function6FnOnce9call_once17h05cd4923b4634661E, symObjAddr: 0x1AE4, symBinAddr: 0x44E1C, symSize: 0x44 }
  - { offset: 0x1188B5, size: 0x8, addend: 0x0, symName: __ZN4core3ops8function6FnOnce9call_once17h09a717ed542e2e88E, symObjAddr: 0x1B28, symBinAddr: 0x44E60, symSize: 0x4C }
  - { offset: 0x1188F5, size: 0x8, addend: 0x0, symName: __ZN4core3ops8function6FnOnce9call_once17h277c6fe31441fedeE, symObjAddr: 0x1B74, symBinAddr: 0x44EAC, symSize: 0x24 }
  - { offset: 0x118939, size: 0x8, addend: 0x0, symName: __ZN4core3ops8function6FnOnce9call_once17h27d692730d92343cE, symObjAddr: 0x1B98, symBinAddr: 0x44ED0, symSize: 0x1C }
  - { offset: 0x11897D, size: 0x8, addend: 0x0, symName: __ZN4core3ops8function6FnOnce9call_once17h29bdba3c895c24f9E, symObjAddr: 0x1BB4, symBinAddr: 0x44EEC, symSize: 0x2C }
  - { offset: 0x1189C1, size: 0x8, addend: 0x0, symName: __ZN4core3ops8function6FnOnce9call_once17h2ef309aad0e8859bE, symObjAddr: 0x1BE0, symBinAddr: 0x44F18, symSize: 0x5C }
  - { offset: 0x118A05, size: 0x8, addend: 0x0, symName: __ZN4core3ops8function6FnOnce9call_once17h3a3d9bf5186056aeE, symObjAddr: 0x1C3C, symBinAddr: 0x44F74, symSize: 0x2C }
  - { offset: 0x118A49, size: 0x8, addend: 0x0, symName: __ZN4core3ops8function6FnOnce9call_once17h3d8b61365ba4f01bE, symObjAddr: 0x1C68, symBinAddr: 0x44FA0, symSize: 0x2C }
  - { offset: 0x118A8D, size: 0x8, addend: 0x0, symName: __ZN4core3ops8function6FnOnce9call_once17h426aa67028595d88E, symObjAddr: 0x1CC0, symBinAddr: 0x44FCC, symSize: 0x40 }
  - { offset: 0x118AD2, size: 0x8, addend: 0x0, symName: __ZN4core3ops8function6FnOnce9call_once17h463cf363d65e29c9E, symObjAddr: 0x1D00, symBinAddr: 0x4500C, symSize: 0x30 }
  - { offset: 0x118B33, size: 0x8, addend: 0x0, symName: __ZN4core3ops8function6FnOnce9call_once17h7a832fe185591ed4E, symObjAddr: 0x1D5C, symBinAddr: 0x4503C, symSize: 0x34 }
  - { offset: 0x118B77, size: 0x8, addend: 0x0, symName: __ZN4core3ops8function6FnOnce9call_once17h8c8f946aeec304d4E, symObjAddr: 0x1D90, symBinAddr: 0x45070, symSize: 0x24 }
  - { offset: 0x118BBB, size: 0x8, addend: 0x0, symName: __ZN4core3ops8function6FnOnce9call_once17h9fe87b7aa0529ef5E, symObjAddr: 0x1ED4, symBinAddr: 0x45094, symSize: 0x34 }
  - { offset: 0x118BFF, size: 0x8, addend: 0x0, symName: __ZN4core3ops8function6FnOnce9call_once17hb0e9cf1cc77790a7E, symObjAddr: 0x1F08, symBinAddr: 0x450C8, symSize: 0x4C }
  - { offset: 0x118C43, size: 0x8, addend: 0x0, symName: __ZN4core3ops8function6FnOnce9call_once17hb9a89be3259dde2cE, symObjAddr: 0x1F54, symBinAddr: 0x45114, symSize: 0x58 }
  - { offset: 0x118C87, size: 0x8, addend: 0x0, symName: __ZN4core3ops8function6FnOnce9call_once17hd31ed15d86a540b8E, symObjAddr: 0x1FD0, symBinAddr: 0x4516C, symSize: 0x4C }
  - { offset: 0x118CCB, size: 0x8, addend: 0x0, symName: __ZN4core3ops8function6FnOnce9call_once17hdc54c655bbdd30f1E, symObjAddr: 0x201C, symBinAddr: 0x451B8, symSize: 0x4C }
  - { offset: 0x118D0B, size: 0x8, addend: 0x0, symName: __ZN4core3ops8function6FnOnce9call_once17he1772c8e77cf58d5E, symObjAddr: 0x20A4, symBinAddr: 0x45204, symSize: 0x24 }
  - { offset: 0x118D4F, size: 0x8, addend: 0x0, symName: __ZN4core3ops8function6FnOnce9call_once17hf3eaf76103a0895bE, symObjAddr: 0x20EC, symBinAddr: 0x45228, symSize: 0x20 }
  - { offset: 0x119995, size: 0x8, addend: 0x0, symName: '__ZN4core5slice29_$LT$impl$u20$$u5b$T$u5d$$GT$8contains17h14e17b1186410193E', symObjAddr: 0x5620, symBinAddr: 0x47474, symSize: 0x48 }
  - { offset: 0x119A8E, size: 0x8, addend: 0x0, symName: '__ZN53_$LT$T$u20$as$u20$core..slice..cmp..SliceContains$GT$14slice_contains17hf1c3161d9ff189deE', symObjAddr: 0x5F5C, symBinAddr: 0x474F4, symSize: 0x78 }
  - { offset: 0x119F02, size: 0x8, addend: 0x0, symName: '__ZN4core4hash5impls52_$LT$impl$u20$core..hash..Hash$u20$for$u20$$RF$T$GT$4hash17h3187927ac4864717E', symObjAddr: 0x55B4, symBinAddr: 0x47408, symSize: 0x3C }
  - { offset: 0x119F4D, size: 0x8, addend: 0x0, symName: '__ZN4core4hash5impls52_$LT$impl$u20$core..hash..Hash$u20$for$u20$$RF$T$GT$4hash17h78e88c8950730436E', symObjAddr: 0x55F0, symBinAddr: 0x47444, symSize: 0x30 }
  - { offset: 0x11A90B, size: 0x8, addend: 0x0, symName: __ZN8pyo3_ffi10modsupport15PyModule_Create17h7a4d154ec7bd93e9E, symObjAddr: 0x6C68, symBinAddr: 0x47790, symSize: 0x28 }
  - { offset: 0x11AFD7, size: 0x8, addend: 0x0, symName: __ZN3std4sync6poison10map_result17h9649593f7b744a84E, symObjAddr: 0xFD0, symBinAddr: 0x44804, symSize: 0xC4 }
  - { offset: 0x11B0F8, size: 0x8, addend: 0x0, symName: '__ZN76_$LT$std..sync..poison..PoisonError$LT$T$GT$$u20$as$u20$core..fmt..Debug$GT$3fmt17hdec7ed79259b8214E', symObjAddr: 0x64DC, symBinAddr: 0x47644, symSize: 0x50 }
  - { offset: 0x11B332, size: 0x8, addend: 0x0, symName: '__ZN62_$LT$std..thread..ThreadId$u20$as$u20$core..cmp..PartialEq$GT$2eq17hae9b28f9f3507452E', symObjAddr: 0x6108, symBinAddr: 0x4759C, symSize: 0x2C }
  - { offset: 0x11B725, size: 0x8, addend: 0x0, symName: '__ZN87_$LT$T$u20$as$u20$alloc..slice..$LT$impl$u20$$u5b$T$u5d$$GT$..to_vec_in..ConvertVec$GT$6to_vec17h6d62f8caed56adfdE', symObjAddr: 0x6A24, symBinAddr: 0x47694, symSize: 0xFC }
  - { offset: 0x11C2EC, size: 0x8, addend: 0x0, symName: __ZN3std4sync6poison4Flag4done17hd8739c6e274aff26E, symObjAddr: 0x1094, symBinAddr: 0x448C8, symSize: 0x8C }
  - { offset: 0x11C3DB, size: 0x8, addend: 0x0, symName: __ZN3std4sync6poison4Flag5guard17hc84ac5a5afa8a868E, symObjAddr: 0x1120, symBinAddr: 0x44954, symSize: 0xCC }
  - { offset: 0x11C53E, size: 0x8, addend: 0x0, symName: __ZN3std6thread6Thread2id17h80b751b7351f0f99E, symObjAddr: 0x11EC, symBinAddr: 0x44A20, symSize: 0x1C }
  - { offset: 0x11C5F5, size: 0x8, addend: 0x0, symName: __ZN4core3ffi5c_str4CStr6as_ptr17hd753319c01a302d2E, symObjAddr: 0x1330, symBinAddr: 0x44AB0, symSize: 0x18 }
  - { offset: 0x11C674, size: 0x8, addend: 0x0, symName: __ZN4core3ffi5c_str4CStr8to_bytes17h40505aed7e37ac1cE, symObjAddr: 0x13C4, symBinAddr: 0x44AC8, symSize: 0x74 }
  - { offset: 0x11C74F, size: 0x8, addend: 0x0, symName: '__ZN4core3ptr8non_null16NonNull$LT$T$GT$13new_unchecked17h7ff1658477fcd022E', symObjAddr: 0x4880, symBinAddr: 0x46CE0, symSize: 0x3C }
  - { offset: 0x11C85E, size: 0x8, addend: 0x0, symName: '__ZN4core3ptr8non_null16NonNull$LT$T$GT$20offset_from_unsigned17h0c9def9f6d72b579E', symObjAddr: 0x4960, symBinAddr: 0x46DC0, symSize: 0x7C }
  - { offset: 0x11C986, size: 0x8, addend: 0x0, symName: '__ZN4core3ptr8non_null16NonNull$LT$T$GT$20offset_from_unsigned17h1b11a4f79b8eefbcE', symObjAddr: 0x49DC, symBinAddr: 0x46E3C, symSize: 0x7C }
  - { offset: 0x11CABE, size: 0x8, addend: 0x0, symName: '__ZN4core3ptr8non_null16NonNull$LT$T$GT$20offset_from_unsigned17h1f4664a753ac3f97E', symObjAddr: 0x4A58, symBinAddr: 0x46EB8, symSize: 0x7C }
